---
triple:          'x86_64-apple-darwin'
binary-path:     search_engine
relocations:
  - { offsetInCU: 0x5C, offset: 0x5C, size: 0x8, addend: 0x0, symName: __ZNSt3__1L19piecewise_constructE, symObjAddr: 0x12851, symBinAddr: 0x1000C36C4, symSize: 0x0 }
  - { offsetInCU: 0xFFCA, offset: 0xFFCA, size: 0x8, addend: 0x0, symName: __ZNSt3__17advanceB7v160006IPNS_12basic_stringIcNS_11char_traitsIcEENS_9allocatorIcEEEEllvEEvRT_T0_, symObjAddr: 0x40F0, symBinAddr: 0x100007D10, symSize: 0x50 }
  - { offsetInCU: 0x1024A, offset: 0x1024A, size: 0x8, addend: 0x0, symName: __ZNSt3__17advanceB7v160006INS_16reverse_iteratorIPNS_12basic_stringIcNS_11char_traitsIcEENS_9allocatorIcEEEEEEllvEEvRT_T0_, symObjAddr: 0x4550, symBinAddr: 0x100008170, symSize: 0x50 }
  - { offsetInCU: 0x102B5, offset: 0x102B5, size: 0x8, addend: 0x0, symName: __ZNSt3__111__introsortINS_17_ClassicAlgPolicyERNS_6__lessINS_12basic_stringIcNS_11char_traitsIcEENS_9allocatorIcEEEES8_EEPS8_EEvT1_SC_T0_NS_15iterator_traitsISC_E15difference_typeE, symObjAddr: 0x56D0, symBinAddr: 0x1000092F0, symSize: 0x6B0 }
  - { offsetInCU: 0x1059C, offset: 0x1059C, size: 0x8, addend: 0x0, symName: __ZNSt3__118__insertion_sort_3B7v160006INS_17_ClassicAlgPolicyERNS_6__lessINS_12basic_stringIcNS_11char_traitsIcEENS_9allocatorIcEEEES8_EEPS8_EEvT1_SC_T0_, symObjAddr: 0x5EF0, symBinAddr: 0x100009B10, symSize: 0x160 }
  - { offsetInCU: 0x10660, offset: 0x10660, size: 0x8, addend: 0x0, symName: __ZNSt3__111__sift_downB7v160006INS_17_ClassicAlgPolicyERNS_6__lessINS_12basic_stringIcNS_11char_traitsIcEENS_9allocatorIcEEEES8_EEPS8_EEvT1_OT0_NS_15iterator_traitsISC_E15difference_typeESC_, symObjAddr: 0x7150, symBinAddr: 0x10000AD70, symSize: 0x220 }
  - { offsetInCU: 0x1070E, offset: 0x1070E, size: 0x8, addend: 0x0, symName: __ZNSt3__117__floyd_sift_downB7v160006INS_17_ClassicAlgPolicyERNS_6__lessINS_12basic_stringIcNS_11char_traitsIcEENS_9allocatorIcEEEES8_EEPS8_EET1_SC_OT0_NS_15iterator_traitsISC_E15difference_typeE, symObjAddr: 0x7520, symBinAddr: 0x10000B140, symSize: 0x100 }
  - { offsetInCU: 0x107A6, offset: 0x107A6, size: 0x8, addend: 0x0, symName: __ZNSt3__127__insertion_sort_incompleteIRNS_6__lessINS_12basic_stringIcNS_11char_traitsIcEENS_9allocatorIcEEEES7_EEPS7_EEbT0_SB_T_, symObjAddr: 0x6270, symBinAddr: 0x100009E90, symSize: 0x310 }
  - { offsetInCU: 0x12C20, offset: 0x12C20, size: 0x8, addend: 0x0, symName: __ZNSt3__17advanceB7v160006IPillvEEvRT_T0_, symObjAddr: 0xA410, symBinAddr: 0x10000E030, symSize: 0x50 }
  - { offsetInCU: 0x12DCD, offset: 0x12DCD, size: 0x8, addend: 0x0, symName: __ZNSt3__124__put_character_sequenceB7v160006IcNS_11char_traitsIcEEEERNS_13basic_ostreamIT_T0_EES7_PKS4_m, symObjAddr: 0xAF90, symBinAddr: 0x10000EBB0, symSize: 0x1F0 }
  - { offsetInCU: 0x19CFD, offset: 0x19CFD, size: 0x8, addend: 0x0, symName: __ZNSt3__1lsB7v160006INS_11char_traitsIcEEEERNS_13basic_ostreamIcT_EES6_PKc, symObjAddr: 0xE0, symBinAddr: 0x100003D00, symSize: 0x40 }
  - { offsetInCU: 0x19D43, offset: 0x19D43, size: 0x8, addend: 0x0, symName: __ZNSt3__1lsB7v160006IcNS_11char_traitsIcEEEERNS_13basic_ostreamIT_T0_EES7_RKNS_8__iom_t6E, symObjAddr: 0x120, symBinAddr: 0x100003D40, symSize: 0x40 }
  - { offsetInCU: 0x19D92, offset: 0x19D92, size: 0x8, addend: 0x0, symName: __ZNSt3__14setwB7v160006Ei, symObjAddr: 0x160, symBinAddr: 0x100003D80, symSize: 0x20 }
  - { offsetInCU: 0x19DC0, offset: 0x19DC0, size: 0x8, addend: 0x0, symName: __ZNSt3__1neB7v160006IPKNS_12basic_stringIcNS_11char_traitsIcEENS_9allocatorIcEEEEEEbRKNS_11__wrap_iterIT_EESD_, symObjAddr: 0x1E0, symBinAddr: 0x100003E00, symSize: 0x30 }
  - { offsetInCU: 0x19E03, offset: 0x19E03, size: 0x8, addend: 0x0, symName: __ZNSt3__1lsB7v160006IcNS_11char_traitsIcEENS_9allocatorIcEEEERNS_13basic_ostreamIT_T0_EES9_RKNS_12basic_stringIS6_S7_T1_EE, symObjAddr: 0x230, symBinAddr: 0x100003E50, symSize: 0x50 }
  - { offsetInCU: 0x19E5B, offset: 0x19E5B, size: 0x8, addend: 0x0, symName: __ZNSt3__14leftB7v160006ERNS_8ios_baseE, symObjAddr: 0x2B0, symBinAddr: 0x100003ED0, symSize: 0x30 }
  - { offsetInCU: 0x19E89, offset: 0x19E89, size: 0x8, addend: 0x0, symName: __ZNSt3__14endlB7v160006IcNS_11char_traitsIcEEEERNS_13basic_ostreamIT_T0_EES7_, symObjAddr: 0x530, symBinAddr: 0x100004150, symSize: 0x50 }
  - { offsetInCU: 0x19EC9, offset: 0x19EC9, size: 0x8, addend: 0x0, symName: __ZNSt3__19transformB7v160006INS_11__wrap_iterIPcEES3_PFiiEEET0_T_S7_S6_T1_, symObjAddr: 0x5E0, symBinAddr: 0x100004200, symSize: 0x90 }
  - { offsetInCU: 0x1B1B0, offset: 0x1B1B0, size: 0x8, addend: 0x0, symName: __ZNSt3__17getlineB7v160006IcNS_11char_traitsIcEENS_9allocatorIcEEEERNS_13basic_istreamIT_T0_EES9_RNS_12basic_stringIS6_S7_T1_EE, symObjAddr: 0xE90, symBinAddr: 0x100004AB0, symSize: 0x50 }
  - { offsetInCU: 0x1B54B, offset: 0x1B54B, size: 0x8, addend: 0x0, symName: __ZNSt3__18for_eachB7v160006INS_11__wrap_iterIPNS_12basic_stringIcNS_11char_traitsIcEENS_9allocatorIcEEEEEEPFvRS7_EEET0_T_SE_SD_, symObjAddr: 0x1090, symBinAddr: 0x100004CB0, symSize: 0x60 }
  - { offsetInCU: 0x1B5A5, offset: 0x1B5A5, size: 0x8, addend: 0x0, symName: __ZNSt3__14sortB7v160006INS_11__wrap_iterIPNS_12basic_stringIcNS_11char_traitsIcEENS_9allocatorIcEEEEEEEEvT_SA_, symObjAddr: 0x1150, symBinAddr: 0x100004D70, symSize: 0x40 }
  - { offsetInCU: 0x1B5E7, offset: 0x1B5E7, size: 0x8, addend: 0x0, symName: __ZNSt3__1neB7v160006IPNS_12basic_stringIcNS_11char_traitsIcEENS_9allocatorIcEEEEEEbRKNS_11__wrap_iterIT_EESC_, symObjAddr: 0x1190, symBinAddr: 0x100004DB0, symSize: 0x30 }
  - { offsetInCU: 0x1B640, offset: 0x1B640, size: 0x8, addend: 0x0, symName: __ZNSt3__1neB7v160006ERKNS_25__hash_map_const_iteratorINS_21__hash_const_iteratorIPNS_11__hash_nodeINS_17__hash_value_typeINS_12basic_stringIcNS_11char_traitsIcEENS_9allocatorIcEEEENS_13unordered_setIS9_NS_4hashIS9_EENS_8equal_toIS9_EENS7_IS9_EEEEEEPvEEEEEESO_, symObjAddr: 0x1550, symBinAddr: 0x100005170, symSize: 0x30 }
  - { offsetInCU: 0x1B67D, offset: 0x1B67D, size: 0x8, addend: 0x0, symName: __ZNSt3__1neB7v160006ERKNS_21__hash_const_iteratorIPNS_11__hash_nodeINS_12basic_stringIcNS_11char_traitsIcEENS_9allocatorIcEEEEPvEEEESD_, symObjAddr: 0x1610, symBinAddr: 0x100005230, symSize: 0x30 }
  - { offsetInCU: 0x1B6BA, offset: 0x1B6BA, size: 0x8, addend: 0x0, symName: __ZNSt3__16uniqueB7v160006INS_11__wrap_iterIPNS_12basic_stringIcNS_11char_traitsIcEENS_9allocatorIcEEEEEEEET_SA_SA_, symObjAddr: 0x1EE0, symBinAddr: 0x100005B00, symSize: 0x40 }
  - { offsetInCU: 0x1B719, offset: 0x1B719, size: 0x8, addend: 0x0, symName: __ZNSt3__1eqB7v160006IPKNS_12basic_stringIcNS_11char_traitsIcEENS_9allocatorIcEEEEEEbRKNS_11__wrap_iterIT_EESD_, symObjAddr: 0x2220, symBinAddr: 0x100005E40, symSize: 0x40 }
  - { offsetInCU: 0x1B75C, offset: 0x1B75C, size: 0x8, addend: 0x0, symName: __ZNSt3__1neB7v160006IPcEEbRKNS_11__wrap_iterIT_EES6_, symObjAddr: 0x22F0, symBinAddr: 0x100005F10, symSize: 0x30 }
  - { offsetInCU: 0x1B79F, offset: 0x1B79F, size: 0x8, addend: 0x0, symName: __ZNSt3__1eqB7v160006IPcEEbRKNS_11__wrap_iterIT_EES6_, symObjAddr: 0x2360, symBinAddr: 0x100005F80, symSize: 0x40 }
  - { offsetInCU: 0x1B7E2, offset: 0x1B7E2, size: 0x8, addend: 0x0, symName: __ZNSt3__119__debug_db_insert_cB7v160006INS_12basic_stringIcNS_11char_traitsIcEENS_9allocatorIcEEEEEEvPT_, symObjAddr: 0x26B0, symBinAddr: 0x1000062D0, symSize: 0x10 }
  - { offsetInCU: 0x1B813, offset: 0x1B813, size: 0x8, addend: 0x0, symName: __ZNSt3__122__make_exception_guardB7v160006INS_6vectorINS_12basic_stringIcNS_11char_traitsIcEENS_9allocatorIcEEEENS5_IS7_EEE16__destroy_vectorEEENS_28__exception_guard_exceptionsIT_EESC_, symObjAddr: 0x2920, symBinAddr: 0x100006540, symSize: 0x40 }
  - { offsetInCU: 0x1B848, offset: 0x1B848, size: 0x8, addend: 0x0, symName: __ZNSt3__119__debug_db_insert_cB7v160006INS_6vectorINS_12basic_stringIcNS_11char_traitsIcEENS_9allocatorIcEEEENS5_IS7_EEEEEEvPT_, symObjAddr: 0x2990, symBinAddr: 0x1000065B0, symSize: 0x10 }
  - { offsetInCU: 0x1B879, offset: 0x1B879, size: 0x8, addend: 0x0, symName: __ZNSt3__1eqB7v160006INS_12basic_stringIcNS_11char_traitsIcEENS_9allocatorIcEEEEcS3_lEEbRKNS_16istream_iteratorIT_T0_T1_T2_EESE_, symObjAddr: 0x29A0, symBinAddr: 0x1000065C0, symSize: 0x30 }
  - { offsetInCU: 0x1B8D7, offset: 0x1B8D7, size: 0x8, addend: 0x0, symName: __ZNSt3__112__to_addressB7v160006INS_12basic_stringIcNS_11char_traitsIcEENS_9allocatorIcEEEEEEPT_S8_, symObjAddr: 0x2E70, symBinAddr: 0x100006A90, symSize: 0x10 }
  - { offsetInCU: 0x1B931, offset: 0x1B931, size: 0x8, addend: 0x0, symName: __ZNSt3__112construct_atB7v160006INS_12basic_stringIcNS_11char_traitsIcEENS_9allocatorIcEEEEJRKS6_EPS6_EEPT_SB_DpOT0_, symObjAddr: 0x2EE0, symBinAddr: 0x100006B00, symSize: 0x40 }
  - { offsetInCU: 0x1B9A1, offset: 0x1B9A1, size: 0x8, addend: 0x0, symName: __ZNSt3__13maxB7v160006ImEERKT_S3_S3_, symObjAddr: 0x3260, symBinAddr: 0x100006E80, symSize: 0x30 }
  - { offsetInCU: 0x1B9E4, offset: 0x1B9E4, size: 0x8, addend: 0x0, symName: __ZNSt3__13minB7v160006ImEERKT_S3_S3_, symObjAddr: 0x3290, symBinAddr: 0x100006EB0, symSize: 0x30 }
  - { offsetInCU: 0x1BC11, offset: 0x1BC11, size: 0x8, addend: 0x0, symName: __ZNSt3__13minB7v160006ImNS_6__lessImmEEEERKT_S5_S5_T0_, symObjAddr: 0x3320, symBinAddr: 0x100006F40, symSize: 0x50 }
  - { offsetInCU: 0x1BCA7, offset: 0x1BCA7, size: 0x8, addend: 0x0, symName: __ZNSt3__120__throw_length_errorB7v160006EPKc, symObjAddr: 0x3400, symBinAddr: 0x100007020, symSize: 0x70 }
  - { offsetInCU: 0x1BCCE, offset: 0x1BCCE, size: 0x8, addend: 0x0, symName: __ZNSt3__13maxB7v160006ImNS_6__lessImmEEEERKT_S5_S5_T0_, symObjAddr: 0x3530, symBinAddr: 0x100007150, symSize: 0x50 }
  - { offsetInCU: 0x1BD28, offset: 0x1BD28, size: 0x8, addend: 0x0, symName: __ZNSt3__119__allocate_at_leastB7v160006INS_9allocatorINS_12basic_stringIcNS_11char_traitsIcEENS1_IcEEEEEEEENS_19__allocation_resultINS_16allocator_traitsIT_E7pointerEEERSA_m, symObjAddr: 0x3670, symBinAddr: 0x100007290, symSize: 0x40 }
  - { offsetInCU: 0x1BD6B, offset: 0x1BD6B, size: 0x8, addend: 0x0, symName: __ZNSt3__117__libcpp_allocateB7v160006Emm, symObjAddr: 0x37E0, symBinAddr: 0x100007400, symSize: 0x60 }
  - { offsetInCU: 0x1BDC5, offset: 0x1BDC5, size: 0x8, addend: 0x0, symName: __ZNSt3__124__is_overaligned_for_newB7v160006Em, symObjAddr: 0x3840, symBinAddr: 0x100007460, symSize: 0x20 }
  - { offsetInCU: 0x1BDF3, offset: 0x1BDF3, size: 0x8, addend: 0x0, symName: __ZNSt3__121__libcpp_operator_newB7v160006IJmSt11align_val_tEEEPvDpT_, symObjAddr: 0x3860, symBinAddr: 0x100007480, symSize: 0x30 }
  - { offsetInCU: 0x1BE40, offset: 0x1BE40, size: 0x8, addend: 0x0, symName: __ZNSt3__121__libcpp_operator_newB7v160006IJmEEEPvDpT_, symObjAddr: 0x3890, symBinAddr: 0x1000074B0, symSize: 0x20 }
  - { offsetInCU: 0x1BE79, offset: 0x1BE79, size: 0x8, addend: 0x0, symName: __ZNSt3__142__uninitialized_allocator_move_if_noexceptB7v160006INS_9allocatorINS_12basic_stringIcNS_11char_traitsIcEENS1_IcEEEEEENS_16reverse_iteratorIPS6_EESA_SA_EET2_RT_T0_T1_SB_, symObjAddr: 0x39C0, symBinAddr: 0x1000075E0, symSize: 0x180 }
  - { offsetInCU: 0x1BF18, offset: 0x1BF18, size: 0x8, addend: 0x0, symName: __ZNSt3__14swapB7v160006IPNS_12basic_stringIcNS_11char_traitsIcEENS_9allocatorIcEEEEEENS_9enable_ifIXaasr21is_move_constructibleIT_EE5valuesr18is_move_assignableIS9_EE5valueEvE4typeERS9_SC_, symObjAddr: 0x3B90, symBinAddr: 0x1000077B0, symSize: 0x40 }
  - { offsetInCU: 0x1BF69, offset: 0x1BF69, size: 0x8, addend: 0x0, symName: __ZNSt3__125__debug_db_invalidate_allB7v160006INS_6vectorINS_12basic_stringIcNS_11char_traitsIcEENS_9allocatorIcEEEENS5_IS7_EEEEEEvPT_, symObjAddr: 0x3C70, symBinAddr: 0x100007890, symSize: 0x10 }
  - { offsetInCU: 0x1BF9A, offset: 0x1BF9A, size: 0x8, addend: 0x0, symName: __ZNSt3__122__make_exception_guardB7v160006INS_29_AllocatorDestroyRangeReverseINS_9allocatorINS_12basic_stringIcNS_11char_traitsIcEENS2_IcEEEEEENS_16reverse_iteratorIPS7_EEEEEENS_28__exception_guard_exceptionsIT_EESE_, symObjAddr: 0x3CC0, symBinAddr: 0x1000078E0, symSize: 0x60 }
  - { offsetInCU: 0x1BFCF, offset: 0x1BFCF, size: 0x8, addend: 0x0, symName: __ZNSt3__1neB7v160006IPNS_12basic_stringIcNS_11char_traitsIcEENS_9allocatorIcEEEES7_EEbRKNS_16reverse_iteratorIT_EERKNS8_IT0_EE, symObjAddr: 0x3D60, symBinAddr: 0x100007980, symSize: 0x40 }
  - { offsetInCU: 0x1C01B, offset: 0x1C01B, size: 0x8, addend: 0x0, symName: __ZNSt3__112__to_addressB7v160006INS_16reverse_iteratorIPNS_12basic_stringIcNS_11char_traitsIcEENS_9allocatorIcEEEEEEvEENS_5decayIDTclsr19__to_address_helperIT_EE6__callclsr3stdE7declvalIRKSB_EEEEE4typeESD_, symObjAddr: 0x3DD0, symBinAddr: 0x1000079F0, symSize: 0x20 }
  - { offsetInCU: 0x1C051, offset: 0x1C051, size: 0x8, addend: 0x0, symName: __ZNSt3__112construct_atB7v160006INS_12basic_stringIcNS_11char_traitsIcEENS_9allocatorIcEEEEJS6_EPS6_EEPT_S9_DpOT0_, symObjAddr: 0x3F30, symBinAddr: 0x100007B50, symSize: 0x40 }
  - { offsetInCU: 0x1C0C1, offset: 0x1C0C1, size: 0x8, addend: 0x0, symName: __ZNSt3__115__debug_db_swapB7v160006INS_12basic_stringIcNS_11char_traitsIcEENS_9allocatorIcEEEEEEvPT_S8_, symObjAddr: 0x4020, symBinAddr: 0x100007C40, symSize: 0x10 }
  - { offsetInCU: 0x1C12A, offset: 0x1C12A, size: 0x8, addend: 0x0, symName: __ZNSt3__14prevB7v160006IPNS_12basic_stringIcNS_11char_traitsIcEENS_9allocatorIcEEEEEENS_9enable_ifIXsr25__is_cpp17_input_iteratorIT_EE5valueES9_E4typeES9_NS_15iterator_traitsIS9_E15difference_typeE, symObjAddr: 0x40A0, symBinAddr: 0x100007CC0, symSize: 0x50 }
  - { offsetInCU: 0x1C16D, offset: 0x1C16D, size: 0x8, addend: 0x0, symName: __ZNSt3__121__convert_to_integralB7v160006El, symObjAddr: 0x4140, symBinAddr: 0x100007D60, symSize: 0x10 }
  - { offsetInCU: 0x1C199, offset: 0x1C199, size: 0x8, addend: 0x0, symName: __ZNSt3__19__advanceB7v160006IPNS_12basic_stringIcNS_11char_traitsIcEENS_9allocatorIcEEEEEEvRT_NS_15iterator_traitsIS8_E15difference_typeENS_26random_access_iterator_tagE, symObjAddr: 0x4150, symBinAddr: 0x100007D70, symSize: 0x20 }
  - { offsetInCU: 0x1C1E3, offset: 0x1C1E3, size: 0x8, addend: 0x0, symName: __ZNSt3__119__allocator_destroyB7v160006INS_9allocatorINS_12basic_stringIcNS_11char_traitsIcEENS1_IcEEEEEENS_16reverse_iteratorINS8_IPS6_EEEESB_EEvRT_T0_T1_, symObjAddr: 0x42A0, symBinAddr: 0x100007EC0, symSize: 0x70 }
  - { offsetInCU: 0x1C246, offset: 0x1C246, size: 0x8, addend: 0x0, symName: __ZNSt3__1neB7v160006INS_16reverse_iteratorIPNS_12basic_stringIcNS_11char_traitsIcEENS_9allocatorIcEEEEEES9_EEbRKNS1_IT_EERKNS1_IT0_EE, symObjAddr: 0x4340, symBinAddr: 0x100007F60, symSize: 0x50 }
  - { offsetInCU: 0x1C292, offset: 0x1C292, size: 0x8, addend: 0x0, symName: __ZNSt3__112__to_addressB7v160006INS_16reverse_iteratorINS1_IPNS_12basic_stringIcNS_11char_traitsIcEENS_9allocatorIcEEEEEEEEvEENS_5decayIDTclsr19__to_address_helperIT_EE6__callclsr3stdE7declvalIRKSC_EEEEE4typeESE_, symObjAddr: 0x43B0, symBinAddr: 0x100007FD0, symSize: 0x20 }
  - { offsetInCU: 0x1C2C8, offset: 0x1C2C8, size: 0x8, addend: 0x0, symName: __ZNSt3__110destroy_atB7v160006INS_12basic_stringIcNS_11char_traitsIcEENS_9allocatorIcEEEELi0EEEvPT_, symObjAddr: 0x4420, symBinAddr: 0x100008040, symSize: 0x20 }
  - { offsetInCU: 0x1C2FF, offset: 0x1C2FF, size: 0x8, addend: 0x0, symName: __ZNSt3__112__destroy_atB7v160006INS_12basic_stringIcNS_11char_traitsIcEENS_9allocatorIcEEEELi0EEEvPT_, symObjAddr: 0x4440, symBinAddr: 0x100008060, symSize: 0x20 }
  - { offsetInCU: 0x1C360, offset: 0x1C360, size: 0x8, addend: 0x0, symName: __ZNSt3__14prevB7v160006INS_16reverse_iteratorIPNS_12basic_stringIcNS_11char_traitsIcEENS_9allocatorIcEEEEEEEENS_9enable_ifIXsr25__is_cpp17_input_iteratorIT_EE5valueESB_E4typeESB_NS_15iterator_traitsISB_E15difference_typeE, symObjAddr: 0x44F0, symBinAddr: 0x100008110, symSize: 0x60 }
  - { offsetInCU: 0x1C3A3, offset: 0x1C3A3, size: 0x8, addend: 0x0, symName: __ZNSt3__19__advanceB7v160006INS_16reverse_iteratorIPNS_12basic_stringIcNS_11char_traitsIcEENS_9allocatorIcEEEEEEEEvRT_NS_15iterator_traitsISA_E15difference_typeENS_26random_access_iterator_tagE, symObjAddr: 0x45A0, symBinAddr: 0x1000081C0, symSize: 0x30 }
  - { offsetInCU: 0x1C3ED, offset: 0x1C3ED, size: 0x8, addend: 0x0, symName: __ZNSt3__119__libcpp_deallocateB7v160006EPvmm, symObjAddr: 0x4890, symBinAddr: 0x1000084B0, symSize: 0x60 }
  - { offsetInCU: 0x1C452, offset: 0x1C452, size: 0x8, addend: 0x0, symName: __ZNSt3__127__do_deallocate_handle_sizeB7v160006IJSt11align_val_tEEEvPvmDpT_, symObjAddr: 0x48F0, symBinAddr: 0x100008510, symSize: 0x30 }
  - { offsetInCU: 0x1C4A5, offset: 0x1C4A5, size: 0x8, addend: 0x0, symName: __ZNSt3__127__do_deallocate_handle_sizeB7v160006IJEEEvPvmDpT_, symObjAddr: 0x4920, symBinAddr: 0x100008540, symSize: 0x20 }
  - { offsetInCU: 0x1C4E3, offset: 0x1C4E3, size: 0x8, addend: 0x0, symName: __ZNSt3__124__libcpp_operator_deleteB7v160006IJPvSt11align_val_tEEEvDpT_, symObjAddr: 0x4940, symBinAddr: 0x100008560, symSize: 0x30 }
  - { offsetInCU: 0x1C52C, offset: 0x1C52C, size: 0x8, addend: 0x0, symName: __ZNSt3__124__libcpp_operator_deleteB7v160006IJPvEEEvDpT_, symObjAddr: 0x4970, symBinAddr: 0x100008590, symSize: 0x20 }
  - { offsetInCU: 0x1C561, offset: 0x1C561, size: 0x8, addend: 0x0, symName: __ZNSt3__1rsB7v160006IcNS_11char_traitsIcEENS_9allocatorIcEEEERNS_13basic_istreamIT_T0_EES9_RNS_12basic_stringIS6_S7_T1_EE, symObjAddr: 0x49D0, symBinAddr: 0x1000085F0, symSize: 0x2F0 }
  - { offsetInCU: 0x1C630, offset: 0x1C630, size: 0x8, addend: 0x0, symName: __ZNSt3__19use_facetB7v160006INS_5ctypeIcEEEERKT_RKNS_6localeE, symObjAddr: 0x4E60, symBinAddr: 0x100008A80, symSize: 0x30 }
  - { offsetInCU: 0x1CA10, offset: 0x1CA10, size: 0x8, addend: 0x0, symName: __ZNSt3__125__debug_db_invalidate_allB7v160006INS_12basic_stringIcNS_11char_traitsIcEENS_9allocatorIcEEEEEEvPT_, symObjAddr: 0x50E0, symBinAddr: 0x100008D00, symSize: 0x10 }
  - { offsetInCU: 0x1CA41, offset: 0x1CA41, size: 0x8, addend: 0x0, symName: __ZNSt3__118__debug_db_erase_cB7v160006INS_6vectorINS_12basic_stringIcNS_11char_traitsIcEENS_9allocatorIcEEEENS5_IS7_EEEEEEvPT_, symObjAddr: 0x53B0, symBinAddr: 0x100008FD0, symSize: 0x10 }
  - { offsetInCU: 0x1CA72, offset: 0x1CA72, size: 0x8, addend: 0x0, symName: __ZNSt3__14sortB7v160006INS_11__wrap_iterIPNS_12basic_stringIcNS_11char_traitsIcEENS_9allocatorIcEEEEEENS_6__lessIS7_S7_EEEEvT_SC_T0_, symObjAddr: 0x5500, symBinAddr: 0x100009120, symSize: 0x40 }
  - { offsetInCU: 0x1CACC, offset: 0x1CACC, size: 0x8, addend: 0x0, symName: __ZNSt3__111__sort_implB7v160006INS_17_ClassicAlgPolicyENS_11__wrap_iterIPNS_12basic_stringIcNS_11char_traitsIcEENS_9allocatorIcEEEEEENS_6__lessIS8_S8_EEEEvT0_SD_RT1_, symObjAddr: 0x5540, symBinAddr: 0x100009160, symSize: 0x80 }
  - { offsetInCU: 0x1CB73, offset: 0x1CB73, size: 0x8, addend: 0x0, symName: __ZNSt3__123__debug_randomize_rangeB7v160006INS_17_ClassicAlgPolicyENS_11__wrap_iterIPNS_12basic_stringIcNS_11char_traitsIcEENS_9allocatorIcEEEEEESA_EEvT0_T1_, symObjAddr: 0x55C0, symBinAddr: 0x1000091E0, symSize: 0x10 }
  - { offsetInCU: 0x1CBC4, offset: 0x1CBC4, size: 0x8, addend: 0x0, symName: __ZNSt3__16__sortIRNS_6__lessINS_12basic_stringIcNS_11char_traitsIcEENS_9allocatorIcEEEES7_EEPS7_EEvT0_SB_T_, symObjAddr: 0x55D0, symBinAddr: 0x1000091F0, symSize: 0x70 }
  - { offsetInCU: 0x1CC54, offset: 0x1CC54, size: 0x8, addend: 0x0, symName: __ZNSt3__113__unwrap_iterB7v160006INS_11__wrap_iterIPNS_12basic_stringIcNS_11char_traitsIcEENS_9allocatorIcEEEEEENS_18__unwrap_iter_implIS9_Lb1EEELi0EEEDTclsrT0_8__unwrapclsr3stdE7declvalIT_EEEESD_, symObjAddr: 0x5640, symBinAddr: 0x100009260, symSize: 0x30 }
  - { offsetInCU: 0x1CC98, offset: 0x1CC98, size: 0x8, addend: 0x0, symName: __ZNSt3__17__log2iB7v160006IlEET_S1_, symObjAddr: 0x5670, symBinAddr: 0x100009290, symSize: 0x50 }
  - { offsetInCU: 0x1CD3D, offset: 0x1CD3D, size: 0x8, addend: 0x0, symName: __ZNSt3__112__libcpp_clzB7v160006Em, symObjAddr: 0x5D80, symBinAddr: 0x1000099A0, symSize: 0x20 }
  - { offsetInCU: 0x1CE36, offset: 0x1CE36, size: 0x8, addend: 0x0, symName: __ZNSt3__124__sort3_maybe_branchlessB7v160006INS_17_ClassicAlgPolicyERNS_6__lessINS_12basic_stringIcNS_11char_traitsIcEENS_9allocatorIcEEEES8_EEPS8_EENS_9enable_ifIXntsr21__use_branchless_sortIT0_T1_EE5valueEvE4typeESE_SE_SE_SD_, symObjAddr: 0x5E20, symBinAddr: 0x100009A40, symSize: 0x40 }
  - { offsetInCU: 0x1CEA7, offset: 0x1CEA7, size: 0x8, addend: 0x0, symName: __ZNSt3__124__sort4_maybe_branchlessB7v160006INS_17_ClassicAlgPolicyERNS_6__lessINS_12basic_stringIcNS_11char_traitsIcEENS_9allocatorIcEEEES8_EEPS8_EENS_9enable_ifIXntsr21__use_branchless_sortIT0_T1_EE5valueEvE4typeESE_SE_SE_SE_SD_, symObjAddr: 0x5E60, symBinAddr: 0x100009A80, symSize: 0x40 }
  - { offsetInCU: 0x1CF2C, offset: 0x1CF2C, size: 0x8, addend: 0x0, symName: __ZNSt3__124__sort5_maybe_branchlessB7v160006INS_17_ClassicAlgPolicyERNS_6__lessINS_12basic_stringIcNS_11char_traitsIcEENS_9allocatorIcEEEES8_EEPS8_EENS_9enable_ifIXntsr21__use_branchless_sortIT0_T1_EE5valueEvE4typeESE_SE_SE_SE_SE_SD_, symObjAddr: 0x5EA0, symBinAddr: 0x100009AC0, symSize: 0x50 }
  - { offsetInCU: 0x1CFC0, offset: 0x1CFC0, size: 0x8, addend: 0x0, symName: __ZNSt3__114__partial_sortB7v160006INS_17_ClassicAlgPolicyERNS_6__lessINS_12basic_stringIcNS_11char_traitsIcEENS_9allocatorIcEEEES8_EEPS8_SB_EET1_SC_SC_T2_RT0_, symObjAddr: 0x6050, symBinAddr: 0x100009C70, symSize: 0x90 }
  - { offsetInCU: 0x1D048, offset: 0x1D048, size: 0x8, addend: 0x0, symName: __ZNSt3__119__sort5_wrap_policyB7v160006INS_17_ClassicAlgPolicyERNS_6__lessINS_12basic_stringIcNS_11char_traitsIcEENS_9allocatorIcEEEES8_EEPS8_EEjT1_SC_SC_SC_SC_T0_, symObjAddr: 0x60E0, symBinAddr: 0x100009D00, symSize: 0x50 }
  - { offsetInCU: 0x1D0EE, offset: 0x1D0EE, size: 0x8, addend: 0x0, symName: __ZNSt3__17__sort3B7v160006INS_17_ClassicAlgPolicyERNS_6__lessINS_12basic_stringIcNS_11char_traitsIcEENS_9allocatorIcEEEES8_EEPS8_EEjT1_SC_SC_T0_, symObjAddr: 0x6130, symBinAddr: 0x100009D50, symSize: 0x140 }
  - { offsetInCU: 0x1D16D, offset: 0x1D16D, size: 0x8, addend: 0x0, symName: __ZNSt3__1ltB7v160006ENS_15strong_orderingENS_20_CmpUnspecifiedParamE, symObjAddr: 0x6580, symBinAddr: 0x10000A1A0, symSize: 0x20 }
  - { offsetInCU: 0x1D1A7, offset: 0x1D1A7, size: 0x8, addend: 0x0, symName: __ZNSt3__1ssB7v160006IcNS_11char_traitsIcEENS_9allocatorIcEEEEDaRKNS_12basic_stringIT_T0_T1_EESC_, symObjAddr: 0x65A0, symBinAddr: 0x10000A1C0, symSize: 0x60 }
  - { offsetInCU: 0x1D21B, offset: 0x1D21B, size: 0x8, addend: 0x0, symName: __ZNSt3__1ssB7v160006IcNS_11char_traitsIcEEEEDaNS_17basic_string_viewIT_T0_EES7_, symObjAddr: 0x6630, symBinAddr: 0x10000A250, symSize: 0x90 }
  - { offsetInCU: 0x1D26A, offset: 0x1D26A, size: 0x8, addend: 0x0, symName: __ZNSt3__118__constexpr_memcmpB7v160006IcEEiPKT_S3_m, symObjAddr: 0x68B0, symBinAddr: 0x10000A4D0, symSize: 0x30 }
  - { offsetInCU: 0x1D2BB, offset: 0x1D2BB, size: 0x8, addend: 0x0, symName: __ZNSt3__112__to_addressB7v160006IKcEEPT_S3_, symObjAddr: 0x6940, symBinAddr: 0x10000A560, symSize: 0x10 }
  - { offsetInCU: 0x1D323, offset: 0x1D323, size: 0x8, addend: 0x0, symName: __ZNSt3__19iter_swapB7v160006IPNS_12basic_stringIcNS_11char_traitsIcEENS_9allocatorIcEEEES7_EEvT_T0_, symObjAddr: 0x6A60, symBinAddr: 0x10000A680, symSize: 0x30 }
  - { offsetInCU: 0x1D36B, offset: 0x1D36B, size: 0x8, addend: 0x0, symName: __ZNSt3__14swapB7v160006IcNS_11char_traitsIcEENS_9allocatorIcEEEEvRNS_12basic_stringIT_T0_T1_EESA_, symObjAddr: 0x6A90, symBinAddr: 0x10000A6B0, symSize: 0x30 }
  - { offsetInCU: 0x1D3BF, offset: 0x1D3BF, size: 0x8, addend: 0x0, symName: __ZNSt3__14swapB7v160006INS_12basic_stringIcNS_11char_traitsIcEENS_9allocatorIcEEE5__repEEENS_9enable_ifIXaasr21is_move_constructibleIT_EE5valuesr18is_move_assignableIS9_EE5valueEvE4typeERS9_SC_, symObjAddr: 0x6B60, symBinAddr: 0x10000A780, symSize: 0x70 }
  - { offsetInCU: 0x1D410, offset: 0x1D410, size: 0x8, addend: 0x0, symName: __ZNSt3__116__swap_allocatorB7v160006INS_9allocatorIcEEEEvRT_S4_, symObjAddr: 0x6BD0, symBinAddr: 0x10000A7F0, symSize: 0x30 }
  - { offsetInCU: 0x1D44F, offset: 0x1D44F, size: 0x8, addend: 0x0, symName: __ZNSt3__116__swap_allocatorB7v160006INS_9allocatorIcEEEEvRT_S4_NS_17integral_constantIbLb0EEE, symObjAddr: 0x6C20, symBinAddr: 0x10000A840, symSize: 0x10 }
  - { offsetInCU: 0x1D493, offset: 0x1D493, size: 0x8, addend: 0x0, symName: __ZNSt3__17__sort4B7v160006INS_17_ClassicAlgPolicyERNS_6__lessINS_12basic_stringIcNS_11char_traitsIcEENS_9allocatorIcEEEES8_EEPS8_EEjT1_SC_SC_SC_T0_, symObjAddr: 0x6C60, symBinAddr: 0x10000A880, symSize: 0xF0 }
  - { offsetInCU: 0x1D544, offset: 0x1D544, size: 0x8, addend: 0x0, symName: __ZNSt3__123__debug_randomize_rangeB7v160006INS_17_ClassicAlgPolicyEPNS_12basic_stringIcNS_11char_traitsIcEENS_9allocatorIcEEEES8_EEvT0_T1_, symObjAddr: 0x6FA0, symBinAddr: 0x10000ABC0, symSize: 0x10 }
  - { offsetInCU: 0x1D595, offset: 0x1D595, size: 0x8, addend: 0x0, symName: __ZNSt3__119__partial_sort_implB7v160006INS_17_ClassicAlgPolicyERNS_6__lessINS_12basic_stringIcNS_11char_traitsIcEENS_9allocatorIcEEEES8_EEPS8_SB_EET1_SC_SC_T2_OT0_, symObjAddr: 0x6FB0, symBinAddr: 0x10000ABD0, symSize: 0x100 }
  - { offsetInCU: 0x1D62B, offset: 0x1D62B, size: 0x8, addend: 0x0, symName: __ZNSt3__111__make_heapB7v160006INS_17_ClassicAlgPolicyERNS_6__lessINS_12basic_stringIcNS_11char_traitsIcEENS_9allocatorIcEEEES8_EEPS8_EEvT1_SC_OT0_, symObjAddr: 0x70B0, symBinAddr: 0x10000ACD0, symSize: 0xA0 }
  - { offsetInCU: 0x1D6CD, offset: 0x1D6CD, size: 0x8, addend: 0x0, symName: __ZNSt3__111__sort_heapB7v160006INS_17_ClassicAlgPolicyERNS_6__lessINS_12basic_stringIcNS_11char_traitsIcEENS_9allocatorIcEEEES8_EEPS8_EEvT1_SC_OT0_, symObjAddr: 0x7370, symBinAddr: 0x10000AF90, symSize: 0x80 }
  - { offsetInCU: 0x1D761, offset: 0x1D761, size: 0x8, addend: 0x0, symName: __ZNSt3__110__pop_heapB7v160006INS_17_ClassicAlgPolicyENS_6__lessINS_12basic_stringIcNS_11char_traitsIcEENS_9allocatorIcEEEES8_EEPS8_EEvT1_SB_RT0_NS_15iterator_traitsISB_E15difference_typeE, symObjAddr: 0x73F0, symBinAddr: 0x10000B010, symSize: 0x130 }
  - { offsetInCU: 0x1D80A, offset: 0x1D80A, size: 0x8, addend: 0x0, symName: __ZNSt3__19__sift_upB7v160006INS_17_ClassicAlgPolicyERNS_6__lessINS_12basic_stringIcNS_11char_traitsIcEENS_9allocatorIcEEEES8_EEPS8_EEvT1_SC_OT0_NS_15iterator_traitsISC_E15difference_typeE, symObjAddr: 0x7620, symBinAddr: 0x10000B240, symSize: 0x140 }
  - { offsetInCU: 0x1D8AA, offset: 0x1D8AA, size: 0x8, addend: 0x0, symName: __ZNSt3__17__sort5IRNS_6__lessINS_12basic_stringIcNS_11char_traitsIcEENS_9allocatorIcEEEES7_EEPS7_EEjT0_SB_SB_SB_SB_T_, symObjAddr: 0x7760, symBinAddr: 0x10000B380, symSize: 0x140 }
  - { offsetInCU: 0x1D9A8, offset: 0x1D9A8, size: 0x8, addend: 0x0, symName: __ZNSt3__112__to_addressB7v160006INS_11__wrap_iterIPNS_12basic_stringIcNS_11char_traitsIcEENS_9allocatorIcEEEEEEvEENS_5decayIDTclsr19__to_address_helperIT_EE6__callclsr3stdE7declvalIRKSB_EEEEE4typeESD_, symObjAddr: 0x78C0, symBinAddr: 0x10000B4E0, symSize: 0x20 }
  - { offsetInCU: 0x1DA4A, offset: 0x1DA4A, size: 0x8, addend: 0x0, symName: __ZNSt3__1eqB7v160006IPNS_12basic_stringIcNS_11char_traitsIcEENS_9allocatorIcEEEEEEbRKNS_11__wrap_iterIT_EESC_, symObjAddr: 0x7960, symBinAddr: 0x10000B580, symSize: 0x40 }
  - { offsetInCU: 0x1DA8D, offset: 0x1DA8D, size: 0x8, addend: 0x0, symName: __ZNSt3__1miB7v160006IPKNS_12basic_stringIcNS_11char_traitsIcEENS_9allocatorIcEEEEPS6_EEDTmicldtfp_4baseEcldtfp0_4baseEERKNS_11__wrap_iterIT_EERKNSB_IT0_EE, symObjAddr: 0x7C70, symBinAddr: 0x10000B890, symSize: 0x40 }
  - { offsetInCU: 0x1DAD9, offset: 0x1DAD9, size: 0x8, addend: 0x0, symName: __ZNSt3__14moveB7v160006IPNS_12basic_stringIcNS_11char_traitsIcEENS_9allocatorIcEEEES7_EET0_T_S9_S8_, symObjAddr: 0x7D10, symBinAddr: 0x10000B930, symSize: 0x40 }
  - { offsetInCU: 0x1DB33, offset: 0x1DB33, size: 0x8, addend: 0x0, symName: __ZNSt3__1miB7v160006IPKNS_12basic_stringIcNS_11char_traitsIcEENS_9allocatorIcEEEES8_EEDTmicldtfp_4baseEcldtfp0_4baseEERKNS_11__wrap_iterIT_EERKNSA_IT0_EE, symObjAddr: 0x7D50, symBinAddr: 0x10000B970, symSize: 0x40 }
  - { offsetInCU: 0x1DB7F, offset: 0x1DB7F, size: 0x8, addend: 0x0, symName: __ZNSt3__16__moveB7v160006INS_17_ClassicAlgPolicyEPNS_12basic_stringIcNS_11char_traitsIcEENS_9allocatorIcEEEES8_S8_EENS_4pairIT0_T2_EESA_T1_SB_, symObjAddr: 0x7E40, symBinAddr: 0x10000BA60, symSize: 0x40 }
  - { offsetInCU: 0x1DBEB, offset: 0x1DBEB, size: 0x8, addend: 0x0, symName: __ZNSt3__123__dispatch_copy_or_moveB7v160006INS_17_ClassicAlgPolicyENS_11__move_loopIS1_EENS_14__move_trivialEPNS_12basic_stringIcNS_11char_traitsIcEENS_9allocatorIcEEEESB_SB_EENS_4pairIT2_T4_EESD_T3_SE_, symObjAddr: 0x7E80, symBinAddr: 0x10000BAA0, symSize: 0x40 }
  - { offsetInCU: 0x1DC69, offset: 0x1DC69, size: 0x8, addend: 0x0, symName: __ZNSt3__121__unwrap_and_dispatchB7v160006INS_10__overloadINS_11__move_loopINS_17_ClassicAlgPolicyEEENS_14__move_trivialEEEPNS_12basic_stringIcNS_11char_traitsIcEENS_9allocatorIcEEEESD_SD_Li0EEENS_4pairIT0_T2_EESF_T1_SG_, symObjAddr: 0x7EC0, symBinAddr: 0x10000BAE0, symSize: 0xB0 }
  - { offsetInCU: 0x1DCF8, offset: 0x1DCF8, size: 0x8, addend: 0x0, symName: __ZNSt3__114__unwrap_rangeB7v160006IPNS_12basic_stringIcNS_11char_traitsIcEENS_9allocatorIcEEEES7_EEDaT_T0_, symObjAddr: 0x7F70, symBinAddr: 0x10000BB90, symSize: 0x40 }
  - { offsetInCU: 0x1DE6A, offset: 0x1DE6A, size: 0x8, addend: 0x0, symName: __ZNSt3__113__unwrap_iterB7v160006IPNS_12basic_stringIcNS_11char_traitsIcEENS_9allocatorIcEEEENS_18__unwrap_iter_implIS7_Lb1EEELi0EEEDTclsrT0_8__unwrapclsr3stdE7declvalIT_EEEESB_, symObjAddr: 0x8030, symBinAddr: 0x10000BC50, symSize: 0x20 }
  - { offsetInCU: 0x1DEAE, offset: 0x1DEAE, size: 0x8, addend: 0x0, symName: __ZNSt3__19make_pairB7v160006IPNS_12basic_stringIcNS_11char_traitsIcEENS_9allocatorIcEEEES7_EENS_4pairINS_18__unwrap_ref_decayIT_E4typeENS9_IT0_E4typeEEEOSA_OSD_, symObjAddr: 0x8050, symBinAddr: 0x10000BC70, symSize: 0x30 }
  - { offsetInCU: 0x1DEFD, offset: 0x1DEFD, size: 0x8, addend: 0x0, symName: __ZNSt3__114__rewrap_rangeB7v160006IPNS_12basic_stringIcNS_11char_traitsIcEENS_9allocatorIcEEEES7_S7_EET0_S8_T1_, symObjAddr: 0x8080, symBinAddr: 0x10000BCA0, symSize: 0x30 }
  - { offsetInCU: 0x1DF52, offset: 0x1DF52, size: 0x8, addend: 0x0, symName: __ZNSt3__113__rewrap_iterB7v160006IPNS_12basic_stringIcNS_11char_traitsIcEENS_9allocatorIcEEEES7_NS_18__unwrap_iter_implIS7_Lb1EEEEET_SA_T0_, symObjAddr: 0x80B0, symBinAddr: 0x10000BCD0, symSize: 0x40 }
  - { offsetInCU: 0x1E04A, offset: 0x1E04A, size: 0x8, addend: 0x0, symName: __ZNSt3__16uniqueB7v160006INS_11__wrap_iterIPNS_12basic_stringIcNS_11char_traitsIcEENS_9allocatorIcEEEEEENS_10__equal_toEEET_SB_SB_T0_, symObjAddr: 0x8250, symBinAddr: 0x10000BE70, symSize: 0x50 }
  - { offsetInCU: 0x1E0A4, offset: 0x1E0A4, size: 0x8, addend: 0x0, symName: __ZNSt3__18__uniqueB7v160006INS_17_ClassicAlgPolicyENS_11__wrap_iterIPNS_12basic_stringIcNS_11char_traitsIcEENS_9allocatorIcEEEEEESA_RNS_10__equal_toEEENS_4pairIT0_SE_EESE_T1_OT2_, symObjAddr: 0x82A0, symBinAddr: 0x10000BEC0, symSize: 0x130 }
  - { offsetInCU: 0x1E12D, offset: 0x1E12D, size: 0x8, addend: 0x0, symName: __ZNSt3__115__adjacent_findB7v160006INS_11__wrap_iterIPNS_12basic_stringIcNS_11char_traitsIcEENS_9allocatorIcEEEEEES9_RNS_10__equal_toEEET_SC_T0_OT1_, symObjAddr: 0x83D0, symBinAddr: 0x10000BFF0, symSize: 0xD0 }
  - { offsetInCU: 0x1E2DC, offset: 0x1E2DC, size: 0x8, addend: 0x0, symName: __ZNSt3__1eqB7v160006INS_9allocatorIcEEEEbRKNS_12basic_stringIcNS_11char_traitsIcEET_EES9_, symObjAddr: 0x8550, symBinAddr: 0x10000C170, symSize: 0x110 }
  - { offsetInCU: 0x1E34F, offset: 0x1E34F, size: 0x8, addend: 0x0, symName: __ZNSt3__122__make_exception_guardB7v160006INS_6vectorIiNS_9allocatorIiEEE16__destroy_vectorEEENS_28__exception_guard_exceptionsIT_EES7_, symObjAddr: 0x8820, symBinAddr: 0x10000C440, symSize: 0x40 }
  - { offsetInCU: 0x1E384, offset: 0x1E384, size: 0x8, addend: 0x0, symName: __ZNSt3__119__debug_db_insert_cB7v160006INS_6vectorIiNS_9allocatorIiEEEEEEvPT_, symObjAddr: 0x8890, symBinAddr: 0x10000C4B0, symSize: 0x10 }
  - { offsetInCU: 0x1E3B5, offset: 0x1E3B5, size: 0x8, addend: 0x0, symName: __ZNSt3__119__allocate_at_leastB7v160006INS_9allocatorIiEEEENS_19__allocation_resultINS_16allocator_traitsIT_E7pointerEEERS5_m, symObjAddr: 0x8BE0, symBinAddr: 0x10000C800, symSize: 0x40 }
  - { offsetInCU: 0x1E3F8, offset: 0x1E3F8, size: 0x8, addend: 0x0, symName: __ZNSt3__112__to_addressB7v160006IiEEPT_S2_, symObjAddr: 0x8EA0, symBinAddr: 0x10000CAC0, symSize: 0x10 }
  - { offsetInCU: 0x1E452, offset: 0x1E452, size: 0x8, addend: 0x0, symName: __ZNSt3__112construct_atB7v160006IiJRKiEPiEEPT_S5_DpOT0_, symObjAddr: 0x8FC0, symBinAddr: 0x10000CBE0, symSize: 0x30 }
  - { offsetInCU: 0x1E4C2, offset: 0x1E4C2, size: 0x8, addend: 0x0, symName: __ZNSt3__118__debug_db_erase_cB7v160006INS_6vectorIiNS_9allocatorIiEEEEEEvPT_, symObjAddr: 0x9190, symBinAddr: 0x10000CDB0, symSize: 0x10 }
  - { offsetInCU: 0x1E4F3, offset: 0x1E4F3, size: 0x8, addend: 0x0, symName: __ZNSt3__110destroy_atB7v160006IiLi0EEEvPT_, symObjAddr: 0x92B0, symBinAddr: 0x10000CED0, symSize: 0x20 }
  - { offsetInCU: 0x1E52A, offset: 0x1E52A, size: 0x8, addend: 0x0, symName: __ZNSt3__112__destroy_atB7v160006IiLi0EEEvPT_, symObjAddr: 0x92D0, symBinAddr: 0x10000CEF0, symSize: 0x10 }
  - { offsetInCU: 0x1E561, offset: 0x1E561, size: 0x8, addend: 0x0, symName: __ZNSt3__122__make_exception_guardB7v160006INS_6vectorINS1_IiNS_9allocatorIiEEEENS2_IS4_EEE16__destroy_vectorEEENS_28__exception_guard_exceptionsIT_EES9_, symObjAddr: 0x9430, symBinAddr: 0x10000D050, symSize: 0x40 }
  - { offsetInCU: 0x1E596, offset: 0x1E596, size: 0x8, addend: 0x0, symName: __ZNSt3__119__debug_db_insert_cB7v160006INS_6vectorINS1_IiNS_9allocatorIiEEEENS2_IS4_EEEEEEvPT_, symObjAddr: 0x94A0, symBinAddr: 0x10000D0C0, symSize: 0x10 }
  - { offsetInCU: 0x1E5C7, offset: 0x1E5C7, size: 0x8, addend: 0x0, symName: __ZNSt3__119__allocate_at_leastB7v160006INS_9allocatorINS_6vectorIiNS1_IiEEEEEEEENS_19__allocation_resultINS_16allocator_traitsIT_E7pointerEEERS8_m, symObjAddr: 0x97F0, symBinAddr: 0x10000D410, symSize: 0x40 }
  - { offsetInCU: 0x1E60A, offset: 0x1E60A, size: 0x8, addend: 0x0, symName: __ZNSt3__112__to_addressB7v160006INS_6vectorIiNS_9allocatorIiEEEEEEPT_S6_, symObjAddr: 0x9AC0, symBinAddr: 0x10000D6E0, symSize: 0x10 }
  - { offsetInCU: 0x1E664, offset: 0x1E664, size: 0x8, addend: 0x0, symName: __ZNSt3__112construct_atB7v160006INS_6vectorIiNS_9allocatorIiEEEEJRKS4_EPS4_EEPT_S9_DpOT0_, symObjAddr: 0x9BE0, symBinAddr: 0x10000D800, symSize: 0x40 }
  - { offsetInCU: 0x1E6D4, offset: 0x1E6D4, size: 0x8, addend: 0x0, symName: __ZNSt3__130__uninitialized_allocator_copyB7v160006INS_9allocatorIiEEPiS3_S3_EET2_RT_T0_T1_S4_, symObjAddr: 0x9E80, symBinAddr: 0x10000DAA0, symSize: 0x100 }
  - { offsetInCU: 0x1E772, offset: 0x1E772, size: 0x8, addend: 0x0, symName: __ZNSt3__122__make_exception_guardB7v160006INS_29_AllocatorDestroyRangeReverseINS_9allocatorIiEEPiEEEENS_28__exception_guard_exceptionsIT_EES7_, symObjAddr: 0x9F80, symBinAddr: 0x10000DBA0, symSize: 0x60 }
  - { offsetInCU: 0x1E7A7, offset: 0x1E7A7, size: 0x8, addend: 0x0, symName: __ZNSt3__112construct_atB7v160006IiJRiEPiEEPT_S4_DpOT0_, symObjAddr: 0xA140, symBinAddr: 0x10000DD60, symSize: 0x30 }
  - { offsetInCU: 0x1E817, offset: 0x1E817, size: 0x8, addend: 0x0, symName: __ZNSt3__119__allocator_destroyB7v160006INS_9allocatorIiEENS_16reverse_iteratorIPiEES5_EEvRT_T0_T1_, symObjAddr: 0xA210, symBinAddr: 0x10000DE30, symSize: 0x70 }
  - { offsetInCU: 0x1E87A, offset: 0x1E87A, size: 0x8, addend: 0x0, symName: __ZNSt3__1neB7v160006IPiS1_EEbRKNS_16reverse_iteratorIT_EERKNS2_IT0_EE, symObjAddr: 0xA2B0, symBinAddr: 0x10000DED0, symSize: 0x40 }
  - { offsetInCU: 0x1E8C6, offset: 0x1E8C6, size: 0x8, addend: 0x0, symName: __ZNSt3__112__to_addressB7v160006INS_16reverse_iteratorIPiEEvEENS_5decayIDTclsr19__to_address_helperIT_EE6__callclsr3stdE7declvalIRKS5_EEEEE4typeES7_, symObjAddr: 0xA2F0, symBinAddr: 0x10000DF10, symSize: 0x20 }
  - { offsetInCU: 0x1E926, offset: 0x1E926, size: 0x8, addend: 0x0, symName: __ZNSt3__14prevB7v160006IPiEENS_9enable_ifIXsr25__is_cpp17_input_iteratorIT_EE5valueES3_E4typeES3_NS_15iterator_traitsIS3_E15difference_typeE, symObjAddr: 0xA3C0, symBinAddr: 0x10000DFE0, symSize: 0x50 }
  - { offsetInCU: 0x1E969, offset: 0x1E969, size: 0x8, addend: 0x0, symName: __ZNSt3__19__advanceB7v160006IPiEEvRT_NS_15iterator_traitsIS2_E15difference_typeENS_26random_access_iterator_tagE, symObjAddr: 0xA460, symBinAddr: 0x10000E080, symSize: 0x20 }
  - { offsetInCU: 0x1E9B3, offset: 0x1E9B3, size: 0x8, addend: 0x0, symName: __ZNSt3__118__debug_db_erase_cB7v160006INS_6vectorINS1_IiNS_9allocatorIiEEEENS2_IS4_EEEEEEvPT_, symObjAddr: 0xA650, symBinAddr: 0x10000E270, symSize: 0x10 }
  - { offsetInCU: 0x1E9E4, offset: 0x1E9E4, size: 0x8, addend: 0x0, symName: __ZNSt3__110destroy_atB7v160006INS_6vectorIiNS_9allocatorIiEEEELi0EEEvPT_, symObjAddr: 0xA780, symBinAddr: 0x10000E3A0, symSize: 0x20 }
  - { offsetInCU: 0x1EA1B, offset: 0x1EA1B, size: 0x8, addend: 0x0, symName: __ZNSt3__112__destroy_atB7v160006INS_6vectorIiNS_9allocatorIiEEEELi0EEEvPT_, symObjAddr: 0xA7A0, symBinAddr: 0x10000E3C0, symSize: 0x20 }
  - { offsetInCU: 0x1EA52, offset: 0x1EA52, size: 0x8, addend: 0x0, symName: __ZNSt3__18distanceB7v160006INS_21__hash_const_iteratorIPNS_11__hash_nodeINS_12basic_stringIcNS_11char_traitsIcEENS_9allocatorIcEEEEPvEEEEEENS_15iterator_traitsIT_E15difference_typeESE_SE_, symObjAddr: 0xA990, symBinAddr: 0x10000E5B0, symSize: 0x40 }
  - { offsetInCU: 0x1EA95, offset: 0x1EA95, size: 0x8, addend: 0x0, symName: __ZNSt3__110__distanceB7v160006INS_21__hash_const_iteratorIPNS_11__hash_nodeINS_12basic_stringIcNS_11char_traitsIcEENS_9allocatorIcEEEEPvEEEEEENS_15iterator_traitsIT_E15difference_typeESE_SE_NS_18input_iterator_tagE, symObjAddr: 0xAB10, symBinAddr: 0x10000E730, symSize: 0x60 }
  - { offsetInCU: 0x1EAF1, offset: 0x1EAF1, size: 0x8, addend: 0x0, symName: __ZNSt3__130__uninitialized_allocator_copyB7v160006INS_9allocatorINS_12basic_stringIcNS_11char_traitsIcEENS1_IcEEEEEENS_21__hash_const_iteratorIPNS_11__hash_nodeIS6_PvEEEESD_PS6_EET2_RT_T0_T1_SF_, symObjAddr: 0xAB70, symBinAddr: 0x10000E790, symSize: 0x140 }
  - { offsetInCU: 0x1EB8F, offset: 0x1EB8F, size: 0x8, addend: 0x0, symName: __ZNSt3__122__make_exception_guardB7v160006INS_29_AllocatorDestroyRangeReverseINS_9allocatorINS_12basic_stringIcNS_11char_traitsIcEENS2_IcEEEEEEPS7_EEEENS_28__exception_guard_exceptionsIT_EESC_, symObjAddr: 0xACB0, symBinAddr: 0x10000E8D0, symSize: 0x60 }
  - { offsetInCU: 0x1EBC4, offset: 0x1EBC4, size: 0x8, addend: 0x0, symName: __ZNSt3__119__allocator_destroyB7v160006INS_9allocatorINS_12basic_stringIcNS_11char_traitsIcEENS1_IcEEEEEENS_16reverse_iteratorIPS6_EESA_EEvRT_T0_T1_, symObjAddr: 0xAEE0, symBinAddr: 0x10000EB00, symSize: 0x70 }
  - { offsetInCU: 0x1EC27, offset: 0x1EC27, size: 0x8, addend: 0x0, symName: __ZNSt3__116__pad_and_outputB7v160006IcNS_11char_traitsIcEEEENS_19ostreambuf_iteratorIT_T0_EES6_PKS4_S8_S8_RNS_8ios_baseES4_, symObjAddr: 0xB1D0, symBinAddr: 0x10000EDF0, symSize: 0x220 }
  - { offsetInCU: 0x1ECF7, offset: 0x1ECF7, size: 0x8, addend: 0x0, symName: __ZNSt3__112__to_addressB7v160006IcEEPT_S2_, symObjAddr: 0xB5B0, symBinAddr: 0x10000F1D0, symSize: 0x10 }
  - { offsetInCU: 0x1ED2C, offset: 0x1ED2C, size: 0x8, addend: 0x0, symName: __ZNSt3__118__constexpr_strlenB7v160006EPKc, symObjAddr: 0xB6C0, symBinAddr: 0x10000F2E0, symSize: 0x20 }
  - { offsetInCU: 0x1ED58, offset: 0x1ED58, size: 0x8, addend: 0x0, symName: __ZNSt3__116__constrain_hashB7v160006Emm, symObjAddr: 0xB9A0, symBinAddr: 0x10000F5C0, symSize: 0x80 }
  - { offsetInCU: 0x1ED92, offset: 0x1ED92, size: 0x8, addend: 0x0, symName: __ZNSt3__116__do_string_hashB7v160006IPKcEEmT_S3_, symObjAddr: 0xBB40, symBinAddr: 0x10000F760, symSize: 0x40 }
  - { offsetInCU: 0x1EDD8, offset: 0x1EDD8, size: 0x8, addend: 0x0, symName: __ZNSt3__110__loadwordB7v160006ImEET_PKv, symObjAddr: 0xC430, symBinAddr: 0x100010050, symSize: 0x20 }
  - { offsetInCU: 0x1EE1B, offset: 0x1EE1B, size: 0x8, addend: 0x0, symName: __ZNSt3__14swapB7v160006ImEENS_9enable_ifIXaasr21is_move_constructibleIT_EE5valuesr18is_move_assignableIS2_EE5valueEvE4typeERS2_S5_, symObjAddr: 0xC5F0, symBinAddr: 0x100010210, symSize: 0x40 }
  - { offsetInCU: 0x1EE6C, offset: 0x1EE6C, size: 0x8, addend: 0x0, symName: __ZNSt3__110__loadwordB7v160006IjEET_PKv, symObjAddr: 0xC680, symBinAddr: 0x1000102A0, symSize: 0x20 }
  - { offsetInCU: 0x1EEE2, offset: 0x1EEE2, size: 0x8, addend: 0x0, symName: __ZNSt3__119__debug_db_insert_cB7v160006INS_13unordered_mapINS_12basic_stringIcNS_11char_traitsIcEENS_9allocatorIcEEEENS_13unordered_setIS7_NS_4hashIS7_EENS_8equal_toIS7_EENS5_IS7_EEEESA_SC_NS5_INS_4pairIKS7_SE_EEEEEEEEvPT_, symObjAddr: 0xC960, symBinAddr: 0x100010580, symSize: 0x10 }
  - { offsetInCU: 0x1EF13, offset: 0x1EF13, size: 0x8, addend: 0x0, symName: __ZNSt3__118__debug_db_erase_cB7v160006INS_12__hash_tableINS_17__hash_value_typeINS_12basic_stringIcNS_11char_traitsIcEENS_9allocatorIcEEEENS_13unordered_setIS8_NS_4hashIS8_EENS_8equal_toIS8_EENS6_IS8_EEEEEENS_22__unordered_map_hasherIS8_SG_SB_SD_Lb1EEENS_21__unordered_map_equalIS8_SG_SD_SB_Lb1EEENS6_ISG_EEEEEEvPT_, symObjAddr: 0xCFE0, symBinAddr: 0x100010C00, symSize: 0x10 }
  - { offsetInCU: 0x1EF77, offset: 0x1EF77, size: 0x8, addend: 0x0, symName: __ZNSt3__110destroy_atB7v160006INS_4pairIKNS_12basic_stringIcNS_11char_traitsIcEENS_9allocatorIcEEEENS_13unordered_setIS7_NS_4hashIS7_EENS_8equal_toIS7_EENS5_IS7_EEEEEELi0EEEvPT_, symObjAddr: 0xD100, symBinAddr: 0x100010D20, symSize: 0x20 }
  - { offsetInCU: 0x1EFAE, offset: 0x1EFAE, size: 0x8, addend: 0x0, symName: __ZNSt3__112__destroy_atB7v160006INS_4pairIKNS_12basic_stringIcNS_11char_traitsIcEENS_9allocatorIcEEEENS_13unordered_setIS7_NS_4hashIS7_EENS_8equal_toIS7_EENS5_IS7_EEEEEELi0EEEvPT_, symObjAddr: 0xD120, symBinAddr: 0x100010D40, symSize: 0x20 }
  - { offsetInCU: 0x1EFE5, offset: 0x1EFE5, size: 0x8, addend: 0x0, symName: __ZNSt3__17launderB7v160006INS_4pairIKNS_12basic_stringIcNS_11char_traitsIcEENS_9allocatorIcEEEENS_13unordered_setIS7_NS_4hashIS7_EENS_8equal_toIS7_EENS5_IS7_EEEEEEEEPT_SI_, symObjAddr: 0xD1B0, symBinAddr: 0x100010DD0, symSize: 0x20 }
  - { offsetInCU: 0x1F01C, offset: 0x1F01C, size: 0x8, addend: 0x0, symName: __ZNSt3__19__launderB7v160006INS_4pairIKNS_12basic_stringIcNS_11char_traitsIcEENS_9allocatorIcEEEENS_13unordered_setIS7_NS_4hashIS7_EENS_8equal_toIS7_EENS5_IS7_EEEEEEEEPT_SI_, symObjAddr: 0xD1D0, symBinAddr: 0x100010DF0, symSize: 0x10 }
  - { offsetInCU: 0x1F053, offset: 0x1F053, size: 0x8, addend: 0x0, symName: __ZNSt3__17getlineB7v160006IcNS_11char_traitsIcEENS_9allocatorIcEEEERNS_13basic_istreamIT_T0_EES9_RNS_12basic_stringIS6_S7_T1_EES6_, symObjAddr: 0xD600, symBinAddr: 0x100011220, symSize: 0x220 }
  - { offsetInCU: 0x1F148, offset: 0x1F148, size: 0x8, addend: 0x0, symName: __ZNSt3__116forward_as_tupleB7v160006IJRKNS_12basic_stringIcNS_11char_traitsIcEENS_9allocatorIcEEEEEEENS_5tupleIJDpOT_EEESC_, symObjAddr: 0xE110, symBinAddr: 0x100011D30, symSize: 0x30 }
  - { offsetInCU: 0x1F181, offset: 0x1F181, size: 0x8, addend: 0x0, symName: __ZNSt3__116forward_as_tupleB7v160006IJEEENS_5tupleIJDpOT_EEES4_, symObjAddr: 0xE140, symBinAddr: 0x100011D60, symSize: 0x10 }
  - { offsetInCU: 0x1F1A5, offset: 0x1F1A5, size: 0x8, addend: 0x0, symName: __ZNSt3__116__is_hash_power2B7v160006Em, symObjAddr: 0xE470, symBinAddr: 0x100012090, symSize: 0x40 }
  - { offsetInCU: 0x1F1D1, offset: 0x1F1D1, size: 0x8, addend: 0x0, symName: __ZNSt3__17launderB7v160006IKNS_4pairIKNS_12basic_stringIcNS_11char_traitsIcEENS_9allocatorIcEEEENS_13unordered_setIS7_NS_4hashIS7_EENS_8equal_toIS7_EENS5_IS7_EEEEEEEEPT_SJ_, symObjAddr: 0xE730, symBinAddr: 0x100012350, symSize: 0x20 }
  - { offsetInCU: 0x1F208, offset: 0x1F208, size: 0x8, addend: 0x0, symName: __ZNSt3__19__launderB7v160006IKNS_4pairIKNS_12basic_stringIcNS_11char_traitsIcEENS_9allocatorIcEEEENS_13unordered_setIS7_NS_4hashIS7_EENS_8equal_toIS7_EENS5_IS7_EEEEEEEEPT_SJ_, symObjAddr: 0xE750, symBinAddr: 0x100012370, symSize: 0x10 }
  - { offsetInCU: 0x1F282, offset: 0x1F282, size: 0x8, addend: 0x0, symName: __ZNSt3__112construct_atB7v160006INS_4pairIKNS_12basic_stringIcNS_11char_traitsIcEENS_9allocatorIcEEEENS_13unordered_setIS7_NS_4hashIS7_EENS_8equal_toIS7_EENS5_IS7_EEEEEEJRKNS_21piecewise_construct_tENS_5tupleIJRS8_EEENSK_IJEEEEPSG_EEPT_SQ_DpOT0_, symObjAddr: 0xEA10, symBinAddr: 0x100012630, symSize: 0x50 }
  - { offsetInCU: 0x1F324, offset: 0x1F324, size: 0x8, addend: 0x0, symName: __ZNSt3__13getB7v160006ILm0EJRKNS_12basic_stringIcNS_11char_traitsIcEENS_9allocatorIcEEEEEEERNS_13tuple_elementIXT_ENS_5tupleIJDpT0_EEEE4typeERSD_, symObjAddr: 0xEB10, symBinAddr: 0x100012730, symSize: 0x20 }
  - { offsetInCU: 0x1F367, offset: 0x1F367, size: 0x8, addend: 0x0, symName: __ZNSt3__116__next_hash_pow2B7v160006Em, symObjAddr: 0xF060, symBinAddr: 0x100012C80, symSize: 0x60 }
  - { offsetInCU: 0x1F393, offset: 0x1F393, size: 0x8, addend: 0x0, symName: __ZNSt3__125__debug_db_invalidate_allB7v160006INS_12__hash_tableINS_17__hash_value_typeINS_12basic_stringIcNS_11char_traitsIcEENS_9allocatorIcEEEENS_13unordered_setIS8_NS_4hashIS8_EENS_8equal_toIS8_EENS6_IS8_EEEEEENS_22__unordered_map_hasherIS8_SG_SB_SD_Lb1EEENS_21__unordered_map_equalIS8_SG_SD_SB_Lb1EEENS6_ISG_EEEEEEvPT_, symObjAddr: 0xF0C0, symBinAddr: 0x100012CE0, symSize: 0x10 }
  - { offsetInCU: 0x1F439, offset: 0x1F439, size: 0x8, addend: 0x0, symName: __ZNSt3__125__debug_db_invalidate_allB7v160006INS_12__hash_tableINS_12basic_stringIcNS_11char_traitsIcEENS_9allocatorIcEEEENS_4hashIS7_EENS_8equal_toIS7_EENS5_IS7_EEEEEEvPT_, symObjAddr: 0x10670, symBinAddr: 0x100014290, symSize: 0x10 }
  - { offsetInCU: 0x1F46A, offset: 0x1F46A, size: 0x8, addend: 0x0, symName: __ZNSt3__1neB7v160006ERKNS_21__hash_const_iteratorIPNS_11__hash_nodeINS_17__hash_value_typeINS_12basic_stringIcNS_11char_traitsIcEENS_9allocatorIcEEEENS_13unordered_setIS8_NS_4hashIS8_EENS_8equal_toIS8_EENS6_IS8_EEEEEEPvEEEESM_, symObjAddr: 0x10DA0, symBinAddr: 0x1000149C0, symSize: 0x30 }
  - { offsetInCU: 0x1F4A7, offset: 0x1F4A7, size: 0x8, addend: 0x0, symName: __ZNSt3__1eqB7v160006ERKNS_21__hash_const_iteratorIPNS_11__hash_nodeINS_17__hash_value_typeINS_12basic_stringIcNS_11char_traitsIcEENS_9allocatorIcEEEENS_13unordered_setIS8_NS_4hashIS8_EENS_8equal_toIS8_EENS6_IS8_EEEEEEPvEEEESM_, symObjAddr: 0x10DD0, symBinAddr: 0x1000149F0, symSize: 0x30 }
  - { offsetInCU: 0x1F517, offset: 0x1F517, size: 0x8, addend: 0x0, symName: __ZNSt3__1eqB7v160006ERKNS_21__hash_const_iteratorIPNS_11__hash_nodeINS_12basic_stringIcNS_11char_traitsIcEENS_9allocatorIcEEEEPvEEEESD_, symObjAddr: 0x10ED0, symBinAddr: 0x100014AF0, symSize: 0x30 }
  - { offsetInCU: 0x1F554, offset: 0x1F554, size: 0x8, addend: 0x0, symName: __ZNSt3__119__debug_db_insert_cB7v160006INS_13unordered_setINS_12basic_stringIcNS_11char_traitsIcEENS_9allocatorIcEEEENS_4hashIS7_EENS_8equal_toIS7_EENS5_IS7_EEEEEEvPT_, symObjAddr: 0x10F60, symBinAddr: 0x100014B80, symSize: 0x10 }
  - { offsetInCU: 0x1F585, offset: 0x1F585, size: 0x8, addend: 0x0, symName: __ZNSt3__118__debug_db_erase_cB7v160006INS_12__hash_tableINS_12basic_stringIcNS_11char_traitsIcEENS_9allocatorIcEEEENS_4hashIS7_EENS_8equal_toIS7_EENS5_IS7_EEEEEEvPT_, symObjAddr: 0x11540, symBinAddr: 0x100015160, symSize: 0x10 }
  - { offsetInCU: 0x1FE67, offset: 0x1FE67, size: 0x8, addend: 0x0, symName: __ZSt28__throw_bad_array_new_lengthB7v160006v, symObjAddr: 0x37A0, symBinAddr: 0x1000073C0, symSize: 0x40 }
  - { offsetInCU: 0x20C6C, offset: 0x20C6C, size: 0x8, addend: 0x0, symName: __ZNSt3__16vectorINS_12basic_stringIcNS_11char_traitsIcEENS_9allocatorIcEEEENS4_IS6_EEE26__swap_out_circular_bufferERNS_14__split_bufferIS6_RS7_EE, symObjAddr: 0x3050, symBinAddr: 0x100006C70, symSize: 0x130 }
  - { offsetInCU: 0x22F45, offset: 0x22F45, size: 0x8, addend: 0x0, symName: __Z7toloweri, symObjAddr: 0x710, symBinAddr: 0x100004330, symSize: 0x20 }
  - { offsetInCU: 0x23D7C, offset: 0x23D7C, size: 0x8, addend: 0x0, symName: __Z12print_headerRKNSt3__16vectorINS_12basic_stringIcNS_11char_traitsIcEENS_9allocatorIcEEEENS4_IS6_EEEE, symObjAddr: 0x0, symBinAddr: 0x100003C20, symSize: 0xE0 }
  - { offsetInCU: 0x23DF6, offset: 0x23DF6, size: 0x8, addend: 0x0, symName: __ZNKSt3__16vectorINS_12basic_stringIcNS_11char_traitsIcEENS_9allocatorIcEEEENS4_IS6_EEE5beginB7v160006Ev, symObjAddr: 0x180, symBinAddr: 0x100003DA0, symSize: 0x30 }
  - { offsetInCU: 0x23E1E, offset: 0x23E1E, size: 0x8, addend: 0x0, symName: __ZNKSt3__16vectorINS_12basic_stringIcNS_11char_traitsIcEENS_9allocatorIcEEEENS4_IS6_EEE3endB7v160006Ev, symObjAddr: 0x1B0, symBinAddr: 0x100003DD0, symSize: 0x30 }
  - { offsetInCU: 0x23E46, offset: 0x23E46, size: 0x8, addend: 0x0, symName: __ZNKSt3__111__wrap_iterIPKNS_12basic_stringIcNS_11char_traitsIcEENS_9allocatorIcEEEEEdeB7v160006Ev, symObjAddr: 0x210, symBinAddr: 0x100003E30, symSize: 0x20 }
  - { offsetInCU: 0x23E6C, offset: 0x23E6C, size: 0x8, addend: 0x0, symName: __ZNSt3__113basic_ostreamIcNS_11char_traitsIcEEElsB7v160006EPFRNS_8ios_baseES5_E, symObjAddr: 0x280, symBinAddr: 0x100003EA0, symSize: 0x30 }
  - { offsetInCU: 0x23EA0, offset: 0x23EA0, size: 0x8, addend: 0x0, symName: __ZNSt3__111__wrap_iterIPKNS_12basic_stringIcNS_11char_traitsIcEENS_9allocatorIcEEEEEppB7v160006Ev, symObjAddr: 0x2E0, symBinAddr: 0x100003F00, symSize: 0x20 }
  - { offsetInCU: 0x23EC5, offset: 0x23EC5, size: 0x8, addend: 0x0, symName: __Z9print_rowRKNSt3__112basic_stringIcNS_11char_traitsIcEENS_9allocatorIcEEEERKNS_6vectorIS5_NS3_IS5_EEEERKNS_13unordered_setIS5_NS_4hashIS5_EENS_8equal_toIS5_EES9_EERNS8_INS8_IiNS3_IiEEEENS3_ISM_EEEEi, symObjAddr: 0x300, symBinAddr: 0x100003F20, symSize: 0x150 }
  - { offsetInCU: 0x23F42, offset: 0x23F42, size: 0x8, addend: 0x0, symName: __ZNKSt3__16vectorINS_12basic_stringIcNS_11char_traitsIcEENS_9allocatorIcEEEENS4_IS6_EEE4sizeB7v160006Ev, symObjAddr: 0x450, symBinAddr: 0x100004070, symSize: 0x30 }
  - { offsetInCU: 0x23F68, offset: 0x23F68, size: 0x8, addend: 0x0, symName: __ZNKSt3__113unordered_setINS_12basic_stringIcNS_11char_traitsIcEENS_9allocatorIcEEEENS_4hashIS6_EENS_8equal_toIS6_EENS4_IS6_EEE5countB7v160006ERKS6_, symObjAddr: 0x480, symBinAddr: 0x1000040A0, symSize: 0x30 }
  - { offsetInCU: 0x23F9D, offset: 0x23F9D, size: 0x8, addend: 0x0, symName: __ZNKSt3__16vectorINS_12basic_stringIcNS_11char_traitsIcEENS_9allocatorIcEEEENS4_IS6_EEEixB7v160006Em, symObjAddr: 0x4B0, symBinAddr: 0x1000040D0, symSize: 0x20 }
  - { offsetInCU: 0x23FD4, offset: 0x23FD4, size: 0x8, addend: 0x0, symName: __ZNSt3__16vectorINS0_IiNS_9allocatorIiEEEENS1_IS3_EEEixB7v160006Em, symObjAddr: 0x4D0, symBinAddr: 0x1000040F0, symSize: 0x20 }
  - { offsetInCU: 0x2400B, offset: 0x2400B, size: 0x8, addend: 0x0, symName: __ZNSt3__16vectorIiNS_9allocatorIiEEEixB7v160006Em, symObjAddr: 0x4F0, symBinAddr: 0x100004110, symSize: 0x20 }
  - { offsetInCU: 0x24042, offset: 0x24042, size: 0x8, addend: 0x0, symName: __ZNSt3__113basic_ostreamIcNS_11char_traitsIcEEElsB7v160006EPFRS3_S4_E, symObjAddr: 0x510, symBinAddr: 0x100004130, symSize: 0x20 }
  - { offsetInCU: 0x24075, offset: 0x24075, size: 0x8, addend: 0x0, symName: __Z18transform_to_lowerRNSt3__112basic_stringIcNS_11char_traitsIcEENS_9allocatorIcEEEE, symObjAddr: 0x580, symBinAddr: 0x1000041A0, symSize: 0x60 }
  - { offsetInCU: 0x2409E, offset: 0x2409E, size: 0x8, addend: 0x0, symName: __ZNSt3__112basic_stringIcNS_11char_traitsIcEENS_9allocatorIcEEE5beginB7v160006Ev, symObjAddr: 0x670, symBinAddr: 0x100004290, symSize: 0x50 }
  - { offsetInCU: 0x240C4, offset: 0x240C4, size: 0x8, addend: 0x0, symName: __ZNSt3__112basic_stringIcNS_11char_traitsIcEENS_9allocatorIcEEE3endB7v160006Ev, symObjAddr: 0x6C0, symBinAddr: 0x1000042E0, symSize: 0x50 }
  - { offsetInCU: 0x240E9, offset: 0x240E9, size: 0x8, addend: 0x0, symName: __Z39build_inverted_index_with_string_docIDsRKNSt3__16vectorINS_12basic_stringIcNS_11char_traitsIcEENS_9allocatorIcEEEENS4_IS6_EEEE, symObjAddr: 0x730, symBinAddr: 0x100004350, symSize: 0x590 }
  - { offsetInCU: 0x242A7, offset: 0x242A7, size: 0x8, addend: 0x0, symName: __ZNSt3__113unordered_mapINS_12basic_stringIcNS_11char_traitsIcEENS_9allocatorIcEEEENS_13unordered_setIS6_NS_4hashIS6_EENS_8equal_toIS6_EENS4_IS6_EEEES9_SB_NS4_INS_4pairIKS6_SD_EEEEEC1B7v160006Ev, symObjAddr: 0xCC0, symBinAddr: 0x1000048E0, symSize: 0x20 }
  - { offsetInCU: 0x24382, offset: 0x24382, size: 0x8, addend: 0x0, symName: __ZNSt3__114basic_ifstreamIcNS_11char_traitsIcEEEC1ERKNS_12basic_stringIcS2_NS_9allocatorIcEEEEj, symObjAddr: 0xCE0, symBinAddr: 0x100004900, symSize: 0x160 }
  - { offsetInCU: 0x243CC, offset: 0x243CC, size: 0x8, addend: 0x0, symName: __ZNKSt3__114basic_ifstreamIcNS_11char_traitsIcEEE7is_openEv, symObjAddr: 0xE40, symBinAddr: 0x100004A60, symSize: 0x30 }
  - { offsetInCU: 0x243F4, offset: 0x243F4, size: 0x8, addend: 0x0, symName: __ZNSt3__112basic_stringIcNS_11char_traitsIcEENS_9allocatorIcEEEC1B7v160006Ev, symObjAddr: 0xE70, symBinAddr: 0x100004A90, symSize: 0x20 }
  - { offsetInCU: 0x2441E, offset: 0x2441E, size: 0x8, addend: 0x0, symName: __ZNKSt3__19basic_iosIcNS_11char_traitsIcEEEcvbB7v160006Ev, symObjAddr: 0xEE0, symBinAddr: 0x100004B00, symSize: 0x30 }
  - { offsetInCU: 0x244A0, offset: 0x244A0, size: 0x8, addend: 0x0, symName: __ZNSt3__119basic_istringstreamIcNS_11char_traitsIcEENS_9allocatorIcEEEC1B7v160006ERKNS_12basic_stringIcS2_S4_EEj, symObjAddr: 0xF10, symBinAddr: 0x100004B30, symSize: 0xE0 }
  - { offsetInCU: 0x244E8, offset: 0x244E8, size: 0x8, addend: 0x0, symName: __ZNSt3__116istream_iteratorINS_12basic_stringIcNS_11char_traitsIcEENS_9allocatorIcEEEEcS3_lEC1B7v160006ERNS_13basic_istreamIcS3_EE, symObjAddr: 0xFF0, symBinAddr: 0x100004C10, symSize: 0x30 }
  - { offsetInCU: 0x24520, offset: 0x24520, size: 0x8, addend: 0x0, symName: __ZNSt3__116istream_iteratorINS_12basic_stringIcNS_11char_traitsIcEENS_9allocatorIcEEEEcS3_lEC1B7v160006Ev, symObjAddr: 0x1020, symBinAddr: 0x100004C40, symSize: 0x20 }
  - { offsetInCU: 0x2454A, offset: 0x2454A, size: 0x8, addend: 0x0, symName: __ZNSt3__16vectorINS_12basic_stringIcNS_11char_traitsIcEENS_9allocatorIcEEEENS4_IS6_EEEC1INS_16istream_iteratorIS6_cS3_lEELi0EEET_SC_, symObjAddr: 0x1040, symBinAddr: 0x100004C60, symSize: 0x30 }
  - { offsetInCU: 0x245A5, offset: 0x245A5, size: 0x8, addend: 0x0, symName: __ZNSt3__116istream_iteratorINS_12basic_stringIcNS_11char_traitsIcEENS_9allocatorIcEEEEcS3_lED1Ev, symObjAddr: 0x1070, symBinAddr: 0x100004C90, symSize: 0x20 }
  - { offsetInCU: 0x245D1, offset: 0x245D1, size: 0x8, addend: 0x0, symName: __ZNSt3__16vectorINS_12basic_stringIcNS_11char_traitsIcEENS_9allocatorIcEEEENS4_IS6_EEE5beginB7v160006Ev, symObjAddr: 0x10F0, symBinAddr: 0x100004D10, symSize: 0x30 }
  - { offsetInCU: 0x245F9, offset: 0x245F9, size: 0x8, addend: 0x0, symName: __ZNSt3__16vectorINS_12basic_stringIcNS_11char_traitsIcEENS_9allocatorIcEEEENS4_IS6_EEE3endB7v160006Ev, symObjAddr: 0x1120, symBinAddr: 0x100004D40, symSize: 0x30 }
  - { offsetInCU: 0x24621, offset: 0x24621, size: 0x8, addend: 0x0, symName: __ZNKSt3__111__wrap_iterIPNS_12basic_stringIcNS_11char_traitsIcEENS_9allocatorIcEEEEEdeB7v160006Ev, symObjAddr: 0x11C0, symBinAddr: 0x100004DE0, symSize: 0x20 }
  - { offsetInCU: 0x24647, offset: 0x24647, size: 0x8, addend: 0x0, symName: __ZNSt3__113unordered_mapINS_12basic_stringIcNS_11char_traitsIcEENS_9allocatorIcEEEENS_13unordered_setIS6_NS_4hashIS6_EENS_8equal_toIS6_EENS4_IS6_EEEES9_SB_NS4_INS_4pairIKS6_SD_EEEEEixERSF_, symObjAddr: 0x11E0, symBinAddr: 0x100004E00, symSize: 0x70 }
  - { offsetInCU: 0x2467E, offset: 0x2467E, size: 0x8, addend: 0x0, symName: __ZNSt3__113unordered_setINS_12basic_stringIcNS_11char_traitsIcEENS_9allocatorIcEEEENS_4hashIS6_EENS_8equal_toIS6_EENS4_IS6_EEE6insertB7v160006EOS6_, symObjAddr: 0x1250, symBinAddr: 0x100004E70, symSize: 0x40 }
  - { offsetInCU: 0x246B3, offset: 0x246B3, size: 0x8, addend: 0x0, symName: __ZNSt3__111__wrap_iterIPNS_12basic_stringIcNS_11char_traitsIcEENS_9allocatorIcEEEEEppB7v160006Ev, symObjAddr: 0x1290, symBinAddr: 0x100004EB0, symSize: 0x20 }
  - { offsetInCU: 0x246D9, offset: 0x246D9, size: 0x8, addend: 0x0, symName: __ZNSt3__16vectorINS_12basic_stringIcNS_11char_traitsIcEENS_9allocatorIcEEEENS4_IS6_EEED1B7v160006Ev, symObjAddr: 0x12B0, symBinAddr: 0x100004ED0, symSize: 0x20 }
  - { offsetInCU: 0x24709, offset: 0x24709, size: 0x8, addend: 0x0, symName: __ZNSt3__119basic_istringstreamIcNS_11char_traitsIcEENS_9allocatorIcEEED1Ev, symObjAddr: 0x12D0, symBinAddr: 0x100004EF0, symSize: 0x40 }
  - { offsetInCU: 0x24736, offset: 0x24736, size: 0x8, addend: 0x0, symName: __ZNSt3__114basic_ifstreamIcNS_11char_traitsIcEEE5closeEv, symObjAddr: 0x1310, symBinAddr: 0x100004F30, symSize: 0x50 }
  - { offsetInCU: 0x24764, offset: 0x24764, size: 0x8, addend: 0x0, symName: __ZNSt3__114basic_ifstreamIcNS_11char_traitsIcEEED1Ev, symObjAddr: 0x1360, symBinAddr: 0x100004F80, symSize: 0x40 }
  - { offsetInCU: 0x24791, offset: 0x24791, size: 0x8, addend: 0x0, symName: __ZNSt3__113unordered_mapINS_12basic_stringIcNS_11char_traitsIcEENS_9allocatorIcEEEENS_13unordered_setIS6_NS_4hashIS6_EENS_8equal_toIS6_EENS4_IS6_EEEES9_SB_NS4_INS_4pairIKS6_SD_EEEEED1B7v160006Ev, symObjAddr: 0x13A0, symBinAddr: 0x100004FC0, symSize: 0x20 }
  - { offsetInCU: 0x247BA, offset: 0x247BA, size: 0x8, addend: 0x0, symName: __Z41display_inverted_index_with_string_docIDsRKNSt3__113unordered_mapINS_12basic_stringIcNS_11char_traitsIcEENS_9allocatorIcEEEENS_13unordered_setIS6_NS_4hashIS6_EENS_8equal_toIS6_EENS4_IS6_EEEES9_SB_NS4_INS_4pairIKS6_SD_EEEEEE, symObjAddr: 0x13C0, symBinAddr: 0x100004FE0, symSize: 0x130 }
  - { offsetInCU: 0x24886, offset: 0x24886, size: 0x8, addend: 0x0, symName: __ZNKSt3__113unordered_mapINS_12basic_stringIcNS_11char_traitsIcEENS_9allocatorIcEEEENS_13unordered_setIS6_NS_4hashIS6_EENS_8equal_toIS6_EENS4_IS6_EEEES9_SB_NS4_INS_4pairIKS6_SD_EEEEE5beginB7v160006Ev, symObjAddr: 0x14F0, symBinAddr: 0x100005110, symSize: 0x30 }
  - { offsetInCU: 0x248AC, offset: 0x248AC, size: 0x8, addend: 0x0, symName: __ZNKSt3__113unordered_mapINS_12basic_stringIcNS_11char_traitsIcEENS_9allocatorIcEEEENS_13unordered_setIS6_NS_4hashIS6_EENS_8equal_toIS6_EENS4_IS6_EEEES9_SB_NS4_INS_4pairIKS6_SD_EEEEE3endB7v160006Ev, symObjAddr: 0x1520, symBinAddr: 0x100005140, symSize: 0x30 }
  - { offsetInCU: 0x248D2, offset: 0x248D2, size: 0x8, addend: 0x0, symName: __ZNKSt3__125__hash_map_const_iteratorINS_21__hash_const_iteratorIPNS_11__hash_nodeINS_17__hash_value_typeINS_12basic_stringIcNS_11char_traitsIcEENS_9allocatorIcEEEENS_13unordered_setIS9_NS_4hashIS9_EENS_8equal_toIS9_EENS7_IS9_EEEEEEPvEEEEEdeB7v160006Ev, symObjAddr: 0x1580, symBinAddr: 0x1000051A0, symSize: 0x30 }
  - { offsetInCU: 0x248F8, offset: 0x248F8, size: 0x8, addend: 0x0, symName: __ZNKSt3__113unordered_setINS_12basic_stringIcNS_11char_traitsIcEENS_9allocatorIcEEEENS_4hashIS6_EENS_8equal_toIS6_EENS4_IS6_EEE5beginB7v160006Ev, symObjAddr: 0x15B0, symBinAddr: 0x1000051D0, symSize: 0x30 }
  - { offsetInCU: 0x2491E, offset: 0x2491E, size: 0x8, addend: 0x0, symName: __ZNKSt3__113unordered_setINS_12basic_stringIcNS_11char_traitsIcEENS_9allocatorIcEEEENS_4hashIS6_EENS_8equal_toIS6_EENS4_IS6_EEE3endB7v160006Ev, symObjAddr: 0x15E0, symBinAddr: 0x100005200, symSize: 0x30 }
  - { offsetInCU: 0x24944, offset: 0x24944, size: 0x8, addend: 0x0, symName: __ZNKSt3__121__hash_const_iteratorIPNS_11__hash_nodeINS_12basic_stringIcNS_11char_traitsIcEENS_9allocatorIcEEEEPvEEEdeB7v160006Ev, symObjAddr: 0x1640, symBinAddr: 0x100005260, symSize: 0x30 }
  - { offsetInCU: 0x2496A, offset: 0x2496A, size: 0x8, addend: 0x0, symName: __ZNSt3__121__hash_const_iteratorIPNS_11__hash_nodeINS_12basic_stringIcNS_11char_traitsIcEENS_9allocatorIcEEEEPvEEEppB7v160006Ev, symObjAddr: 0x1670, symBinAddr: 0x100005290, symSize: 0x20 }
  - { offsetInCU: 0x24990, offset: 0x24990, size: 0x8, addend: 0x0, symName: __ZNSt3__125__hash_map_const_iteratorINS_21__hash_const_iteratorIPNS_11__hash_nodeINS_17__hash_value_typeINS_12basic_stringIcNS_11char_traitsIcEENS_9allocatorIcEEEENS_13unordered_setIS9_NS_4hashIS9_EENS_8equal_toIS9_EENS7_IS9_EEEEEEPvEEEEEppB7v160006Ev, symObjAddr: 0x1690, symBinAddr: 0x1000052B0, symSize: 0x30 }
  - { offsetInCU: 0x249B5, offset: 0x249B5, size: 0x8, addend: 0x0, symName: __Z39display_term_document_matrix_with_termsRKNSt3__113unordered_mapINS_12basic_stringIcNS_11char_traitsIcEENS_9allocatorIcEEEENS_13unordered_setIS6_NS_4hashIS6_EENS_8equal_toIS6_EENS4_IS6_EEEES9_SB_NS4_INS_4pairIKS6_SD_EEEEEERKNS_6vectorIS6_SC_EE, symObjAddr: 0x16C0, symBinAddr: 0x1000052E0, symSize: 0x660 }
  - { offsetInCU: 0x24B5E, offset: 0x24B5E, size: 0x8, addend: 0x0, symName: __ZNSt3__113unordered_setINS_12basic_stringIcNS_11char_traitsIcEENS_9allocatorIcEEEENS_4hashIS6_EENS_8equal_toIS6_EENS4_IS6_EEEC1B7v160006Ev, symObjAddr: 0x1D20, symBinAddr: 0x100005940, symSize: 0x20 }
  - { offsetInCU: 0x24B88, offset: 0x24B88, size: 0x8, addend: 0x0, symName: __ZNSt3__113unordered_setINS_12basic_stringIcNS_11char_traitsIcEENS_9allocatorIcEEEENS_4hashIS6_EENS_8equal_toIS6_EENS4_IS6_EEE6insertB7v160006ERKS6_, symObjAddr: 0x1D40, symBinAddr: 0x100005960, symSize: 0x40 }
  - { offsetInCU: 0x24BBD, offset: 0x24BBD, size: 0x8, addend: 0x0, symName: __ZNSt3__16vectorINS_12basic_stringIcNS_11char_traitsIcEENS_9allocatorIcEEEENS4_IS6_EEEC1B7v160006Ev, symObjAddr: 0x1D80, symBinAddr: 0x1000059A0, symSize: 0x20 }
  - { offsetInCU: 0x24BE7, offset: 0x24BE7, size: 0x8, addend: 0x0, symName: __ZNSt3__16vectorINS_12basic_stringIcNS_11char_traitsIcEENS_9allocatorIcEEEENS4_IS6_EEE9push_backB7v160006ERKS6_, symObjAddr: 0x1DA0, symBinAddr: 0x1000059C0, symSize: 0x60 }
  - { offsetInCU: 0x24C1E, offset: 0x24C1E, size: 0x8, addend: 0x0, symName: __ZNSt3__16vectorINS_12basic_stringIcNS_11char_traitsIcEENS_9allocatorIcEEEENS4_IS6_EEE5eraseENS_11__wrap_iterIPKS6_EESC_, symObjAddr: 0x1E00, symBinAddr: 0x100005A20, symSize: 0xE0 }
  - { offsetInCU: 0x24C7F, offset: 0x24C7F, size: 0x8, addend: 0x0, symName: __ZNSt3__111__wrap_iterIPKNS_12basic_stringIcNS_11char_traitsIcEENS_9allocatorIcEEEEEC1B7v160006IPS6_EERKNS0_IT_EEPNS_9enable_ifIXsr14is_convertibleISC_S8_EE5valueEvE4typeE, symObjAddr: 0x1F20, symBinAddr: 0x100005B40, symSize: 0x30 }
  - { offsetInCU: 0x24CCB, offset: 0x24CCB, size: 0x8, addend: 0x0, symName: __ZNKSt3__113unordered_setINS_12basic_stringIcNS_11char_traitsIcEENS_9allocatorIcEEEENS_4hashIS6_EENS_8equal_toIS6_EENS4_IS6_EEE4sizeB7v160006Ev, symObjAddr: 0x1F50, symBinAddr: 0x100005B70, symSize: 0x20 }
  - { offsetInCU: 0x24CF1, offset: 0x24CF1, size: 0x8, addend: 0x0, symName: __ZNSt3__16vectorIiNS_9allocatorIiEEEC1EmRKi, symObjAddr: 0x1F70, symBinAddr: 0x100005B90, symSize: 0x30 }
  - { offsetInCU: 0x24D3B, offset: 0x24D3B, size: 0x8, addend: 0x0, symName: __ZNSt3__16vectorINS0_IiNS_9allocatorIiEEEENS1_IS3_EEEC1EmRKS3_, symObjAddr: 0x1FA0, symBinAddr: 0x100005BC0, symSize: 0x30 }
  - { offsetInCU: 0x24D85, offset: 0x24D85, size: 0x8, addend: 0x0, symName: __ZNSt3__16vectorIiNS_9allocatorIiEEED1B7v160006Ev, symObjAddr: 0x1FD0, symBinAddr: 0x100005BF0, symSize: 0x20 }
  - { offsetInCU: 0x24DAF, offset: 0x24DAF, size: 0x8, addend: 0x0, symName: __ZNSt3__113unordered_setINS_12basic_stringIcNS_11char_traitsIcEENS_9allocatorIcEEEENS_4hashIS6_EENS_8equal_toIS6_EENS4_IS6_EEE5beginB7v160006Ev, symObjAddr: 0x1FF0, symBinAddr: 0x100005C10, symSize: 0x30 }
  - { offsetInCU: 0x24DD5, offset: 0x24DD5, size: 0x8, addend: 0x0, symName: __ZNSt3__113unordered_setINS_12basic_stringIcNS_11char_traitsIcEENS_9allocatorIcEEEENS_4hashIS6_EENS_8equal_toIS6_EENS4_IS6_EEE3endB7v160006Ev, symObjAddr: 0x2020, symBinAddr: 0x100005C40, symSize: 0x30 }
  - { offsetInCU: 0x24DFB, offset: 0x24DFB, size: 0x8, addend: 0x0, symName: __ZNSt3__16vectorINS_12basic_stringIcNS_11char_traitsIcEENS_9allocatorIcEEEENS4_IS6_EEEC1INS_21__hash_const_iteratorIPNS_11__hash_nodeIS6_PvEEEELi0EEET_SG_, symObjAddr: 0x2050, symBinAddr: 0x100005C70, symSize: 0x30 }
  - { offsetInCU: 0x24E54, offset: 0x24E54, size: 0x8, addend: 0x0, symName: __ZNSt3__16vectorINS_12basic_stringIcNS_11char_traitsIcEENS_9allocatorIcEEEENS4_IS6_EEEixB7v160006Em, symObjAddr: 0x2080, symBinAddr: 0x100005CA0, symSize: 0x20 }
  - { offsetInCU: 0x24E8B, offset: 0x24E8B, size: 0x8, addend: 0x0, symName: __ZNKSt3__113unordered_mapINS_12basic_stringIcNS_11char_traitsIcEENS_9allocatorIcEEEENS_13unordered_setIS6_NS_4hashIS6_EENS_8equal_toIS6_EENS4_IS6_EEEES9_SB_NS4_INS_4pairIKS6_SD_EEEEE4findB7v160006ERSF_, symObjAddr: 0x20A0, symBinAddr: 0x100005CC0, symSize: 0x40 }
  - { offsetInCU: 0x24EC0, offset: 0x24EC0, size: 0x8, addend: 0x0, symName: __ZNKSt3__125__hash_map_const_iteratorINS_21__hash_const_iteratorIPNS_11__hash_nodeINS_17__hash_value_typeINS_12basic_stringIcNS_11char_traitsIcEENS_9allocatorIcEEEENS_13unordered_setIS9_NS_4hashIS9_EENS_8equal_toIS9_EENS7_IS9_EEEEEEPvEEEEEptB7v160006Ev, symObjAddr: 0x20E0, symBinAddr: 0x100005D00, symSize: 0x30 }
  - { offsetInCU: 0x24EE6, offset: 0x24EE6, size: 0x8, addend: 0x0, symName: __ZNSt3__16vectorINS0_IiNS_9allocatorIiEEEENS1_IS3_EEED1B7v160006Ev, symObjAddr: 0x2110, symBinAddr: 0x100005D30, symSize: 0x20 }
  - { offsetInCU: 0x24F10, offset: 0x24F10, size: 0x8, addend: 0x0, symName: __ZNSt3__113unordered_setINS_12basic_stringIcNS_11char_traitsIcEENS_9allocatorIcEEEENS_4hashIS6_EENS_8equal_toIS6_EENS4_IS6_EEED1B7v160006Ev, symObjAddr: 0x2130, symBinAddr: 0x100005D50, symSize: 0x20 }
  - { offsetInCU: 0x24F3A, offset: 0x24F3A, size: 0x8, addend: 0x0, symName: __ZNSt3__18__iom_t6C1B7v160006Ei, symObjAddr: 0x2150, symBinAddr: 0x100005D70, symSize: 0x30 }
  - { offsetInCU: 0x24F72, offset: 0x24F72, size: 0x8, addend: 0x0, symName: __ZNSt3__18__iom_t6C2B7v160006Ei, symObjAddr: 0x2180, symBinAddr: 0x100005DA0, symSize: 0x20 }
  - { offsetInCU: 0x24FAA, offset: 0x24FAA, size: 0x8, addend: 0x0, symName: __ZNKSt3__16vectorINS_12basic_stringIcNS_11char_traitsIcEENS_9allocatorIcEEEENS4_IS6_EEE11__make_iterB7v160006EPKS6_, symObjAddr: 0x21A0, symBinAddr: 0x100005DC0, symSize: 0x30 }
  - { offsetInCU: 0x24FDF, offset: 0x24FDF, size: 0x8, addend: 0x0, symName: __ZNSt3__111__wrap_iterIPKNS_12basic_stringIcNS_11char_traitsIcEENS_9allocatorIcEEEEEC1B7v160006EPKvS8_, symObjAddr: 0x21D0, symBinAddr: 0x100005DF0, symSize: 0x30 }
  - { offsetInCU: 0x25025, offset: 0x25025, size: 0x8, addend: 0x0, symName: __ZNSt3__111__wrap_iterIPKNS_12basic_stringIcNS_11char_traitsIcEENS_9allocatorIcEEEEEC2B7v160006EPKvS8_, symObjAddr: 0x2200, symBinAddr: 0x100005E20, symSize: 0x20 }
  - { offsetInCU: 0x2506B, offset: 0x2506B, size: 0x8, addend: 0x0, symName: __ZNKSt3__111__wrap_iterIPKNS_12basic_stringIcNS_11char_traitsIcEENS_9allocatorIcEEEEE4baseB7v160006Ev, symObjAddr: 0x2260, symBinAddr: 0x100005E80, symSize: 0x20 }
  - { offsetInCU: 0x25091, offset: 0x25091, size: 0x8, addend: 0x0, symName: __ZNSt3__18ios_base4setfB7v160006Ejj, symObjAddr: 0x2280, symBinAddr: 0x100005EA0, symSize: 0x50 }
  - { offsetInCU: 0x250E6, offset: 0x250E6, size: 0x8, addend: 0x0, symName: __ZNSt3__18ios_base6unsetfB7v160006Ej, symObjAddr: 0x22D0, symBinAddr: 0x100005EF0, symSize: 0x20 }
  - { offsetInCU: 0x2511D, offset: 0x2511D, size: 0x8, addend: 0x0, symName: __ZNKSt3__111__wrap_iterIPcEdeB7v160006Ev, symObjAddr: 0x2320, symBinAddr: 0x100005F40, symSize: 0x20 }
  - { offsetInCU: 0x25143, offset: 0x25143, size: 0x8, addend: 0x0, symName: __ZNSt3__111__wrap_iterIPcEppB7v160006Ev, symObjAddr: 0x2340, symBinAddr: 0x100005F60, symSize: 0x20 }
  - { offsetInCU: 0x25169, offset: 0x25169, size: 0x8, addend: 0x0, symName: __ZNKSt3__111__wrap_iterIPcE4baseB7v160006Ev, symObjAddr: 0x23A0, symBinAddr: 0x100005FC0, symSize: 0x20 }
  - { offsetInCU: 0x2518F, offset: 0x2518F, size: 0x8, addend: 0x0, symName: __ZNSt3__112basic_stringIcNS_11char_traitsIcEENS_9allocatorIcEEE15__make_iteratorB7v160006EPc, symObjAddr: 0x23C0, symBinAddr: 0x100005FE0, symSize: 0x30 }
  - { offsetInCU: 0x251C4, offset: 0x251C4, size: 0x8, addend: 0x0, symName: __ZNSt3__112basic_stringIcNS_11char_traitsIcEENS_9allocatorIcEEE13__get_pointerB7v160006Ev, symObjAddr: 0x23F0, symBinAddr: 0x100006010, symSize: 0x50 }
  - { offsetInCU: 0x251EA, offset: 0x251EA, size: 0x8, addend: 0x0, symName: __ZNSt3__111__wrap_iterIPcEC1B7v160006EPKvS1_, symObjAddr: 0x2450, symBinAddr: 0x100006070, symSize: 0x30 }
  - { offsetInCU: 0x25230, offset: 0x25230, size: 0x8, addend: 0x0, symName: __ZNSt3__111__wrap_iterIPcEC2B7v160006EPKvS1_, symObjAddr: 0x2480, symBinAddr: 0x1000060A0, symSize: 0x20 }
  - { offsetInCU: 0x25276, offset: 0x25276, size: 0x8, addend: 0x0, symName: __ZNKSt3__112basic_stringIcNS_11char_traitsIcEENS_9allocatorIcEEE9__is_longB7v160006Ev, symObjAddr: 0x24A0, symBinAddr: 0x1000060C0, symSize: 0x30 }
  - { offsetInCU: 0x2529C, offset: 0x2529C, size: 0x8, addend: 0x0, symName: __ZNSt3__112basic_stringIcNS_11char_traitsIcEENS_9allocatorIcEEE18__get_long_pointerB7v160006Ev, symObjAddr: 0x24D0, symBinAddr: 0x1000060F0, symSize: 0x20 }
  - { offsetInCU: 0x252C2, offset: 0x252C2, size: 0x8, addend: 0x0, symName: __ZNSt3__112basic_stringIcNS_11char_traitsIcEENS_9allocatorIcEEE19__get_short_pointerB7v160006Ev, symObjAddr: 0x24F0, symBinAddr: 0x100006110, symSize: 0x30 }
  - { offsetInCU: 0x252E8, offset: 0x252E8, size: 0x8, addend: 0x0, symName: __ZNKSt3__117__compressed_pairINS_12basic_stringIcNS_11char_traitsIcEENS_9allocatorIcEEE5__repES5_E5firstB7v160006Ev, symObjAddr: 0x2520, symBinAddr: 0x100006140, symSize: 0x20 }
  - { offsetInCU: 0x2530E, offset: 0x2530E, size: 0x8, addend: 0x0, symName: __ZNKSt3__122__compressed_pair_elemINS_12basic_stringIcNS_11char_traitsIcEENS_9allocatorIcEEE5__repELi0ELb0EE5__getB7v160006Ev, symObjAddr: 0x2540, symBinAddr: 0x100006160, symSize: 0x10 }
  - { offsetInCU: 0x25334, offset: 0x25334, size: 0x8, addend: 0x0, symName: __ZNSt3__117__compressed_pairINS_12basic_stringIcNS_11char_traitsIcEENS_9allocatorIcEEE5__repES5_E5firstB7v160006Ev, symObjAddr: 0x2550, symBinAddr: 0x100006170, symSize: 0x20 }
  - { offsetInCU: 0x2535A, offset: 0x2535A, size: 0x8, addend: 0x0, symName: __ZNSt3__122__compressed_pair_elemINS_12basic_stringIcNS_11char_traitsIcEENS_9allocatorIcEEE5__repELi0ELb0EE5__getB7v160006Ev, symObjAddr: 0x2570, symBinAddr: 0x100006190, symSize: 0x10 }
  - { offsetInCU: 0x25380, offset: 0x25380, size: 0x8, addend: 0x0, symName: __ZNSt3__114pointer_traitsIPcE10pointer_toB7v160006ERc, symObjAddr: 0x2580, symBinAddr: 0x1000061A0, symSize: 0x10 }
  - { offsetInCU: 0x253A3, offset: 0x253A3, size: 0x8, addend: 0x0, symName: __ZNKSt3__112basic_stringIcNS_11char_traitsIcEENS_9allocatorIcEEE4sizeB7v160006Ev, symObjAddr: 0x2590, symBinAddr: 0x1000061B0, symSize: 0x50 }
  - { offsetInCU: 0x253C9, offset: 0x253C9, size: 0x8, addend: 0x0, symName: __ZNKSt3__112basic_stringIcNS_11char_traitsIcEENS_9allocatorIcEEE15__get_long_sizeB7v160006Ev, symObjAddr: 0x25E0, symBinAddr: 0x100006200, symSize: 0x20 }
  - { offsetInCU: 0x253EF, offset: 0x253EF, size: 0x8, addend: 0x0, symName: __ZNKSt3__112basic_stringIcNS_11char_traitsIcEENS_9allocatorIcEEE16__get_short_sizeB7v160006Ev, symObjAddr: 0x2600, symBinAddr: 0x100006220, symSize: 0x30 }
  - { offsetInCU: 0x25415, offset: 0x25415, size: 0x8, addend: 0x0, symName: __ZNSt3__112basic_stringIcNS_11char_traitsIcEENS_9allocatorIcEEEC2B7v160006Ev, symObjAddr: 0x2630, symBinAddr: 0x100006250, symSize: 0x50 }
  - { offsetInCU: 0x25445, offset: 0x25445, size: 0x8, addend: 0x0, symName: __ZNSt3__117__compressed_pairINS_12basic_stringIcNS_11char_traitsIcEENS_9allocatorIcEEE5__repES5_EC1B7v160006INS_18__default_init_tagESA_EEOT_OT0_, symObjAddr: 0x2680, symBinAddr: 0x1000062A0, symSize: 0x30 }
  - { offsetInCU: 0x2549D, offset: 0x2549D, size: 0x8, addend: 0x0, symName: __ZNSt3__112basic_stringIcNS_11char_traitsIcEENS_9allocatorIcEEE14__default_initB7v160006Ev, symObjAddr: 0x26C0, symBinAddr: 0x1000062E0, symSize: 0x50 }
  - { offsetInCU: 0x254C3, offset: 0x254C3, size: 0x8, addend: 0x0, symName: __ZNSt3__117__compressed_pairINS_12basic_stringIcNS_11char_traitsIcEENS_9allocatorIcEEE5__repES5_EC2B7v160006INS_18__default_init_tagESA_EEOT_OT0_, symObjAddr: 0x2710, symBinAddr: 0x100006330, symSize: 0x30 }
  - { offsetInCU: 0x2551B, offset: 0x2551B, size: 0x8, addend: 0x0, symName: __ZNSt3__122__compressed_pair_elemINS_12basic_stringIcNS_11char_traitsIcEENS_9allocatorIcEEE5__repELi0ELb0EEC2B7v160006ENS_18__default_init_tagE, symObjAddr: 0x2740, symBinAddr: 0x100006360, symSize: 0x10 }
  - { offsetInCU: 0x25550, offset: 0x25550, size: 0x8, addend: 0x0, symName: __ZNSt3__122__compressed_pair_elemINS_9allocatorIcEELi1ELb1EEC2B7v160006ENS_18__default_init_tagE, symObjAddr: 0x2750, symBinAddr: 0x100006370, symSize: 0x20 }
  - { offsetInCU: 0x25585, offset: 0x25585, size: 0x8, addend: 0x0, symName: __ZNSt3__19allocatorIcEC2B7v160006Ev, symObjAddr: 0x2770, symBinAddr: 0x100006390, symSize: 0x20 }
  - { offsetInCU: 0x255AF, offset: 0x255AF, size: 0x8, addend: 0x0, symName: __ZNSt3__116__non_trivial_ifILb1ENS_9allocatorIcEEEC2B7v160006Ev, symObjAddr: 0x2790, symBinAddr: 0x1000063B0, symSize: 0x10 }
  - { offsetInCU: 0x255D9, offset: 0x255D9, size: 0x8, addend: 0x0, symName: __ZNSt3__116istream_iteratorINS_12basic_stringIcNS_11char_traitsIcEENS_9allocatorIcEEEEcS3_lEC2B7v160006Ev, symObjAddr: 0x27A0, symBinAddr: 0x1000063C0, symSize: 0x30 }
  - { offsetInCU: 0x25603, offset: 0x25603, size: 0x8, addend: 0x0, symName: __ZNSt3__16vectorINS_12basic_stringIcNS_11char_traitsIcEENS_9allocatorIcEEEENS4_IS6_EEEC2INS_16istream_iteratorIS6_cS3_lEELi0EEET_SC_, symObjAddr: 0x27D0, symBinAddr: 0x1000063F0, symSize: 0x120 }
  - { offsetInCU: 0x25679, offset: 0x25679, size: 0x8, addend: 0x0, symName: __ZNSt3__117__compressed_pairIPNS_12basic_stringIcNS_11char_traitsIcEENS_9allocatorIcEEEENS4_IS6_EEEC1B7v160006IDnNS_18__default_init_tagEEEOT_OT0_, symObjAddr: 0x28F0, symBinAddr: 0x100006510, symSize: 0x30 }
  - { offsetInCU: 0x256D1, offset: 0x256D1, size: 0x8, addend: 0x0, symName: __ZNSt3__16vectorINS_12basic_stringIcNS_11char_traitsIcEENS_9allocatorIcEEEENS4_IS6_EEE16__destroy_vectorC1ERS8_, symObjAddr: 0x2960, symBinAddr: 0x100006580, symSize: 0x30 }
  - { offsetInCU: 0x2570A, offset: 0x2570A, size: 0x8, addend: 0x0, symName: __ZNSt3__16vectorINS_12basic_stringIcNS_11char_traitsIcEENS_9allocatorIcEEEENS4_IS6_EEE12emplace_backIJRKS6_EEERS6_DpOT_, symObjAddr: 0x29D0, symBinAddr: 0x1000065F0, symSize: 0x70 }
  - { offsetInCU: 0x2574C, offset: 0x2574C, size: 0x8, addend: 0x0, symName: __ZNKSt3__116istream_iteratorINS_12basic_stringIcNS_11char_traitsIcEENS_9allocatorIcEEEEcS3_lEdeB7v160006Ev, symObjAddr: 0x2A40, symBinAddr: 0x100006660, symSize: 0x20 }
  - { offsetInCU: 0x25772, offset: 0x25772, size: 0x8, addend: 0x0, symName: __ZNSt3__116istream_iteratorINS_12basic_stringIcNS_11char_traitsIcEENS_9allocatorIcEEEEcS3_lEppB7v160006Ev, symObjAddr: 0x2A60, symBinAddr: 0x100006680, symSize: 0x60 }
  - { offsetInCU: 0x25798, offset: 0x25798, size: 0x8, addend: 0x0, symName: __ZNSt3__128__exception_guard_exceptionsINS_6vectorINS_12basic_stringIcNS_11char_traitsIcEENS_9allocatorIcEEEENS5_IS7_EEE16__destroy_vectorEE10__completeB7v160006Ev, symObjAddr: 0x2AC0, symBinAddr: 0x1000066E0, symSize: 0x20 }
  - { offsetInCU: 0x257BE, offset: 0x257BE, size: 0x8, addend: 0x0, symName: __ZNSt3__128__exception_guard_exceptionsINS_6vectorINS_12basic_stringIcNS_11char_traitsIcEENS_9allocatorIcEEEENS5_IS7_EEE16__destroy_vectorEED1B7v160006Ev, symObjAddr: 0x2AE0, symBinAddr: 0x100006700, symSize: 0x20 }
  - { offsetInCU: 0x257E8, offset: 0x257E8, size: 0x8, addend: 0x0, symName: __ZNSt3__117__compressed_pairIPNS_12basic_stringIcNS_11char_traitsIcEENS_9allocatorIcEEEENS4_IS6_EEEC2B7v160006IDnNS_18__default_init_tagEEEOT_OT0_, symObjAddr: 0x2B00, symBinAddr: 0x100006720, symSize: 0x40 }
  - { offsetInCU: 0x25840, offset: 0x25840, size: 0x8, addend: 0x0, symName: __ZNSt3__122__compressed_pair_elemIPNS_12basic_stringIcNS_11char_traitsIcEENS_9allocatorIcEEEELi0ELb0EEC2B7v160006IDnvEEOT_, symObjAddr: 0x2B40, symBinAddr: 0x100006760, symSize: 0x20 }
  - { offsetInCU: 0x25882, offset: 0x25882, size: 0x8, addend: 0x0, symName: __ZNSt3__122__compressed_pair_elemINS_9allocatorINS_12basic_stringIcNS_11char_traitsIcEENS1_IcEEEEEELi1ELb1EEC2B7v160006ENS_18__default_init_tagE, symObjAddr: 0x2B60, symBinAddr: 0x100006780, symSize: 0x20 }
  - { offsetInCU: 0x258B7, offset: 0x258B7, size: 0x8, addend: 0x0, symName: __ZNSt3__19allocatorINS_12basic_stringIcNS_11char_traitsIcEENS0_IcEEEEEC2B7v160006Ev, symObjAddr: 0x2B80, symBinAddr: 0x1000067A0, symSize: 0x20 }
  - { offsetInCU: 0x258E1, offset: 0x258E1, size: 0x8, addend: 0x0, symName: __ZNSt3__116__non_trivial_ifILb1ENS_9allocatorINS_12basic_stringIcNS_11char_traitsIcEENS1_IcEEEEEEEC2B7v160006Ev, symObjAddr: 0x2BA0, symBinAddr: 0x1000067C0, symSize: 0x10 }
  - { offsetInCU: 0x2590B, offset: 0x2590B, size: 0x8, addend: 0x0, symName: __ZNSt3__128__exception_guard_exceptionsINS_6vectorINS_12basic_stringIcNS_11char_traitsIcEENS_9allocatorIcEEEENS5_IS7_EEE16__destroy_vectorEEC1B7v160006ESA_, symObjAddr: 0x2BB0, symBinAddr: 0x1000067D0, symSize: 0x30 }
  - { offsetInCU: 0x25943, offset: 0x25943, size: 0x8, addend: 0x0, symName: __ZNSt3__128__exception_guard_exceptionsINS_6vectorINS_12basic_stringIcNS_11char_traitsIcEENS_9allocatorIcEEEENS5_IS7_EEE16__destroy_vectorEEC2B7v160006ESA_, symObjAddr: 0x2BE0, symBinAddr: 0x100006800, symSize: 0x20 }
  - { offsetInCU: 0x2597B, offset: 0x2597B, size: 0x8, addend: 0x0, symName: __ZNSt3__16vectorINS_12basic_stringIcNS_11char_traitsIcEENS_9allocatorIcEEEENS4_IS6_EEE16__destroy_vectorC2ERS8_, symObjAddr: 0x2C00, symBinAddr: 0x100006820, symSize: 0x20 }
  - { offsetInCU: 0x259B4, offset: 0x259B4, size: 0x8, addend: 0x0, symName: __ZNSt3__16vectorINS_12basic_stringIcNS_11char_traitsIcEENS_9allocatorIcEEEENS4_IS6_EEE9__end_capB7v160006Ev, symObjAddr: 0x2C20, symBinAddr: 0x100006840, symSize: 0x20 }
  - { offsetInCU: 0x259DA, offset: 0x259DA, size: 0x8, addend: 0x0, symName: __ZNSt3__16vectorINS_12basic_stringIcNS_11char_traitsIcEENS_9allocatorIcEEEENS4_IS6_EEE22__construct_one_at_endB7v160006IJRKS6_EEEvDpOT_, symObjAddr: 0x2C40, symBinAddr: 0x100006860, symSize: 0x90 }
  - { offsetInCU: 0x25A29, offset: 0x25A29, size: 0x8, addend: 0x0, symName: __ZNSt3__16vectorINS_12basic_stringIcNS_11char_traitsIcEENS_9allocatorIcEEEENS4_IS6_EEE24__emplace_back_slow_pathIJRKS6_EEEvDpOT_, symObjAddr: 0x2CD0, symBinAddr: 0x1000068F0, symSize: 0xD0 }
  - { offsetInCU: 0x25A89, offset: 0x25A89, size: 0x8, addend: 0x0, symName: __ZNSt3__16vectorINS_12basic_stringIcNS_11char_traitsIcEENS_9allocatorIcEEEENS4_IS6_EEE4backB7v160006Ev, symObjAddr: 0x2DA0, symBinAddr: 0x1000069C0, symSize: 0x20 }
  - { offsetInCU: 0x25AAF, offset: 0x25AAF, size: 0x8, addend: 0x0, symName: __ZNSt3__117__compressed_pairIPNS_12basic_stringIcNS_11char_traitsIcEENS_9allocatorIcEEEENS4_IS6_EEE5firstB7v160006Ev, symObjAddr: 0x2DC0, symBinAddr: 0x1000069E0, symSize: 0x20 }
  - { offsetInCU: 0x25AD5, offset: 0x25AD5, size: 0x8, addend: 0x0, symName: __ZNSt3__122__compressed_pair_elemIPNS_12basic_stringIcNS_11char_traitsIcEENS_9allocatorIcEEEELi0ELb0EE5__getB7v160006Ev, symObjAddr: 0x2DE0, symBinAddr: 0x100006A00, symSize: 0x10 }
  - { offsetInCU: 0x25B17, offset: 0x25B17, size: 0x8, addend: 0x0, symName: __ZNSt3__16vectorINS_12basic_stringIcNS_11char_traitsIcEENS_9allocatorIcEEEENS4_IS6_EEE21_ConstructTransactionC1B7v160006ERS8_m, symObjAddr: 0x2DF0, symBinAddr: 0x100006A10, symSize: 0x30 }
  - { offsetInCU: 0x25B5F, offset: 0x25B5F, size: 0x8, addend: 0x0, symName: __ZNSt3__116allocator_traitsINS_9allocatorINS_12basic_stringIcNS_11char_traitsIcEENS1_IcEEEEEEE9constructB7v160006IS6_JRKS6_EvvEEvRS7_PT_DpOT0_, symObjAddr: 0x2E20, symBinAddr: 0x100006A40, symSize: 0x30 }
  - { offsetInCU: 0x25BB4, offset: 0x25BB4, size: 0x8, addend: 0x0, symName: __ZNSt3__16vectorINS_12basic_stringIcNS_11char_traitsIcEENS_9allocatorIcEEEENS4_IS6_EEE7__allocB7v160006Ev, symObjAddr: 0x2E50, symBinAddr: 0x100006A70, symSize: 0x20 }
  - { offsetInCU: 0x25BDA, offset: 0x25BDA, size: 0x8, addend: 0x0, symName: __ZNSt3__16vectorINS_12basic_stringIcNS_11char_traitsIcEENS_9allocatorIcEEEENS4_IS6_EEE21_ConstructTransactionD1B7v160006Ev, symObjAddr: 0x2E80, symBinAddr: 0x100006AA0, symSize: 0x20 }
  - { offsetInCU: 0x25C04, offset: 0x25C04, size: 0x8, addend: 0x0, symName: __ZNSt3__16vectorINS_12basic_stringIcNS_11char_traitsIcEENS_9allocatorIcEEEENS4_IS6_EEE21_ConstructTransactionC2B7v160006ERS8_m, symObjAddr: 0x2EA0, symBinAddr: 0x100006AC0, symSize: 0x40 }
  - { offsetInCU: 0x25C4C, offset: 0x25C4C, size: 0x8, addend: 0x0, symName: __ZNSt3__117__compressed_pairIPNS_12basic_stringIcNS_11char_traitsIcEENS_9allocatorIcEEEENS4_IS6_EEE6secondB7v160006Ev, symObjAddr: 0x2F20, symBinAddr: 0x100006B40, symSize: 0x20 }
  - { offsetInCU: 0x25C72, offset: 0x25C72, size: 0x8, addend: 0x0, symName: __ZNSt3__122__compressed_pair_elemINS_9allocatorINS_12basic_stringIcNS_11char_traitsIcEENS1_IcEEEEEELi1ELb1EE5__getB7v160006Ev, symObjAddr: 0x2F40, symBinAddr: 0x100006B60, symSize: 0x10 }
  - { offsetInCU: 0x25C98, offset: 0x25C98, size: 0x8, addend: 0x0, symName: __ZNSt3__16vectorINS_12basic_stringIcNS_11char_traitsIcEENS_9allocatorIcEEEENS4_IS6_EEE21_ConstructTransactionD2B7v160006Ev, symObjAddr: 0x2F50, symBinAddr: 0x100006B70, symSize: 0x20 }
  - { offsetInCU: 0x25CC2, offset: 0x25CC2, size: 0x8, addend: 0x0, symName: __ZNKSt3__16vectorINS_12basic_stringIcNS_11char_traitsIcEENS_9allocatorIcEEEENS4_IS6_EEE11__recommendB7v160006Em, symObjAddr: 0x2F70, symBinAddr: 0x100006B90, symSize: 0xA0 }
  - { offsetInCU: 0x25D17, offset: 0x25D17, size: 0x8, addend: 0x0, symName: __ZNSt3__114__split_bufferINS_12basic_stringIcNS_11char_traitsIcEENS_9allocatorIcEEEERNS4_IS6_EEEC1EmmS8_, symObjAddr: 0x3010, symBinAddr: 0x100006C30, symSize: 0x40 }
  - { offsetInCU: 0x25D6D, offset: 0x25D6D, size: 0x8, addend: 0x0, symName: __ZNSt3__114__split_bufferINS_12basic_stringIcNS_11char_traitsIcEENS_9allocatorIcEEEERNS4_IS6_EEED1Ev, symObjAddr: 0x3180, symBinAddr: 0x100006DA0, symSize: 0x20 }
  - { offsetInCU: 0x25D99, offset: 0x25D99, size: 0x8, addend: 0x0, symName: __ZNKSt3__16vectorINS_12basic_stringIcNS_11char_traitsIcEENS_9allocatorIcEEEENS4_IS6_EEE8max_sizeEv, symObjAddr: 0x31A0, symBinAddr: 0x100006DC0, symSize: 0x60 }
  - { offsetInCU: 0x25DC1, offset: 0x25DC1, size: 0x8, addend: 0x0, symName: __ZNKSt3__16vectorINS_12basic_stringIcNS_11char_traitsIcEENS_9allocatorIcEEEENS4_IS6_EEE20__throw_length_errorB7v160006Ev, symObjAddr: 0x3200, symBinAddr: 0x100006E20, symSize: 0x20 }
  - { offsetInCU: 0x25DE7, offset: 0x25DE7, size: 0x8, addend: 0x0, symName: __ZNKSt3__16vectorINS_12basic_stringIcNS_11char_traitsIcEENS_9allocatorIcEEEENS4_IS6_EEE8capacityB7v160006Ev, symObjAddr: 0x3220, symBinAddr: 0x100006E40, symSize: 0x40 }
  - { offsetInCU: 0x25E18, offset: 0x25E18, size: 0x8, addend: 0x0, symName: __ZNSt3__116allocator_traitsINS_9allocatorINS_12basic_stringIcNS_11char_traitsIcEENS1_IcEEEEEEE8max_sizeB7v160006IS7_vvEEmRKS7_, symObjAddr: 0x32C0, symBinAddr: 0x100006EE0, symSize: 0x30 }
  - { offsetInCU: 0x25E44, offset: 0x25E44, size: 0x8, addend: 0x0, symName: __ZNKSt3__16vectorINS_12basic_stringIcNS_11char_traitsIcEENS_9allocatorIcEEEENS4_IS6_EEE7__allocB7v160006Ev, symObjAddr: 0x32F0, symBinAddr: 0x100006F10, symSize: 0x20 }
  - { offsetInCU: 0x25E6A, offset: 0x25E6A, size: 0x8, addend: 0x0, symName: __ZNSt3__114numeric_limitsIlE3maxB7v160006Ev, symObjAddr: 0x3310, symBinAddr: 0x100006F30, symSize: 0x10 }
  - { offsetInCU: 0x25E89, offset: 0x25E89, size: 0x8, addend: 0x0, symName: __ZNKSt3__16__lessImmEclB7v160006ERKmS3_, symObjAddr: 0x3370, symBinAddr: 0x100006F90, symSize: 0x30 }
  - { offsetInCU: 0x25ECB, offset: 0x25ECB, size: 0x8, addend: 0x0, symName: __ZNSt3__114numeric_limitsImE3maxB7v160006Ev, symObjAddr: 0x33A0, symBinAddr: 0x100006FC0, symSize: 0x10 }
  - { offsetInCU: 0x25EDF, offset: 0x25EDF, size: 0x8, addend: 0x0, symName: __ZNSt3__123__libcpp_numeric_limitsImLb1EE3maxB7v160006Ev, symObjAddr: 0x33B0, symBinAddr: 0x100006FD0, symSize: 0x10 }
  - { offsetInCU: 0x25EF3, offset: 0x25EF3, size: 0x8, addend: 0x0, symName: __ZNKSt3__117__compressed_pairIPNS_12basic_stringIcNS_11char_traitsIcEENS_9allocatorIcEEEENS4_IS6_EEE6secondB7v160006Ev, symObjAddr: 0x33C0, symBinAddr: 0x100006FE0, symSize: 0x20 }
  - { offsetInCU: 0x25F19, offset: 0x25F19, size: 0x8, addend: 0x0, symName: __ZNKSt3__122__compressed_pair_elemINS_9allocatorINS_12basic_stringIcNS_11char_traitsIcEENS1_IcEEEEEELi1ELb1EE5__getB7v160006Ev, symObjAddr: 0x33E0, symBinAddr: 0x100007000, symSize: 0x10 }
  - { offsetInCU: 0x25F3F, offset: 0x25F3F, size: 0x8, addend: 0x0, symName: __ZNSt3__123__libcpp_numeric_limitsIlLb1EE3maxB7v160006Ev, symObjAddr: 0x33F0, symBinAddr: 0x100007010, symSize: 0x10 }
  - { offsetInCU: 0x25F53, offset: 0x25F53, size: 0x8, addend: 0x0, symName: __ZNSt12length_errorC1B7v160006EPKc, symObjAddr: 0x3470, symBinAddr: 0x100007090, symSize: 0x30 }
  - { offsetInCU: 0x25F8B, offset: 0x25F8B, size: 0x8, addend: 0x0, symName: __ZNSt12length_errorC2B7v160006EPKc, symObjAddr: 0x34A0, symBinAddr: 0x1000070C0, symSize: 0x40 }
  - { offsetInCU: 0x25FC3, offset: 0x25FC3, size: 0x8, addend: 0x0, symName: __ZNKSt3__16vectorINS_12basic_stringIcNS_11char_traitsIcEENS_9allocatorIcEEEENS4_IS6_EEE9__end_capB7v160006Ev, symObjAddr: 0x34E0, symBinAddr: 0x100007100, symSize: 0x20 }
  - { offsetInCU: 0x25FE9, offset: 0x25FE9, size: 0x8, addend: 0x0, symName: __ZNKSt3__117__compressed_pairIPNS_12basic_stringIcNS_11char_traitsIcEENS_9allocatorIcEEEENS4_IS6_EEE5firstB7v160006Ev, symObjAddr: 0x3500, symBinAddr: 0x100007120, symSize: 0x20 }
  - { offsetInCU: 0x2600F, offset: 0x2600F, size: 0x8, addend: 0x0, symName: __ZNKSt3__122__compressed_pair_elemIPNS_12basic_stringIcNS_11char_traitsIcEENS_9allocatorIcEEEELi0ELb0EE5__getB7v160006Ev, symObjAddr: 0x3520, symBinAddr: 0x100007140, symSize: 0x10 }
  - { offsetInCU: 0x26035, offset: 0x26035, size: 0x8, addend: 0x0, symName: __ZNSt3__114__split_bufferINS_12basic_stringIcNS_11char_traitsIcEENS_9allocatorIcEEEERNS4_IS6_EEEC2EmmS8_, symObjAddr: 0x3580, symBinAddr: 0x1000071A0, symSize: 0xC0 }
  - { offsetInCU: 0x260A8, offset: 0x260A8, size: 0x8, addend: 0x0, symName: __ZNSt3__117__compressed_pairIPNS_12basic_stringIcNS_11char_traitsIcEENS_9allocatorIcEEEERNS4_IS6_EEEC1B7v160006IDnS9_EEOT_OT0_, symObjAddr: 0x3640, symBinAddr: 0x100007260, symSize: 0x30 }
  - { offsetInCU: 0x26100, offset: 0x26100, size: 0x8, addend: 0x0, symName: __ZNSt3__114__split_bufferINS_12basic_stringIcNS_11char_traitsIcEENS_9allocatorIcEEEERNS4_IS6_EEE7__allocB7v160006Ev, symObjAddr: 0x36B0, symBinAddr: 0x1000072D0, symSize: 0x20 }
  - { offsetInCU: 0x26126, offset: 0x26126, size: 0x8, addend: 0x0, symName: __ZNSt3__114__split_bufferINS_12basic_stringIcNS_11char_traitsIcEENS_9allocatorIcEEEERNS4_IS6_EEE9__end_capB7v160006Ev, symObjAddr: 0x36D0, symBinAddr: 0x1000072F0, symSize: 0x20 }
  - { offsetInCU: 0x2614C, offset: 0x2614C, size: 0x8, addend: 0x0, symName: __ZNSt3__117__compressed_pairIPNS_12basic_stringIcNS_11char_traitsIcEENS_9allocatorIcEEEERNS4_IS6_EEEC2B7v160006IDnS9_EEOT_OT0_, symObjAddr: 0x36F0, symBinAddr: 0x100007310, symSize: 0x40 }
  - { offsetInCU: 0x261A4, offset: 0x261A4, size: 0x8, addend: 0x0, symName: __ZNSt3__122__compressed_pair_elemIRNS_9allocatorINS_12basic_stringIcNS_11char_traitsIcEENS1_IcEEEEEELi1ELb0EEC2B7v160006IS8_vEEOT_, symObjAddr: 0x3730, symBinAddr: 0x100007350, symSize: 0x20 }
  - { offsetInCU: 0x261E6, offset: 0x261E6, size: 0x8, addend: 0x0, symName: __ZNSt3__19allocatorINS_12basic_stringIcNS_11char_traitsIcEENS0_IcEEEEE8allocateB7v160006Em, symObjAddr: 0x3750, symBinAddr: 0x100007370, symSize: 0x50 }
  - { offsetInCU: 0x2621A, offset: 0x2621A, size: 0x8, addend: 0x0, symName: __ZNSt3__117__compressed_pairIPNS_12basic_stringIcNS_11char_traitsIcEENS_9allocatorIcEEEERNS4_IS6_EEE6secondB7v160006Ev, symObjAddr: 0x38B0, symBinAddr: 0x1000074D0, symSize: 0x20 }
  - { offsetInCU: 0x26240, offset: 0x26240, size: 0x8, addend: 0x0, symName: __ZNSt3__122__compressed_pair_elemIRNS_9allocatorINS_12basic_stringIcNS_11char_traitsIcEENS1_IcEEEEEELi1ELb0EE5__getB7v160006Ev, symObjAddr: 0x38D0, symBinAddr: 0x1000074F0, symSize: 0x20 }
  - { offsetInCU: 0x26266, offset: 0x26266, size: 0x8, addend: 0x0, symName: __ZNSt3__117__compressed_pairIPNS_12basic_stringIcNS_11char_traitsIcEENS_9allocatorIcEEEERNS4_IS6_EEE5firstB7v160006Ev, symObjAddr: 0x38F0, symBinAddr: 0x100007510, symSize: 0x20 }
  - { offsetInCU: 0x2628C, offset: 0x2628C, size: 0x8, addend: 0x0, symName: __ZNKSt3__16vectorINS_12basic_stringIcNS_11char_traitsIcEENS_9allocatorIcEEEENS4_IS6_EEE17__annotate_deleteB7v160006Ev, symObjAddr: 0x3910, symBinAddr: 0x100007530, symSize: 0xB0 }
  - { offsetInCU: 0x262B2, offset: 0x262B2, size: 0x8, addend: 0x0, symName: __ZNSt3__116reverse_iteratorIPNS_12basic_stringIcNS_11char_traitsIcEENS_9allocatorIcEEEEEC1B7v160006ES7_, symObjAddr: 0x3B40, symBinAddr: 0x100007760, symSize: 0x30 }
  - { offsetInCU: 0x262EA, offset: 0x262EA, size: 0x8, addend: 0x0, symName: __ZNKSt3__116reverse_iteratorIPNS_12basic_stringIcNS_11char_traitsIcEENS_9allocatorIcEEEEE4baseB7v160006Ev, symObjAddr: 0x3B70, symBinAddr: 0x100007790, symSize: 0x20 }
  - { offsetInCU: 0x26310, offset: 0x26310, size: 0x8, addend: 0x0, symName: __ZNKSt3__16vectorINS_12basic_stringIcNS_11char_traitsIcEENS_9allocatorIcEEEENS4_IS6_EEE14__annotate_newB7v160006Em, symObjAddr: 0x3BD0, symBinAddr: 0x1000077F0, symSize: 0xA0 }
  - { offsetInCU: 0x26345, offset: 0x26345, size: 0x8, addend: 0x0, symName: __ZNKSt3__16vectorINS_12basic_stringIcNS_11char_traitsIcEENS_9allocatorIcEEEENS4_IS6_EEE31__annotate_contiguous_containerB7v160006EPKvSA_SA_SA_, symObjAddr: 0x3C80, symBinAddr: 0x1000078A0, symSize: 0x20 }
  - { offsetInCU: 0x2639B, offset: 0x2639B, size: 0x8, addend: 0x0, symName: __ZNKSt3__16vectorINS_12basic_stringIcNS_11char_traitsIcEENS_9allocatorIcEEEENS4_IS6_EEE4dataB7v160006Ev, symObjAddr: 0x3CA0, symBinAddr: 0x1000078C0, symSize: 0x20 }
  - { offsetInCU: 0x263C1, offset: 0x263C1, size: 0x8, addend: 0x0, symName: __ZNSt3__129_AllocatorDestroyRangeReverseINS_9allocatorINS_12basic_stringIcNS_11char_traitsIcEENS1_IcEEEEEENS_16reverse_iteratorIPS6_EEEC1B7v160006ERS7_RSA_SD_, symObjAddr: 0x3D20, symBinAddr: 0x100007940, symSize: 0x40 }
  - { offsetInCU: 0x2641E, offset: 0x2641E, size: 0x8, addend: 0x0, symName: __ZNSt3__116allocator_traitsINS_9allocatorINS_12basic_stringIcNS_11char_traitsIcEENS1_IcEEEEEEE9constructB7v160006IS6_JS6_EvvEEvRS7_PT_DpOT0_, symObjAddr: 0x3DA0, symBinAddr: 0x1000079C0, symSize: 0x30 }
  - { offsetInCU: 0x26473, offset: 0x26473, size: 0x8, addend: 0x0, symName: __ZNKSt3__116reverse_iteratorIPNS_12basic_stringIcNS_11char_traitsIcEENS_9allocatorIcEEEEEdeB7v160006Ev, symObjAddr: 0x3DF0, symBinAddr: 0x100007A10, symSize: 0x30 }
  - { offsetInCU: 0x264A7, offset: 0x264A7, size: 0x8, addend: 0x0, symName: __ZNSt3__116reverse_iteratorIPNS_12basic_stringIcNS_11char_traitsIcEENS_9allocatorIcEEEEEppB7v160006Ev, symObjAddr: 0x3E20, symBinAddr: 0x100007A40, symSize: 0x20 }
  - { offsetInCU: 0x264CD, offset: 0x264CD, size: 0x8, addend: 0x0, symName: __ZNSt3__128__exception_guard_exceptionsINS_29_AllocatorDestroyRangeReverseINS_9allocatorINS_12basic_stringIcNS_11char_traitsIcEENS2_IcEEEEEENS_16reverse_iteratorIPS7_EEEEE10__completeB7v160006Ev, symObjAddr: 0x3E40, symBinAddr: 0x100007A60, symSize: 0x20 }
  - { offsetInCU: 0x264F3, offset: 0x264F3, size: 0x8, addend: 0x0, symName: __ZNSt3__128__exception_guard_exceptionsINS_29_AllocatorDestroyRangeReverseINS_9allocatorINS_12basic_stringIcNS_11char_traitsIcEENS2_IcEEEEEENS_16reverse_iteratorIPS7_EEEEED1B7v160006Ev, symObjAddr: 0x3E60, symBinAddr: 0x100007A80, symSize: 0x20 }
  - { offsetInCU: 0x2651D, offset: 0x2651D, size: 0x8, addend: 0x0, symName: __ZNSt3__128__exception_guard_exceptionsINS_29_AllocatorDestroyRangeReverseINS_9allocatorINS_12basic_stringIcNS_11char_traitsIcEENS2_IcEEEEEENS_16reverse_iteratorIPS7_EEEEEC1B7v160006ESC_, symObjAddr: 0x3E80, symBinAddr: 0x100007AA0, symSize: 0x40 }
  - { offsetInCU: 0x26555, offset: 0x26555, size: 0x8, addend: 0x0, symName: __ZNSt3__128__exception_guard_exceptionsINS_29_AllocatorDestroyRangeReverseINS_9allocatorINS_12basic_stringIcNS_11char_traitsIcEENS2_IcEEEEEENS_16reverse_iteratorIPS7_EEEEEC2B7v160006ESC_, symObjAddr: 0x3EC0, symBinAddr: 0x100007AE0, symSize: 0x30 }
  - { offsetInCU: 0x2658D, offset: 0x2658D, size: 0x8, addend: 0x0, symName: __ZNSt3__129_AllocatorDestroyRangeReverseINS_9allocatorINS_12basic_stringIcNS_11char_traitsIcEENS1_IcEEEEEENS_16reverse_iteratorIPS6_EEEC2B7v160006ERS7_RSA_SD_, symObjAddr: 0x3EF0, symBinAddr: 0x100007B10, symSize: 0x40 }
  - { offsetInCU: 0x265E4, offset: 0x265E4, size: 0x8, addend: 0x0, symName: __ZNSt3__112basic_stringIcNS_11char_traitsIcEENS_9allocatorIcEEEC1B7v160006EOS5_, symObjAddr: 0x3F70, symBinAddr: 0x100007B90, symSize: 0x30 }
  - { offsetInCU: 0x2661D, offset: 0x2661D, size: 0x8, addend: 0x0, symName: __ZNSt3__112basic_stringIcNS_11char_traitsIcEENS_9allocatorIcEEEC2B7v160006EOS5_, symObjAddr: 0x3FA0, symBinAddr: 0x100007BC0, symSize: 0x80 }
  - { offsetInCU: 0x2665C, offset: 0x2665C, size: 0x8, addend: 0x0, symName: __ZNSt3__119__to_address_helperINS_16reverse_iteratorIPNS_12basic_stringIcNS_11char_traitsIcEENS_9allocatorIcEEEEEEvE6__callB7v160006ERKS9_, symObjAddr: 0x4030, symBinAddr: 0x100007C50, symSize: 0x40 }
  - { offsetInCU: 0x2667F, offset: 0x2667F, size: 0x8, addend: 0x0, symName: __ZNKSt3__116reverse_iteratorIPNS_12basic_stringIcNS_11char_traitsIcEENS_9allocatorIcEEEEEptB7v160006Ev, symObjAddr: 0x4070, symBinAddr: 0x100007C90, symSize: 0x30 }
  - { offsetInCU: 0x266A5, offset: 0x266A5, size: 0x8, addend: 0x0, symName: __ZNSt3__128__exception_guard_exceptionsINS_29_AllocatorDestroyRangeReverseINS_9allocatorINS_12basic_stringIcNS_11char_traitsIcEENS2_IcEEEEEENS_16reverse_iteratorIPS7_EEEEED2B7v160006Ev, symObjAddr: 0x4170, symBinAddr: 0x100007D90, symSize: 0x40 }
  - { offsetInCU: 0x266CF, offset: 0x266CF, size: 0x8, addend: 0x0, symName: __ZNKSt3__129_AllocatorDestroyRangeReverseINS_9allocatorINS_12basic_stringIcNS_11char_traitsIcEENS1_IcEEEEEENS_16reverse_iteratorIPS6_EEEclB7v160006Ev, symObjAddr: 0x41B0, symBinAddr: 0x100007DD0, symSize: 0xF0 }
  - { offsetInCU: 0x266F6, offset: 0x266F6, size: 0x8, addend: 0x0, symName: __ZNSt3__116reverse_iteratorINS0_IPNS_12basic_stringIcNS_11char_traitsIcEENS_9allocatorIcEEEEEEEC1B7v160006ES8_, symObjAddr: 0x4310, symBinAddr: 0x100007F30, symSize: 0x30 }
  - { offsetInCU: 0x2672E, offset: 0x2672E, size: 0x8, addend: 0x0, symName: __ZNSt3__116allocator_traitsINS_9allocatorINS_12basic_stringIcNS_11char_traitsIcEENS1_IcEEEEEEE7destroyB7v160006IS6_vvEEvRS7_PT_, symObjAddr: 0x4390, symBinAddr: 0x100007FB0, symSize: 0x20 }
  - { offsetInCU: 0x26769, offset: 0x26769, size: 0x8, addend: 0x0, symName: __ZNSt3__116reverse_iteratorINS0_IPNS_12basic_stringIcNS_11char_traitsIcEENS_9allocatorIcEEEEEEEppB7v160006Ev, symObjAddr: 0x43D0, symBinAddr: 0x100007FF0, symSize: 0x30 }
  - { offsetInCU: 0x2678F, offset: 0x2678F, size: 0x8, addend: 0x0, symName: __ZNKSt3__116reverse_iteratorINS0_IPNS_12basic_stringIcNS_11char_traitsIcEENS_9allocatorIcEEEEEEE4baseB7v160006Ev, symObjAddr: 0x4400, symBinAddr: 0x100008020, symSize: 0x20 }
  - { offsetInCU: 0x267BB, offset: 0x267BB, size: 0x8, addend: 0x0, symName: __ZNSt3__119__to_address_helperINS_16reverse_iteratorINS1_IPNS_12basic_stringIcNS_11char_traitsIcEENS_9allocatorIcEEEEEEEEvE6__callB7v160006ERKSA_, symObjAddr: 0x4460, symBinAddr: 0x100008080, symSize: 0x40 }
  - { offsetInCU: 0x267DE, offset: 0x267DE, size: 0x8, addend: 0x0, symName: __ZNKSt3__116reverse_iteratorINS0_IPNS_12basic_stringIcNS_11char_traitsIcEENS_9allocatorIcEEEEEEEptB7v160006Ev, symObjAddr: 0x44A0, symBinAddr: 0x1000080C0, symSize: 0x50 }
  - { offsetInCU: 0x26804, offset: 0x26804, size: 0x8, addend: 0x0, symName: __ZNSt3__116reverse_iteratorIPNS_12basic_stringIcNS_11char_traitsIcEENS_9allocatorIcEEEEEpLB7v160006El, symObjAddr: 0x45D0, symBinAddr: 0x1000081F0, symSize: 0x30 }
  - { offsetInCU: 0x26838, offset: 0x26838, size: 0x8, addend: 0x0, symName: __ZNSt3__116reverse_iteratorIPNS_12basic_stringIcNS_11char_traitsIcEENS_9allocatorIcEEEEEmmB7v160006Ev, symObjAddr: 0x4600, symBinAddr: 0x100008220, symSize: 0x20 }
  - { offsetInCU: 0x2685E, offset: 0x2685E, size: 0x8, addend: 0x0, symName: __ZNSt3__116reverse_iteratorINS0_IPNS_12basic_stringIcNS_11char_traitsIcEENS_9allocatorIcEEEEEEEC2B7v160006ES8_, symObjAddr: 0x4620, symBinAddr: 0x100008240, symSize: 0x40 }
  - { offsetInCU: 0x26896, offset: 0x26896, size: 0x8, addend: 0x0, symName: __ZNSt3__116reverse_iteratorIPNS_12basic_stringIcNS_11char_traitsIcEENS_9allocatorIcEEEEEC2B7v160006ES7_, symObjAddr: 0x4660, symBinAddr: 0x100008280, symSize: 0x30 }
  - { offsetInCU: 0x268CE, offset: 0x268CE, size: 0x8, addend: 0x0, symName: __ZNSt3__114__split_bufferINS_12basic_stringIcNS_11char_traitsIcEENS_9allocatorIcEEEERNS4_IS6_EEED2Ev, symObjAddr: 0x4690, symBinAddr: 0x1000082B0, symSize: 0x70 }
  - { offsetInCU: 0x268FA, offset: 0x268FA, size: 0x8, addend: 0x0, symName: __ZNSt3__114__split_bufferINS_12basic_stringIcNS_11char_traitsIcEENS_9allocatorIcEEEERNS4_IS6_EEE5clearB7v160006Ev, symObjAddr: 0x4700, symBinAddr: 0x100008320, symSize: 0x20 }
  - { offsetInCU: 0x26920, offset: 0x26920, size: 0x8, addend: 0x0, symName: __ZNSt3__116allocator_traitsINS_9allocatorINS_12basic_stringIcNS_11char_traitsIcEENS1_IcEEEEEEE10deallocateB7v160006ERS7_PS6_m, symObjAddr: 0x4720, symBinAddr: 0x100008340, symSize: 0x30 }
  - { offsetInCU: 0x26962, offset: 0x26962, size: 0x8, addend: 0x0, symName: __ZNKSt3__114__split_bufferINS_12basic_stringIcNS_11char_traitsIcEENS_9allocatorIcEEEERNS4_IS6_EEE8capacityB7v160006Ev, symObjAddr: 0x4750, symBinAddr: 0x100008370, symSize: 0x40 }
  - { offsetInCU: 0x26988, offset: 0x26988, size: 0x8, addend: 0x0, symName: __ZNSt3__114__split_bufferINS_12basic_stringIcNS_11char_traitsIcEENS_9allocatorIcEEEERNS4_IS6_EEE17__destruct_at_endB7v160006EPS6_, symObjAddr: 0x4790, symBinAddr: 0x1000083B0, symSize: 0x30 }
  - { offsetInCU: 0x269BC, offset: 0x269BC, size: 0x8, addend: 0x0, symName: __ZNSt3__114__split_bufferINS_12basic_stringIcNS_11char_traitsIcEENS_9allocatorIcEEEERNS4_IS6_EEE17__destruct_at_endB7v160006EPS6_NS_17integral_constantIbLb0EEE, symObjAddr: 0x47C0, symBinAddr: 0x1000083E0, symSize: 0x80 }
  - { offsetInCU: 0x269FD, offset: 0x269FD, size: 0x8, addend: 0x0, symName: __ZNSt3__19allocatorINS_12basic_stringIcNS_11char_traitsIcEENS0_IcEEEEE10deallocateB7v160006EPS5_m, symObjAddr: 0x4840, symBinAddr: 0x100008460, symSize: 0x50 }
  - { offsetInCU: 0x26A3F, offset: 0x26A3F, size: 0x8, addend: 0x0, symName: __ZNKSt3__114__split_bufferINS_12basic_stringIcNS_11char_traitsIcEENS_9allocatorIcEEEERNS4_IS6_EEE9__end_capB7v160006Ev, symObjAddr: 0x4990, symBinAddr: 0x1000085B0, symSize: 0x20 }
  - { offsetInCU: 0x26A65, offset: 0x26A65, size: 0x8, addend: 0x0, symName: __ZNKSt3__117__compressed_pairIPNS_12basic_stringIcNS_11char_traitsIcEENS_9allocatorIcEEEERNS4_IS6_EEE5firstB7v160006Ev, symObjAddr: 0x49B0, symBinAddr: 0x1000085D0, symSize: 0x20 }
  - { offsetInCU: 0x26A8B, offset: 0x26A8B, size: 0x8, addend: 0x0, symName: __ZNKSt3__19basic_iosIcNS_11char_traitsIcEEEntB7v160006Ev, symObjAddr: 0x4CC0, symBinAddr: 0x1000088E0, symSize: 0x20 }
  - { offsetInCU: 0x26AD4, offset: 0x26AD4, size: 0x8, addend: 0x0, symName: __ZNKSt3__113basic_istreamIcNS_11char_traitsIcEEE6sentrycvbB7v160006Ev, symObjAddr: 0x4CE0, symBinAddr: 0x100008900, symSize: 0x20 }
  - { offsetInCU: 0x26AFA, offset: 0x26AFA, size: 0x8, addend: 0x0, symName: __ZNSt3__112basic_stringIcNS_11char_traitsIcEENS_9allocatorIcEEE5clearB7v160006Ev, symObjAddr: 0x4D00, symBinAddr: 0x100008920, symSize: 0xA0 }
  - { offsetInCU: 0x26B22, offset: 0x26B22, size: 0x8, addend: 0x0, symName: __ZNKSt3__18ios_base5widthB7v160006Ev, symObjAddr: 0x4DA0, symBinAddr: 0x1000089C0, symSize: 0x20 }
  - { offsetInCU: 0x26B4A, offset: 0x26B4A, size: 0x8, addend: 0x0, symName: __ZNKSt3__112basic_stringIcNS_11char_traitsIcEENS_9allocatorIcEEE8max_sizeB7v160006Ev, symObjAddr: 0x4DC0, symBinAddr: 0x1000089E0, symSize: 0xA0 }
  - { offsetInCU: 0x26B9C, offset: 0x26B9C, size: 0x8, addend: 0x0, symName: __ZNKSt3__19basic_iosIcNS_11char_traitsIcEEE5rdbufB7v160006Ev, symObjAddr: 0x4E90, symBinAddr: 0x100008AB0, symSize: 0x20 }
  - { offsetInCU: 0x26BC4, offset: 0x26BC4, size: 0x8, addend: 0x0, symName: __ZNSt3__115basic_streambufIcNS_11char_traitsIcEEE5sgetcB7v160006Ev, symObjAddr: 0x4EB0, symBinAddr: 0x100008AD0, symSize: 0x50 }
  - { offsetInCU: 0x26BEA, offset: 0x26BEA, size: 0x8, addend: 0x0, symName: __ZNSt3__111char_traitsIcE11eq_int_typeEii, symObjAddr: 0x4F00, symBinAddr: 0x100008B20, symSize: 0x20 }
  - { offsetInCU: 0x26C1B, offset: 0x26C1B, size: 0x8, addend: 0x0, symName: __ZNSt3__111char_traitsIcE3eofEv, symObjAddr: 0x4F20, symBinAddr: 0x100008B40, symSize: 0x10 }
  - { offsetInCU: 0x26C2F, offset: 0x26C2F, size: 0x8, addend: 0x0, symName: __ZNSt3__111char_traitsIcE12to_char_typeEi, symObjAddr: 0x4F30, symBinAddr: 0x100008B50, symSize: 0x10 }
  - { offsetInCU: 0x26C85, offset: 0x26C85, size: 0x8, addend: 0x0, symName: __ZNKSt3__15ctypeIcE2isB7v160006Ejc, symObjAddr: 0x4F40, symBinAddr: 0x100008B60, symSize: 0x70 }
  - { offsetInCU: 0x26CC9, offset: 0x26CC9, size: 0x8, addend: 0x0, symName: __ZNSt3__115basic_streambufIcNS_11char_traitsIcEEE6sbumpcB7v160006Ev, symObjAddr: 0x4FB0, symBinAddr: 0x100008BD0, symSize: 0x60 }
  - { offsetInCU: 0x26CEF, offset: 0x26CEF, size: 0x8, addend: 0x0, symName: __ZNSt3__18ios_base5widthB7v160006El, symObjAddr: 0x5010, symBinAddr: 0x100008C30, symSize: 0x30 }
  - { offsetInCU: 0x26D35, offset: 0x26D35, size: 0x8, addend: 0x0, symName: __ZNSt3__18ios_base18__setstate_nothrowB7v160006Ej, symObjAddr: 0x5040, symBinAddr: 0x100008C60, symSize: 0x50 }
  - { offsetInCU: 0x26D6A, offset: 0x26D6A, size: 0x8, addend: 0x0, symName: __ZNKSt3__19basic_iosIcNS_11char_traitsIcEEE10exceptionsB7v160006Ev, symObjAddr: 0x5090, symBinAddr: 0x100008CB0, symSize: 0x20 }
  - { offsetInCU: 0x26D90, offset: 0x26D90, size: 0x8, addend: 0x0, symName: __ZNSt3__19basic_iosIcNS_11char_traitsIcEEE8setstateB7v160006Ej, symObjAddr: 0x50B0, symBinAddr: 0x100008CD0, symSize: 0x30 }
  - { offsetInCU: 0x26DC5, offset: 0x26DC5, size: 0x8, addend: 0x0, symName: __ZNSt3__111char_traitsIcE6assignERcRKc, symObjAddr: 0x50F0, symBinAddr: 0x100008D10, symSize: 0x20 }
  - { offsetInCU: 0x26DF6, offset: 0x26DF6, size: 0x8, addend: 0x0, symName: __ZNSt3__112basic_stringIcNS_11char_traitsIcEENS_9allocatorIcEEE15__set_long_sizeB7v160006Em, symObjAddr: 0x5110, symBinAddr: 0x100008D30, symSize: 0x30 }
  - { offsetInCU: 0x26E2B, offset: 0x26E2B, size: 0x8, addend: 0x0, symName: __ZNSt3__112basic_stringIcNS_11char_traitsIcEENS_9allocatorIcEEE16__set_short_sizeB7v160006Em, symObjAddr: 0x5140, symBinAddr: 0x100008D60, symSize: 0x50 }
  - { offsetInCU: 0x26E6B, offset: 0x26E6B, size: 0x8, addend: 0x0, symName: __ZNSt3__116allocator_traitsINS_9allocatorIcEEE8max_sizeB7v160006IS2_vvEEmRKS2_, symObjAddr: 0x5190, symBinAddr: 0x100008DB0, symSize: 0x20 }
  - { offsetInCU: 0x26E97, offset: 0x26E97, size: 0x8, addend: 0x0, symName: __ZNKSt3__112basic_stringIcNS_11char_traitsIcEENS_9allocatorIcEEE7__allocB7v160006Ev, symObjAddr: 0x51B0, symBinAddr: 0x100008DD0, symSize: 0x20 }
  - { offsetInCU: 0x26EBD, offset: 0x26EBD, size: 0x8, addend: 0x0, symName: __ZNKSt3__117__compressed_pairINS_12basic_stringIcNS_11char_traitsIcEENS_9allocatorIcEEE5__repES5_E6secondB7v160006Ev, symObjAddr: 0x51D0, symBinAddr: 0x100008DF0, symSize: 0x20 }
  - { offsetInCU: 0x26EE3, offset: 0x26EE3, size: 0x8, addend: 0x0, symName: __ZNKSt3__122__compressed_pair_elemINS_9allocatorIcEELi1ELb1EE5__getB7v160006Ev, symObjAddr: 0x51F0, symBinAddr: 0x100008E10, symSize: 0x10 }
  - { offsetInCU: 0x26F09, offset: 0x26F09, size: 0x8, addend: 0x0, symName: __ZNKSt3__18ios_base5rdbufB7v160006Ev, symObjAddr: 0x5200, symBinAddr: 0x100008E20, symSize: 0x20 }
  - { offsetInCU: 0x26F2F, offset: 0x26F2F, size: 0x8, addend: 0x0, symName: __ZNSt3__111char_traitsIcE11to_int_typeEc, symObjAddr: 0x5220, symBinAddr: 0x100008E40, symSize: 0x10 }
  - { offsetInCU: 0x26F51, offset: 0x26F51, size: 0x8, addend: 0x0, symName: __Z7isasciii, symObjAddr: 0x5230, symBinAddr: 0x100008E50, symSize: 0x20 }
  - { offsetInCU: 0x26F7E, offset: 0x26F7E, size: 0x8, addend: 0x0, symName: __ZNKSt3__18ios_base10exceptionsB7v160006Ev, symObjAddr: 0x5250, symBinAddr: 0x100008E70, symSize: 0x20 }
  - { offsetInCU: 0x26FA6, offset: 0x26FA6, size: 0x8, addend: 0x0, symName: __ZNSt3__18ios_base8setstateB7v160006Ej, symObjAddr: 0x5270, symBinAddr: 0x100008E90, symSize: 0x30 }
  - { offsetInCU: 0x26FDD, offset: 0x26FDD, size: 0x8, addend: 0x0, symName: __ZNKSt3__19basic_iosIcNS_11char_traitsIcEEE4failB7v160006Ev, symObjAddr: 0x52A0, symBinAddr: 0x100008EC0, symSize: 0x20 }
  - { offsetInCU: 0x27003, offset: 0x27003, size: 0x8, addend: 0x0, symName: __ZNKSt3__18ios_base4failB7v160006Ev, symObjAddr: 0x52C0, symBinAddr: 0x100008EE0, symSize: 0x20 }
  - { offsetInCU: 0x2702B, offset: 0x2702B, size: 0x8, addend: 0x0, symName: __ZNSt3__128__exception_guard_exceptionsINS_6vectorINS_12basic_stringIcNS_11char_traitsIcEENS_9allocatorIcEEEENS5_IS7_EEE16__destroy_vectorEED2B7v160006Ev, symObjAddr: 0x52E0, symBinAddr: 0x100008F00, symSize: 0x40 }
  - { offsetInCU: 0x27055, offset: 0x27055, size: 0x8, addend: 0x0, symName: __ZNSt3__16vectorINS_12basic_stringIcNS_11char_traitsIcEENS_9allocatorIcEEEENS4_IS6_EEE16__destroy_vectorclB7v160006Ev, symObjAddr: 0x5320, symBinAddr: 0x100008F40, symSize: 0x90 }
  - { offsetInCU: 0x2707B, offset: 0x2707B, size: 0x8, addend: 0x0, symName: __ZNSt3__16vectorINS_12basic_stringIcNS_11char_traitsIcEENS_9allocatorIcEEEENS4_IS6_EEE7__clearB7v160006Ev, symObjAddr: 0x53C0, symBinAddr: 0x100008FE0, symSize: 0x20 }
  - { offsetInCU: 0x270A1, offset: 0x270A1, size: 0x8, addend: 0x0, symName: __ZNSt3__16vectorINS_12basic_stringIcNS_11char_traitsIcEENS_9allocatorIcEEEENS4_IS6_EEE22__base_destruct_at_endB7v160006EPS6_, symObjAddr: 0x53E0, symBinAddr: 0x100009000, symSize: 0x80 }
  - { offsetInCU: 0x270E5, offset: 0x270E5, size: 0x8, addend: 0x0, symName: __ZNSt3__116istream_iteratorINS_12basic_stringIcNS_11char_traitsIcEENS_9allocatorIcEEEEcS3_lED2Ev, symObjAddr: 0x5460, symBinAddr: 0x100009080, symSize: 0x20 }
  - { offsetInCU: 0x27111, offset: 0x27111, size: 0x8, addend: 0x0, symName: __ZNSt3__16vectorINS_12basic_stringIcNS_11char_traitsIcEENS_9allocatorIcEEEENS4_IS6_EEE11__make_iterB7v160006EPS6_, symObjAddr: 0x5480, symBinAddr: 0x1000090A0, symSize: 0x30 }
  - { offsetInCU: 0x27146, offset: 0x27146, size: 0x8, addend: 0x0, symName: __ZNSt3__111__wrap_iterIPNS_12basic_stringIcNS_11char_traitsIcEENS_9allocatorIcEEEEEC1B7v160006EPKvS7_, symObjAddr: 0x54B0, symBinAddr: 0x1000090D0, symSize: 0x30 }
  - { offsetInCU: 0x2718C, offset: 0x2718C, size: 0x8, addend: 0x0, symName: __ZNSt3__111__wrap_iterIPNS_12basic_stringIcNS_11char_traitsIcEENS_9allocatorIcEEEEEC2B7v160006EPKvS7_, symObjAddr: 0x54E0, symBinAddr: 0x100009100, symSize: 0x20 }
  - { offsetInCU: 0x271E3, offset: 0x271E3, size: 0x8, addend: 0x0, symName: __ZNSt3__116_UnwrapAlgPolicyIRNS_6__lessINS_12basic_stringIcNS_11char_traitsIcEENS_9allocatorIcEEEES7_EEE10__get_compB7v160006ES9_, symObjAddr: 0x56C0, symBinAddr: 0x1000092E0, symSize: 0x10 }
  - { offsetInCU: 0x27206, offset: 0x27206, size: 0x8, addend: 0x0, symName: __ZNKSt3__16__lessINS_12basic_stringIcNS_11char_traitsIcEENS_9allocatorIcEEEES6_EclB7v160006ERKS6_S9_, symObjAddr: 0x5DA0, symBinAddr: 0x1000099C0, symSize: 0x50 }
  - { offsetInCU: 0x27248, offset: 0x27248, size: 0x8, addend: 0x0, symName: __ZNSt3__18_IterOpsINS_17_ClassicAlgPolicyEE9iter_swapB7v160006IRPNS_12basic_stringIcNS_11char_traitsIcEENS_9allocatorIcEEEESB_EEvOT_OT0_, symObjAddr: 0x5DF0, symBinAddr: 0x100009A10, symSize: 0x30 }
  - { offsetInCU: 0x2729B, offset: 0x2729B, size: 0x8, addend: 0x0, symName: __ZNSt3__120_CmpUnspecifiedParamC1B7v160006EMS0_i, symObjAddr: 0x6600, symBinAddr: 0x10000A220, symSize: 0x30 }
  - { offsetInCU: 0x272D0, offset: 0x272D0, size: 0x8, addend: 0x0, symName: __ZNKSt3__112basic_stringIcNS_11char_traitsIcEENS_9allocatorIcEEEcvNS_17basic_string_viewIcS2_EEB7v160006Ev, symObjAddr: 0x66C0, symBinAddr: 0x10000A2E0, symSize: 0x50 }
  - { offsetInCU: 0x272F6, offset: 0x272F6, size: 0x8, addend: 0x0, symName: __ZNKSt3__117basic_string_viewIcNS_11char_traitsIcEEE7compareES3_, symObjAddr: 0x6710, symBinAddr: 0x10000A330, symSize: 0x100 }
  - { offsetInCU: 0x27349, offset: 0x27349, size: 0x8, addend: 0x0, symName: __ZNKSt3__117basic_string_viewIcNS_11char_traitsIcEEE4sizeB7v160006Ev, symObjAddr: 0x6810, symBinAddr: 0x10000A430, symSize: 0x20 }
  - { offsetInCU: 0x2736F, offset: 0x2736F, size: 0x8, addend: 0x0, symName: __ZNSt3__111char_traitsIcE7compareEPKcS3_m, symObjAddr: 0x6830, symBinAddr: 0x10000A450, symSize: 0x60 }
  - { offsetInCU: 0x273AE, offset: 0x273AE, size: 0x8, addend: 0x0, symName: __ZNKSt3__117basic_string_viewIcNS_11char_traitsIcEEE4dataB7v160006Ev, symObjAddr: 0x6890, symBinAddr: 0x10000A4B0, symSize: 0x20 }
  - { offsetInCU: 0x273D4, offset: 0x273D4, size: 0x8, addend: 0x0, symName: __ZNKSt3__112basic_stringIcNS_11char_traitsIcEENS_9allocatorIcEEE4dataB7v160006Ev, symObjAddr: 0x68E0, symBinAddr: 0x10000A500, symSize: 0x30 }
  - { offsetInCU: 0x273FA, offset: 0x273FA, size: 0x8, addend: 0x0, symName: __ZNSt3__117basic_string_viewIcNS_11char_traitsIcEEEC1B7v160006EPKcm, symObjAddr: 0x6910, symBinAddr: 0x10000A530, symSize: 0x30 }
  - { offsetInCU: 0x27442, offset: 0x27442, size: 0x8, addend: 0x0, symName: __ZNKSt3__112basic_stringIcNS_11char_traitsIcEENS_9allocatorIcEEE13__get_pointerB7v160006Ev, symObjAddr: 0x6950, symBinAddr: 0x10000A570, symSize: 0x50 }
  - { offsetInCU: 0x27468, offset: 0x27468, size: 0x8, addend: 0x0, symName: __ZNKSt3__112basic_stringIcNS_11char_traitsIcEENS_9allocatorIcEEE18__get_long_pointerB7v160006Ev, symObjAddr: 0x69A0, symBinAddr: 0x10000A5C0, symSize: 0x20 }
  - { offsetInCU: 0x2748E, offset: 0x2748E, size: 0x8, addend: 0x0, symName: __ZNKSt3__112basic_stringIcNS_11char_traitsIcEENS_9allocatorIcEEE19__get_short_pointerB7v160006Ev, symObjAddr: 0x69C0, symBinAddr: 0x10000A5E0, symSize: 0x30 }
  - { offsetInCU: 0x274B4, offset: 0x274B4, size: 0x8, addend: 0x0, symName: __ZNSt3__114pointer_traitsIPKcE10pointer_toB7v160006ERS1_, symObjAddr: 0x69F0, symBinAddr: 0x10000A610, symSize: 0x10 }
  - { offsetInCU: 0x274D7, offset: 0x274D7, size: 0x8, addend: 0x0, symName: __ZNSt3__117basic_string_viewIcNS_11char_traitsIcEEEC2B7v160006EPKcm, symObjAddr: 0x6A00, symBinAddr: 0x10000A620, symSize: 0x50 }
  - { offsetInCU: 0x2751F, offset: 0x2751F, size: 0x8, addend: 0x0, symName: __ZNSt3__120_CmpUnspecifiedParamC2B7v160006EMS0_i, symObjAddr: 0x6A50, symBinAddr: 0x10000A670, symSize: 0x10 }
  - { offsetInCU: 0x27554, offset: 0x27554, size: 0x8, addend: 0x0, symName: __ZNSt3__112basic_stringIcNS_11char_traitsIcEENS_9allocatorIcEEE4swapB7v160006ERS5_, symObjAddr: 0x6AC0, symBinAddr: 0x10000A6E0, symSize: 0xA0 }
  - { offsetInCU: 0x2758B, offset: 0x2758B, size: 0x8, addend: 0x0, symName: __ZNSt3__112basic_stringIcNS_11char_traitsIcEENS_9allocatorIcEEE7__allocB7v160006Ev, symObjAddr: 0x6C00, symBinAddr: 0x10000A820, symSize: 0x20 }
  - { offsetInCU: 0x275B1, offset: 0x275B1, size: 0x8, addend: 0x0, symName: __ZNSt3__117__compressed_pairINS_12basic_stringIcNS_11char_traitsIcEENS_9allocatorIcEEE5__repES5_E6secondB7v160006Ev, symObjAddr: 0x6C30, symBinAddr: 0x10000A850, symSize: 0x20 }
  - { offsetInCU: 0x275D7, offset: 0x275D7, size: 0x8, addend: 0x0, symName: __ZNSt3__122__compressed_pair_elemINS_9allocatorIcEELi1ELb1EE5__getB7v160006Ev, symObjAddr: 0x6C50, symBinAddr: 0x10000A870, symSize: 0x10 }
  - { offsetInCU: 0x275FD, offset: 0x275FD, size: 0x8, addend: 0x0, symName: __ZNSt3__18_IterOpsINS_17_ClassicAlgPolicyEE11__iter_moveB7v160006IRPNS_12basic_stringIcNS_11char_traitsIcEENS_9allocatorIcEEEEEENS_9enable_ifIXsr12is_referenceIDTdeclsr3stdE7declvalIRT_EEEEE5valueEDTclsr3stdE4movedeclsr3stdE7declvalISE_EEEEE4typeEOSD_, symObjAddr: 0x6D50, symBinAddr: 0x10000A970, symSize: 0x20 }
  - { offsetInCU: 0x27629, offset: 0x27629, size: 0x8, addend: 0x0, symName: __ZNSt3__112basic_stringIcNS_11char_traitsIcEENS_9allocatorIcEEEaSB7v160006EOS5_, symObjAddr: 0x6D70, symBinAddr: 0x10000A990, symSize: 0x30 }
  - { offsetInCU: 0x2765E, offset: 0x2765E, size: 0x8, addend: 0x0, symName: __ZNSt3__18_IterOpsINS_17_ClassicAlgPolicyEE25__validate_iter_referenceB7v160006IRPNS_12basic_stringIcNS_11char_traitsIcEENS_9allocatorIcEEEEEEvv, symObjAddr: 0x6DA0, symBinAddr: 0x10000A9C0, symSize: 0x10 }
  - { offsetInCU: 0x2767C, offset: 0x2767C, size: 0x8, addend: 0x0, symName: __ZNSt3__112basic_stringIcNS_11char_traitsIcEENS_9allocatorIcEEE13__move_assignB7v160006ERS5_NS_17integral_constantIbLb1EEE, symObjAddr: 0x6DB0, symBinAddr: 0x10000A9D0, symSize: 0xD0 }
  - { offsetInCU: 0x276BF, offset: 0x276BF, size: 0x8, addend: 0x0, symName: __ZNSt3__116allocator_traitsINS_9allocatorIcEEE10deallocateB7v160006ERS2_Pcm, symObjAddr: 0x6E80, symBinAddr: 0x10000AAA0, symSize: 0x30 }
  - { offsetInCU: 0x27701, offset: 0x27701, size: 0x8, addend: 0x0, symName: __ZNKSt3__112basic_stringIcNS_11char_traitsIcEENS_9allocatorIcEEE14__get_long_capB7v160006Ev, symObjAddr: 0x6EB0, symBinAddr: 0x10000AAD0, symSize: 0x30 }
  - { offsetInCU: 0x27727, offset: 0x27727, size: 0x8, addend: 0x0, symName: __ZNSt3__112basic_stringIcNS_11char_traitsIcEENS_9allocatorIcEEE19__move_assign_allocB7v160006ERS5_, symObjAddr: 0x6EE0, symBinAddr: 0x10000AB00, symSize: 0x30 }
  - { offsetInCU: 0x2775C, offset: 0x2775C, size: 0x8, addend: 0x0, symName: __ZNSt3__19allocatorIcE10deallocateB7v160006EPcm, symObjAddr: 0x6F10, symBinAddr: 0x10000AB30, symSize: 0x40 }
  - { offsetInCU: 0x2779E, offset: 0x2779E, size: 0x8, addend: 0x0, symName: __ZNSt3__112basic_stringIcNS_11char_traitsIcEENS_9allocatorIcEEE19__move_assign_allocB7v160006ERS5_NS_17integral_constantIbLb1EEE, symObjAddr: 0x6F50, symBinAddr: 0x10000AB70, symSize: 0x30 }
  - { offsetInCU: 0x277DF, offset: 0x277DF, size: 0x8, addend: 0x0, symName: __ZNSt3__18_IterOpsINS_17_ClassicAlgPolicyEE4nextB7v160006IPNS_12basic_stringIcNS_11char_traitsIcEENS_9allocatorIcEEEEEET_SB_SB_, symObjAddr: 0x6F80, symBinAddr: 0x10000ABA0, symSize: 0x20 }
  - { offsetInCU: 0x27816, offset: 0x27816, size: 0x8, addend: 0x0, symName: __ZNSt3__118__unwrap_iter_implINS_11__wrap_iterIPNS_12basic_stringIcNS_11char_traitsIcEENS_9allocatorIcEEEEEELb1EE8__unwrapB7v160006ES9_, symObjAddr: 0x78A0, symBinAddr: 0x10000B4C0, symSize: 0x20 }
  - { offsetInCU: 0x2783F, offset: 0x2783F, size: 0x8, addend: 0x0, symName: __ZNSt3__119__to_address_helperINS_11__wrap_iterIPNS_12basic_stringIcNS_11char_traitsIcEENS_9allocatorIcEEEEEEvE6__callB7v160006ERKS9_, symObjAddr: 0x78E0, symBinAddr: 0x10000B500, symSize: 0x30 }
  - { offsetInCU: 0x27862, offset: 0x27862, size: 0x8, addend: 0x0, symName: __ZNSt3__114pointer_traitsINS_11__wrap_iterIPNS_12basic_stringIcNS_11char_traitsIcEENS_9allocatorIcEEEEEEE10to_addressB7v160006ES9_, symObjAddr: 0x7910, symBinAddr: 0x10000B530, symSize: 0x30 }
  - { offsetInCU: 0x27886, offset: 0x27886, size: 0x8, addend: 0x0, symName: __ZNKSt3__111__wrap_iterIPNS_12basic_stringIcNS_11char_traitsIcEENS_9allocatorIcEEEEE4baseB7v160006Ev, symObjAddr: 0x7940, symBinAddr: 0x10000B560, symSize: 0x20 }
  - { offsetInCU: 0x278AC, offset: 0x278AC, size: 0x8, addend: 0x0, symName: __ZNSt3__16vectorINS_12basic_stringIcNS_11char_traitsIcEENS_9allocatorIcEEEENS4_IS6_EEED2B7v160006Ev, symObjAddr: 0x79A0, symBinAddr: 0x10000B5C0, symSize: 0x40 }
  - { offsetInCU: 0x278D6, offset: 0x278D6, size: 0x8, addend: 0x0, symName: __ZNSt3__119basic_istringstreamIcNS_11char_traitsIcEENS_9allocatorIcEEED2Ev, symObjAddr: 0x79E0, symBinAddr: 0x10000B600, symSize: 0x60 }
  - { offsetInCU: 0x27910, offset: 0x27910, size: 0x8, addend: 0x0, symName: __ZTv0_n24_NSt3__119basic_istringstreamIcNS_11char_traitsIcEENS_9allocatorIcEEED1Ev, symObjAddr: 0x7A40, symBinAddr: 0x10000B660, symSize: 0x20 }
  - { offsetInCU: 0x2792D, offset: 0x2792D, size: 0x8, addend: 0x0, symName: __ZNSt3__115basic_stringbufIcNS_11char_traitsIcEENS_9allocatorIcEEED1Ev, symObjAddr: 0x7A60, symBinAddr: 0x10000B680, symSize: 0x20 }
  - { offsetInCU: 0x2795A, offset: 0x2795A, size: 0x8, addend: 0x0, symName: __ZNSt3__115basic_stringbufIcNS_11char_traitsIcEENS_9allocatorIcEEED2Ev, symObjAddr: 0x7A80, symBinAddr: 0x10000B6A0, symSize: 0x40 }
  - { offsetInCU: 0x27987, offset: 0x27987, size: 0x8, addend: 0x0, symName: __ZNSt3__114basic_ifstreamIcNS_11char_traitsIcEEED2Ev, symObjAddr: 0x7AC0, symBinAddr: 0x10000B6E0, symSize: 0x60 }
  - { offsetInCU: 0x279C1, offset: 0x279C1, size: 0x8, addend: 0x0, symName: __ZTv0_n24_NSt3__114basic_ifstreamIcNS_11char_traitsIcEEED1Ev, symObjAddr: 0x7B20, symBinAddr: 0x10000B740, symSize: 0x20 }
  - { offsetInCU: 0x279D8, offset: 0x279D8, size: 0x8, addend: 0x0, symName: __ZNSt3__16vectorINS_12basic_stringIcNS_11char_traitsIcEENS_9allocatorIcEEEENS4_IS6_EEEC2B7v160006Ev, symObjAddr: 0x7B40, symBinAddr: 0x10000B760, symSize: 0x60 }
  - { offsetInCU: 0x27A02, offset: 0x27A02, size: 0x8, addend: 0x0, symName: __ZNSt3__16vectorINS_12basic_stringIcNS_11char_traitsIcEENS_9allocatorIcEEEENS4_IS6_EEE21__push_back_slow_pathIRKS6_EEvOT_, symObjAddr: 0x7BA0, symBinAddr: 0x10000B7C0, symSize: 0xD0 }
  - { offsetInCU: 0x27A60, offset: 0x27A60, size: 0x8, addend: 0x0, symName: __ZNSt3__16vectorINS_12basic_stringIcNS_11char_traitsIcEENS_9allocatorIcEEEENS4_IS6_EEE17__destruct_at_endB7v160006EPS6_, symObjAddr: 0x7CB0, symBinAddr: 0x10000B8D0, symSize: 0x60 }
  - { offsetInCU: 0x27AA4, offset: 0x27AA4, size: 0x8, addend: 0x0, symName: __ZNSt3__16vectorINS_12basic_stringIcNS_11char_traitsIcEENS_9allocatorIcEEEENS4_IS6_EEE27__invalidate_iterators_pastB7v160006EPS6_, symObjAddr: 0x7D90, symBinAddr: 0x10000B9B0, symSize: 0x10 }
  - { offsetInCU: 0x27ADB, offset: 0x27ADB, size: 0x8, addend: 0x0, symName: __ZNKSt3__16vectorINS_12basic_stringIcNS_11char_traitsIcEENS_9allocatorIcEEEENS4_IS6_EEE17__annotate_shrinkB7v160006Em, symObjAddr: 0x7DA0, symBinAddr: 0x10000B9C0, symSize: 0xA0 }
  - { offsetInCU: 0x27B38, offset: 0x27B38, size: 0x8, addend: 0x0, symName: __ZNKSt3__111__move_loopINS_17_ClassicAlgPolicyEEclB7v160006IPNS_12basic_stringIcNS_11char_traitsIcEENS_9allocatorIcEEEESA_SA_EENS_4pairIT_T1_EESC_T0_SD_, symObjAddr: 0x7FB0, symBinAddr: 0x10000BBD0, symSize: 0x80 }
  - { offsetInCU: 0x27BA3, offset: 0x27BA3, size: 0x8, addend: 0x0, symName: __ZNSt3__119__unwrap_range_implIPNS_12basic_stringIcNS_11char_traitsIcEENS_9allocatorIcEEEES7_E8__unwrapB7v160006ES7_S7_, symObjAddr: 0x80F0, symBinAddr: 0x10000BD10, symSize: 0x50 }
  - { offsetInCU: 0x27BDA, offset: 0x27BDA, size: 0x8, addend: 0x0, symName: __ZNSt3__14pairIPNS_12basic_stringIcNS_11char_traitsIcEENS_9allocatorIcEEEES7_EC1B7v160006IS7_S7_LPv0EEEOT_OT0_, symObjAddr: 0x8140, symBinAddr: 0x10000BD60, symSize: 0x30 }
  - { offsetInCU: 0x27C38, offset: 0x27C38, size: 0x8, addend: 0x0, symName: __ZNSt3__14pairIPNS_12basic_stringIcNS_11char_traitsIcEENS_9allocatorIcEEEES7_EC2B7v160006IS7_S7_LPv0EEEOT_OT0_, symObjAddr: 0x8170, symBinAddr: 0x10000BD90, symSize: 0x30 }
  - { offsetInCU: 0x27C96, offset: 0x27C96, size: 0x8, addend: 0x0, symName: __ZNSt3__118__unwrap_iter_implIPNS_12basic_stringIcNS_11char_traitsIcEENS_9allocatorIcEEEELb1EE8__unwrapB7v160006ES7_, symObjAddr: 0x81A0, symBinAddr: 0x10000BDC0, symSize: 0x20 }
  - { offsetInCU: 0x27CB9, offset: 0x27CB9, size: 0x8, addend: 0x0, symName: __ZNSt3__119__unwrap_range_implIPNS_12basic_stringIcNS_11char_traitsIcEENS_9allocatorIcEEEES7_E8__rewrapB7v160006ES7_S7_, symObjAddr: 0x81C0, symBinAddr: 0x10000BDE0, symSize: 0x30 }
  - { offsetInCU: 0x27CEA, offset: 0x27CEA, size: 0x8, addend: 0x0, symName: __ZNSt3__118__unwrap_iter_implIPNS_12basic_stringIcNS_11char_traitsIcEENS_9allocatorIcEEEELb1EE8__rewrapB7v160006ES7_S7_, symObjAddr: 0x81F0, symBinAddr: 0x10000BE10, symSize: 0x60 }
  - { offsetInCU: 0x27D26, offset: 0x27D26, size: 0x8, addend: 0x0, symName: __ZNKSt3__110__equal_toclB7v160006INS_12basic_stringIcNS_11char_traitsIcEENS_9allocatorIcEEEES7_EEbRKT_RKT0_, symObjAddr: 0x84A0, symBinAddr: 0x10000C0C0, symSize: 0x30 }
  - { offsetInCU: 0x27D7A, offset: 0x27D7A, size: 0x8, addend: 0x0, symName: __ZNSt3__18_IterOpsINS_17_ClassicAlgPolicyEE11__iter_moveB7v160006IRNS_11__wrap_iterIPNS_12basic_stringIcNS_11char_traitsIcEENS_9allocatorIcEEEEEEEENS_9enable_ifIXsr12is_referenceIDTdeclsr3stdE7declvalIRT_EEEEE5valueEDTclsr3stdE4movedeclsr3stdE7declvalISG_EEEEE4typeEOSF_, symObjAddr: 0x84D0, symBinAddr: 0x10000C0F0, symSize: 0x20 }
  - { offsetInCU: 0x27DC9, offset: 0x27DC9, size: 0x8, addend: 0x0, symName: __ZNSt3__14pairINS_11__wrap_iterIPNS_12basic_stringIcNS_11char_traitsIcEENS_9allocatorIcEEEEEES9_EC1B7v160006IS9_S9_LPv0EEEOT_OT0_, symObjAddr: 0x84F0, symBinAddr: 0x10000C110, symSize: 0x30 }
  - { offsetInCU: 0x27E27, offset: 0x27E27, size: 0x8, addend: 0x0, symName: __ZNSt3__14pairINS_11__wrap_iterIPNS_12basic_stringIcNS_11char_traitsIcEENS_9allocatorIcEEEEEES9_EC1B7v160006IRS9_SC_LPv0EEEOT_OT0_, symObjAddr: 0x8520, symBinAddr: 0x10000C140, symSize: 0x30 }
  - { offsetInCU: 0x27E85, offset: 0x27E85, size: 0x8, addend: 0x0, symName: __ZNSt3__18_IterOpsINS_17_ClassicAlgPolicyEE25__validate_iter_referenceB7v160006IRNS_11__wrap_iterIPNS_12basic_stringIcNS_11char_traitsIcEENS_9allocatorIcEEEEEEEEvv, symObjAddr: 0x8660, symBinAddr: 0x10000C280, symSize: 0x10 }
  - { offsetInCU: 0x27EA3, offset: 0x27EA3, size: 0x8, addend: 0x0, symName: __ZNSt3__14pairINS_11__wrap_iterIPNS_12basic_stringIcNS_11char_traitsIcEENS_9allocatorIcEEEEEES9_EC2B7v160006IS9_S9_LPv0EEEOT_OT0_, symObjAddr: 0x8670, symBinAddr: 0x10000C290, symSize: 0x30 }
  - { offsetInCU: 0x27F01, offset: 0x27F01, size: 0x8, addend: 0x0, symName: __ZNSt3__14pairINS_11__wrap_iterIPNS_12basic_stringIcNS_11char_traitsIcEENS_9allocatorIcEEEEEES9_EC2B7v160006IRS9_SC_LPv0EEEOT_OT0_, symObjAddr: 0x86A0, symBinAddr: 0x10000C2C0, symSize: 0x30 }
  - { offsetInCU: 0x27F5F, offset: 0x27F5F, size: 0x8, addend: 0x0, symName: __ZNSt3__111__wrap_iterIPKNS_12basic_stringIcNS_11char_traitsIcEENS_9allocatorIcEEEEEC2B7v160006IPS6_EERKNS0_IT_EEPNS_9enable_ifIXsr14is_convertibleISC_S8_EE5valueEvE4typeE, symObjAddr: 0x86D0, symBinAddr: 0x10000C2F0, symSize: 0x40 }
  - { offsetInCU: 0x27FAB, offset: 0x27FAB, size: 0x8, addend: 0x0, symName: __ZNSt3__16vectorIiNS_9allocatorIiEEEC2EmRKi, symObjAddr: 0x8710, symBinAddr: 0x10000C330, symSize: 0xE0 }
  - { offsetInCU: 0x2800A, offset: 0x2800A, size: 0x8, addend: 0x0, symName: __ZNSt3__117__compressed_pairIPiNS_9allocatorIiEEEC1B7v160006IDnNS_18__default_init_tagEEEOT_OT0_, symObjAddr: 0x87F0, symBinAddr: 0x10000C410, symSize: 0x30 }
  - { offsetInCU: 0x28062, offset: 0x28062, size: 0x8, addend: 0x0, symName: __ZNSt3__16vectorIiNS_9allocatorIiEEE16__destroy_vectorC1ERS3_, symObjAddr: 0x8860, symBinAddr: 0x10000C480, symSize: 0x30 }
  - { offsetInCU: 0x2809B, offset: 0x2809B, size: 0x8, addend: 0x0, symName: __ZNSt3__16vectorIiNS_9allocatorIiEEE11__vallocateB7v160006Em, symObjAddr: 0x88A0, symBinAddr: 0x10000C4C0, symSize: 0xA0 }
  - { offsetInCU: 0x280DF, offset: 0x280DF, size: 0x8, addend: 0x0, symName: __ZNSt3__16vectorIiNS_9allocatorIiEEE18__construct_at_endEmRKi, symObjAddr: 0x8940, symBinAddr: 0x10000C560, symSize: 0xC0 }
  - { offsetInCU: 0x28160, offset: 0x28160, size: 0x8, addend: 0x0, symName: __ZNSt3__128__exception_guard_exceptionsINS_6vectorIiNS_9allocatorIiEEE16__destroy_vectorEE10__completeB7v160006Ev, symObjAddr: 0x8A00, symBinAddr: 0x10000C620, symSize: 0x20 }
  - { offsetInCU: 0x28186, offset: 0x28186, size: 0x8, addend: 0x0, symName: __ZNSt3__128__exception_guard_exceptionsINS_6vectorIiNS_9allocatorIiEEE16__destroy_vectorEED1B7v160006Ev, symObjAddr: 0x8A20, symBinAddr: 0x10000C640, symSize: 0x20 }
  - { offsetInCU: 0x281B0, offset: 0x281B0, size: 0x8, addend: 0x0, symName: __ZNSt3__117__compressed_pairIPiNS_9allocatorIiEEEC2B7v160006IDnNS_18__default_init_tagEEEOT_OT0_, symObjAddr: 0x8A40, symBinAddr: 0x10000C660, symSize: 0x40 }
  - { offsetInCU: 0x28208, offset: 0x28208, size: 0x8, addend: 0x0, symName: __ZNSt3__122__compressed_pair_elemIPiLi0ELb0EEC2B7v160006IDnvEEOT_, symObjAddr: 0x8A80, symBinAddr: 0x10000C6A0, symSize: 0x20 }
  - { offsetInCU: 0x2824A, offset: 0x2824A, size: 0x8, addend: 0x0, symName: __ZNSt3__122__compressed_pair_elemINS_9allocatorIiEELi1ELb1EEC2B7v160006ENS_18__default_init_tagE, symObjAddr: 0x8AA0, symBinAddr: 0x10000C6C0, symSize: 0x20 }
  - { offsetInCU: 0x2827F, offset: 0x2827F, size: 0x8, addend: 0x0, symName: __ZNSt3__19allocatorIiEC2B7v160006Ev, symObjAddr: 0x8AC0, symBinAddr: 0x10000C6E0, symSize: 0x20 }
  - { offsetInCU: 0x282A9, offset: 0x282A9, size: 0x8, addend: 0x0, symName: __ZNSt3__116__non_trivial_ifILb1ENS_9allocatorIiEEEC2B7v160006Ev, symObjAddr: 0x8AE0, symBinAddr: 0x10000C700, symSize: 0x10 }
  - { offsetInCU: 0x282D3, offset: 0x282D3, size: 0x8, addend: 0x0, symName: __ZNSt3__128__exception_guard_exceptionsINS_6vectorIiNS_9allocatorIiEEE16__destroy_vectorEEC1B7v160006ES5_, symObjAddr: 0x8AF0, symBinAddr: 0x10000C710, symSize: 0x30 }
  - { offsetInCU: 0x2830B, offset: 0x2830B, size: 0x8, addend: 0x0, symName: __ZNSt3__128__exception_guard_exceptionsINS_6vectorIiNS_9allocatorIiEEE16__destroy_vectorEEC2B7v160006ES5_, symObjAddr: 0x8B20, symBinAddr: 0x10000C740, symSize: 0x20 }
  - { offsetInCU: 0x28343, offset: 0x28343, size: 0x8, addend: 0x0, symName: __ZNSt3__16vectorIiNS_9allocatorIiEEE16__destroy_vectorC2ERS3_, symObjAddr: 0x8B40, symBinAddr: 0x10000C760, symSize: 0x20 }
  - { offsetInCU: 0x2837C, offset: 0x2837C, size: 0x8, addend: 0x0, symName: __ZNKSt3__16vectorIiNS_9allocatorIiEEE8max_sizeEv, symObjAddr: 0x8B60, symBinAddr: 0x10000C780, symSize: 0x60 }
  - { offsetInCU: 0x283A4, offset: 0x283A4, size: 0x8, addend: 0x0, symName: __ZNKSt3__16vectorIiNS_9allocatorIiEEE20__throw_length_errorB7v160006Ev, symObjAddr: 0x8BC0, symBinAddr: 0x10000C7E0, symSize: 0x20 }
  - { offsetInCU: 0x283CA, offset: 0x283CA, size: 0x8, addend: 0x0, symName: __ZNSt3__16vectorIiNS_9allocatorIiEEE7__allocB7v160006Ev, symObjAddr: 0x8C20, symBinAddr: 0x10000C840, symSize: 0x20 }
  - { offsetInCU: 0x283F0, offset: 0x283F0, size: 0x8, addend: 0x0, symName: __ZNSt3__16vectorIiNS_9allocatorIiEEE9__end_capB7v160006Ev, symObjAddr: 0x8C40, symBinAddr: 0x10000C860, symSize: 0x20 }
  - { offsetInCU: 0x28416, offset: 0x28416, size: 0x8, addend: 0x0, symName: __ZNKSt3__16vectorIiNS_9allocatorIiEEE14__annotate_newB7v160006Em, symObjAddr: 0x8C60, symBinAddr: 0x10000C880, symSize: 0xB0 }
  - { offsetInCU: 0x28456, offset: 0x28456, size: 0x8, addend: 0x0, symName: __ZNSt3__116allocator_traitsINS_9allocatorIiEEE8max_sizeB7v160006IS2_vvEEmRKS2_, symObjAddr: 0x8D10, symBinAddr: 0x10000C930, symSize: 0x20 }
  - { offsetInCU: 0x28482, offset: 0x28482, size: 0x8, addend: 0x0, symName: __ZNKSt3__16vectorIiNS_9allocatorIiEEE7__allocB7v160006Ev, symObjAddr: 0x8D30, symBinAddr: 0x10000C950, symSize: 0x20 }
  - { offsetInCU: 0x284A8, offset: 0x284A8, size: 0x8, addend: 0x0, symName: __ZNKSt3__117__compressed_pairIPiNS_9allocatorIiEEE6secondB7v160006Ev, symObjAddr: 0x8D50, symBinAddr: 0x10000C970, symSize: 0x20 }
  - { offsetInCU: 0x284CE, offset: 0x284CE, size: 0x8, addend: 0x0, symName: __ZNKSt3__122__compressed_pair_elemINS_9allocatorIiEELi1ELb1EE5__getB7v160006Ev, symObjAddr: 0x8D70, symBinAddr: 0x10000C990, symSize: 0x10 }
  - { offsetInCU: 0x284F4, offset: 0x284F4, size: 0x8, addend: 0x0, symName: __ZNSt3__19allocatorIiE8allocateB7v160006Em, symObjAddr: 0x8D80, symBinAddr: 0x10000C9A0, symSize: 0x50 }
  - { offsetInCU: 0x28528, offset: 0x28528, size: 0x8, addend: 0x0, symName: __ZNSt3__117__compressed_pairIPiNS_9allocatorIiEEE6secondB7v160006Ev, symObjAddr: 0x8DD0, symBinAddr: 0x10000C9F0, symSize: 0x20 }
  - { offsetInCU: 0x2854E, offset: 0x2854E, size: 0x8, addend: 0x0, symName: __ZNSt3__122__compressed_pair_elemINS_9allocatorIiEELi1ELb1EE5__getB7v160006Ev, symObjAddr: 0x8DF0, symBinAddr: 0x10000CA10, symSize: 0x10 }
  - { offsetInCU: 0x28574, offset: 0x28574, size: 0x8, addend: 0x0, symName: __ZNSt3__117__compressed_pairIPiNS_9allocatorIiEEE5firstB7v160006Ev, symObjAddr: 0x8E00, symBinAddr: 0x10000CA20, symSize: 0x20 }
  - { offsetInCU: 0x2859A, offset: 0x2859A, size: 0x8, addend: 0x0, symName: __ZNSt3__122__compressed_pair_elemIPiLi0ELb0EE5__getB7v160006Ev, symObjAddr: 0x8E20, symBinAddr: 0x10000CA40, symSize: 0x10 }
  - { offsetInCU: 0x285C0, offset: 0x285C0, size: 0x8, addend: 0x0, symName: __ZNKSt3__16vectorIiNS_9allocatorIiEEE31__annotate_contiguous_containerB7v160006EPKvS5_S5_S5_, symObjAddr: 0x8E30, symBinAddr: 0x10000CA50, symSize: 0x20 }
  - { offsetInCU: 0x28616, offset: 0x28616, size: 0x8, addend: 0x0, symName: __ZNKSt3__16vectorIiNS_9allocatorIiEEE4dataB7v160006Ev, symObjAddr: 0x8E50, symBinAddr: 0x10000CA70, symSize: 0x20 }
  - { offsetInCU: 0x2863C, offset: 0x2863C, size: 0x8, addend: 0x0, symName: __ZNKSt3__16vectorIiNS_9allocatorIiEEE8capacityB7v160006Ev, symObjAddr: 0x8E70, symBinAddr: 0x10000CA90, symSize: 0x30 }
  - { offsetInCU: 0x28662, offset: 0x28662, size: 0x8, addend: 0x0, symName: __ZNKSt3__16vectorIiNS_9allocatorIiEEE9__end_capB7v160006Ev, symObjAddr: 0x8EB0, symBinAddr: 0x10000CAD0, symSize: 0x20 }
  - { offsetInCU: 0x28688, offset: 0x28688, size: 0x8, addend: 0x0, symName: __ZNKSt3__117__compressed_pairIPiNS_9allocatorIiEEE5firstB7v160006Ev, symObjAddr: 0x8ED0, symBinAddr: 0x10000CAF0, symSize: 0x20 }
  - { offsetInCU: 0x286AE, offset: 0x286AE, size: 0x8, addend: 0x0, symName: __ZNKSt3__122__compressed_pair_elemIPiLi0ELb0EE5__getB7v160006Ev, symObjAddr: 0x8EF0, symBinAddr: 0x10000CB10, symSize: 0x10 }
  - { offsetInCU: 0x286F0, offset: 0x286F0, size: 0x8, addend: 0x0, symName: __ZNSt3__16vectorIiNS_9allocatorIiEEE21_ConstructTransactionC1B7v160006ERS3_m, symObjAddr: 0x8F00, symBinAddr: 0x10000CB20, symSize: 0x30 }
  - { offsetInCU: 0x2873E, offset: 0x2873E, size: 0x8, addend: 0x0, symName: __ZNSt3__116allocator_traitsINS_9allocatorIiEEE9constructB7v160006IiJRKiEvvEEvRS2_PT_DpOT0_, symObjAddr: 0x8F30, symBinAddr: 0x10000CB50, symSize: 0x30 }
  - { offsetInCU: 0x28793, offset: 0x28793, size: 0x8, addend: 0x0, symName: __ZNSt3__16vectorIiNS_9allocatorIiEEE21_ConstructTransactionD1B7v160006Ev, symObjAddr: 0x8F60, symBinAddr: 0x10000CB80, symSize: 0x20 }
  - { offsetInCU: 0x287BD, offset: 0x287BD, size: 0x8, addend: 0x0, symName: __ZNSt3__16vectorIiNS_9allocatorIiEEE21_ConstructTransactionC2B7v160006ERS3_m, symObjAddr: 0x8F80, symBinAddr: 0x10000CBA0, symSize: 0x40 }
  - { offsetInCU: 0x28805, offset: 0x28805, size: 0x8, addend: 0x0, symName: __ZNSt3__16vectorIiNS_9allocatorIiEEE21_ConstructTransactionD2B7v160006Ev, symObjAddr: 0x8FF0, symBinAddr: 0x10000CC10, symSize: 0x20 }
  - { offsetInCU: 0x2882F, offset: 0x2882F, size: 0x8, addend: 0x0, symName: __ZNSt3__128__exception_guard_exceptionsINS_6vectorIiNS_9allocatorIiEEE16__destroy_vectorEED2B7v160006Ev, symObjAddr: 0x9010, symBinAddr: 0x10000CC30, symSize: 0x40 }
  - { offsetInCU: 0x28859, offset: 0x28859, size: 0x8, addend: 0x0, symName: __ZNSt3__16vectorIiNS_9allocatorIiEEE16__destroy_vectorclB7v160006Ev, symObjAddr: 0x9050, symBinAddr: 0x10000CC70, symSize: 0x90 }
  - { offsetInCU: 0x2887F, offset: 0x2887F, size: 0x8, addend: 0x0, symName: __ZNKSt3__16vectorIiNS_9allocatorIiEEE17__annotate_deleteB7v160006Ev, symObjAddr: 0x90E0, symBinAddr: 0x10000CD00, symSize: 0xB0 }
  - { offsetInCU: 0x288A5, offset: 0x288A5, size: 0x8, addend: 0x0, symName: __ZNSt3__16vectorIiNS_9allocatorIiEEE7__clearB7v160006Ev, symObjAddr: 0x91A0, symBinAddr: 0x10000CDC0, symSize: 0x20 }
  - { offsetInCU: 0x288CB, offset: 0x288CB, size: 0x8, addend: 0x0, symName: __ZNSt3__116allocator_traitsINS_9allocatorIiEEE10deallocateB7v160006ERS2_Pim, symObjAddr: 0x91C0, symBinAddr: 0x10000CDE0, symSize: 0x30 }
  - { offsetInCU: 0x2890D, offset: 0x2890D, size: 0x8, addend: 0x0, symName: __ZNKSt3__16vectorIiNS_9allocatorIiEEE4sizeB7v160006Ev, symObjAddr: 0x91F0, symBinAddr: 0x10000CE10, symSize: 0x20 }
  - { offsetInCU: 0x28933, offset: 0x28933, size: 0x8, addend: 0x0, symName: __ZNSt3__16vectorIiNS_9allocatorIiEEE22__base_destruct_at_endB7v160006EPi, symObjAddr: 0x9210, symBinAddr: 0x10000CE30, symSize: 0x80 }
  - { offsetInCU: 0x28977, offset: 0x28977, size: 0x8, addend: 0x0, symName: __ZNSt3__116allocator_traitsINS_9allocatorIiEEE7destroyB7v160006IivvEEvRS2_PT_, symObjAddr: 0x9290, symBinAddr: 0x10000CEB0, symSize: 0x20 }
  - { offsetInCU: 0x289B2, offset: 0x289B2, size: 0x8, addend: 0x0, symName: __ZNSt3__19allocatorIiE10deallocateB7v160006EPim, symObjAddr: 0x92E0, symBinAddr: 0x10000CF00, symSize: 0x40 }
  - { offsetInCU: 0x289F4, offset: 0x289F4, size: 0x8, addend: 0x0, symName: __ZNSt3__16vectorINS0_IiNS_9allocatorIiEEEENS1_IS3_EEEC2EmRKS3_, symObjAddr: 0x9320, symBinAddr: 0x10000CF40, symSize: 0xE0 }
  - { offsetInCU: 0x28A53, offset: 0x28A53, size: 0x8, addend: 0x0, symName: __ZNSt3__117__compressed_pairIPNS_6vectorIiNS_9allocatorIiEEEENS2_IS4_EEEC1B7v160006IDnNS_18__default_init_tagEEEOT_OT0_, symObjAddr: 0x9400, symBinAddr: 0x10000D020, symSize: 0x30 }
  - { offsetInCU: 0x28AAB, offset: 0x28AAB, size: 0x8, addend: 0x0, symName: __ZNSt3__16vectorINS0_IiNS_9allocatorIiEEEENS1_IS3_EEE16__destroy_vectorC1ERS5_, symObjAddr: 0x9470, symBinAddr: 0x10000D090, symSize: 0x30 }
  - { offsetInCU: 0x28AE4, offset: 0x28AE4, size: 0x8, addend: 0x0, symName: __ZNSt3__16vectorINS0_IiNS_9allocatorIiEEEENS1_IS3_EEE11__vallocateB7v160006Em, symObjAddr: 0x94B0, symBinAddr: 0x10000D0D0, symSize: 0xA0 }
  - { offsetInCU: 0x28B28, offset: 0x28B28, size: 0x8, addend: 0x0, symName: __ZNSt3__16vectorINS0_IiNS_9allocatorIiEEEENS1_IS3_EEE18__construct_at_endEmRKS3_, symObjAddr: 0x9550, symBinAddr: 0x10000D170, symSize: 0xC0 }
  - { offsetInCU: 0x28BA9, offset: 0x28BA9, size: 0x8, addend: 0x0, symName: __ZNSt3__128__exception_guard_exceptionsINS_6vectorINS1_IiNS_9allocatorIiEEEENS2_IS4_EEE16__destroy_vectorEE10__completeB7v160006Ev, symObjAddr: 0x9610, symBinAddr: 0x10000D230, symSize: 0x20 }
  - { offsetInCU: 0x28BCF, offset: 0x28BCF, size: 0x8, addend: 0x0, symName: __ZNSt3__128__exception_guard_exceptionsINS_6vectorINS1_IiNS_9allocatorIiEEEENS2_IS4_EEE16__destroy_vectorEED1B7v160006Ev, symObjAddr: 0x9630, symBinAddr: 0x10000D250, symSize: 0x20 }
  - { offsetInCU: 0x28BF9, offset: 0x28BF9, size: 0x8, addend: 0x0, symName: __ZNSt3__117__compressed_pairIPNS_6vectorIiNS_9allocatorIiEEEENS2_IS4_EEEC2B7v160006IDnNS_18__default_init_tagEEEOT_OT0_, symObjAddr: 0x9650, symBinAddr: 0x10000D270, symSize: 0x40 }
  - { offsetInCU: 0x28C51, offset: 0x28C51, size: 0x8, addend: 0x0, symName: __ZNSt3__122__compressed_pair_elemIPNS_6vectorIiNS_9allocatorIiEEEELi0ELb0EEC2B7v160006IDnvEEOT_, symObjAddr: 0x9690, symBinAddr: 0x10000D2B0, symSize: 0x20 }
  - { offsetInCU: 0x28C93, offset: 0x28C93, size: 0x8, addend: 0x0, symName: __ZNSt3__122__compressed_pair_elemINS_9allocatorINS_6vectorIiNS1_IiEEEEEELi1ELb1EEC2B7v160006ENS_18__default_init_tagE, symObjAddr: 0x96B0, symBinAddr: 0x10000D2D0, symSize: 0x20 }
  - { offsetInCU: 0x28CC8, offset: 0x28CC8, size: 0x8, addend: 0x0, symName: __ZNSt3__19allocatorINS_6vectorIiNS0_IiEEEEEC2B7v160006Ev, symObjAddr: 0x96D0, symBinAddr: 0x10000D2F0, symSize: 0x20 }
  - { offsetInCU: 0x28CF2, offset: 0x28CF2, size: 0x8, addend: 0x0, symName: __ZNSt3__116__non_trivial_ifILb1ENS_9allocatorINS_6vectorIiNS1_IiEEEEEEEC2B7v160006Ev, symObjAddr: 0x96F0, symBinAddr: 0x10000D310, symSize: 0x10 }
  - { offsetInCU: 0x28D1C, offset: 0x28D1C, size: 0x8, addend: 0x0, symName: __ZNSt3__128__exception_guard_exceptionsINS_6vectorINS1_IiNS_9allocatorIiEEEENS2_IS4_EEE16__destroy_vectorEEC1B7v160006ES7_, symObjAddr: 0x9700, symBinAddr: 0x10000D320, symSize: 0x30 }
  - { offsetInCU: 0x28D54, offset: 0x28D54, size: 0x8, addend: 0x0, symName: __ZNSt3__128__exception_guard_exceptionsINS_6vectorINS1_IiNS_9allocatorIiEEEENS2_IS4_EEE16__destroy_vectorEEC2B7v160006ES7_, symObjAddr: 0x9730, symBinAddr: 0x10000D350, symSize: 0x20 }
  - { offsetInCU: 0x28D8C, offset: 0x28D8C, size: 0x8, addend: 0x0, symName: __ZNSt3__16vectorINS0_IiNS_9allocatorIiEEEENS1_IS3_EEE16__destroy_vectorC2ERS5_, symObjAddr: 0x9750, symBinAddr: 0x10000D370, symSize: 0x20 }
  - { offsetInCU: 0x28DC5, offset: 0x28DC5, size: 0x8, addend: 0x0, symName: __ZNKSt3__16vectorINS0_IiNS_9allocatorIiEEEENS1_IS3_EEE8max_sizeEv, symObjAddr: 0x9770, symBinAddr: 0x10000D390, symSize: 0x60 }
  - { offsetInCU: 0x28DED, offset: 0x28DED, size: 0x8, addend: 0x0, symName: __ZNKSt3__16vectorINS0_IiNS_9allocatorIiEEEENS1_IS3_EEE20__throw_length_errorB7v160006Ev, symObjAddr: 0x97D0, symBinAddr: 0x10000D3F0, symSize: 0x20 }
  - { offsetInCU: 0x28E13, offset: 0x28E13, size: 0x8, addend: 0x0, symName: __ZNSt3__16vectorINS0_IiNS_9allocatorIiEEEENS1_IS3_EEE7__allocB7v160006Ev, symObjAddr: 0x9830, symBinAddr: 0x10000D450, symSize: 0x20 }
  - { offsetInCU: 0x28E39, offset: 0x28E39, size: 0x8, addend: 0x0, symName: __ZNSt3__16vectorINS0_IiNS_9allocatorIiEEEENS1_IS3_EEE9__end_capB7v160006Ev, symObjAddr: 0x9850, symBinAddr: 0x10000D470, symSize: 0x20 }
  - { offsetInCU: 0x28E5F, offset: 0x28E5F, size: 0x8, addend: 0x0, symName: __ZNKSt3__16vectorINS0_IiNS_9allocatorIiEEEENS1_IS3_EEE14__annotate_newB7v160006Em, symObjAddr: 0x9870, symBinAddr: 0x10000D490, symSize: 0xA0 }
  - { offsetInCU: 0x28E9F, offset: 0x28E9F, size: 0x8, addend: 0x0, symName: __ZNSt3__116allocator_traitsINS_9allocatorINS_6vectorIiNS1_IiEEEEEEE8max_sizeB7v160006IS5_vvEEmRKS5_, symObjAddr: 0x9910, symBinAddr: 0x10000D530, symSize: 0x30 }
  - { offsetInCU: 0x28ECB, offset: 0x28ECB, size: 0x8, addend: 0x0, symName: __ZNKSt3__16vectorINS0_IiNS_9allocatorIiEEEENS1_IS3_EEE7__allocB7v160006Ev, symObjAddr: 0x9940, symBinAddr: 0x10000D560, symSize: 0x20 }
  - { offsetInCU: 0x28EF1, offset: 0x28EF1, size: 0x8, addend: 0x0, symName: __ZNKSt3__117__compressed_pairIPNS_6vectorIiNS_9allocatorIiEEEENS2_IS4_EEE6secondB7v160006Ev, symObjAddr: 0x9960, symBinAddr: 0x10000D580, symSize: 0x20 }
  - { offsetInCU: 0x28F17, offset: 0x28F17, size: 0x8, addend: 0x0, symName: __ZNKSt3__122__compressed_pair_elemINS_9allocatorINS_6vectorIiNS1_IiEEEEEELi1ELb1EE5__getB7v160006Ev, symObjAddr: 0x9980, symBinAddr: 0x10000D5A0, symSize: 0x10 }
  - { offsetInCU: 0x28F3D, offset: 0x28F3D, size: 0x8, addend: 0x0, symName: __ZNSt3__19allocatorINS_6vectorIiNS0_IiEEEEE8allocateB7v160006Em, symObjAddr: 0x9990, symBinAddr: 0x10000D5B0, symSize: 0x50 }
  - { offsetInCU: 0x28F71, offset: 0x28F71, size: 0x8, addend: 0x0, symName: __ZNSt3__117__compressed_pairIPNS_6vectorIiNS_9allocatorIiEEEENS2_IS4_EEE6secondB7v160006Ev, symObjAddr: 0x99E0, symBinAddr: 0x10000D600, symSize: 0x20 }
  - { offsetInCU: 0x28F97, offset: 0x28F97, size: 0x8, addend: 0x0, symName: __ZNSt3__122__compressed_pair_elemINS_9allocatorINS_6vectorIiNS1_IiEEEEEELi1ELb1EE5__getB7v160006Ev, symObjAddr: 0x9A00, symBinAddr: 0x10000D620, symSize: 0x10 }
  - { offsetInCU: 0x28FBD, offset: 0x28FBD, size: 0x8, addend: 0x0, symName: __ZNSt3__117__compressed_pairIPNS_6vectorIiNS_9allocatorIiEEEENS2_IS4_EEE5firstB7v160006Ev, symObjAddr: 0x9A10, symBinAddr: 0x10000D630, symSize: 0x20 }
  - { offsetInCU: 0x28FE3, offset: 0x28FE3, size: 0x8, addend: 0x0, symName: __ZNSt3__122__compressed_pair_elemIPNS_6vectorIiNS_9allocatorIiEEEELi0ELb0EE5__getB7v160006Ev, symObjAddr: 0x9A30, symBinAddr: 0x10000D650, symSize: 0x10 }
  - { offsetInCU: 0x29009, offset: 0x29009, size: 0x8, addend: 0x0, symName: __ZNKSt3__16vectorINS0_IiNS_9allocatorIiEEEENS1_IS3_EEE31__annotate_contiguous_containerB7v160006EPKvS7_S7_S7_, symObjAddr: 0x9A40, symBinAddr: 0x10000D660, symSize: 0x20 }
  - { offsetInCU: 0x2905F, offset: 0x2905F, size: 0x8, addend: 0x0, symName: __ZNKSt3__16vectorINS0_IiNS_9allocatorIiEEEENS1_IS3_EEE4dataB7v160006Ev, symObjAddr: 0x9A60, symBinAddr: 0x10000D680, symSize: 0x20 }
  - { offsetInCU: 0x29085, offset: 0x29085, size: 0x8, addend: 0x0, symName: __ZNKSt3__16vectorINS0_IiNS_9allocatorIiEEEENS1_IS3_EEE8capacityB7v160006Ev, symObjAddr: 0x9A80, symBinAddr: 0x10000D6A0, symSize: 0x40 }
  - { offsetInCU: 0x290AB, offset: 0x290AB, size: 0x8, addend: 0x0, symName: __ZNKSt3__16vectorINS0_IiNS_9allocatorIiEEEENS1_IS3_EEE9__end_capB7v160006Ev, symObjAddr: 0x9AD0, symBinAddr: 0x10000D6F0, symSize: 0x20 }
  - { offsetInCU: 0x290D1, offset: 0x290D1, size: 0x8, addend: 0x0, symName: __ZNKSt3__117__compressed_pairIPNS_6vectorIiNS_9allocatorIiEEEENS2_IS4_EEE5firstB7v160006Ev, symObjAddr: 0x9AF0, symBinAddr: 0x10000D710, symSize: 0x20 }
  - { offsetInCU: 0x290F7, offset: 0x290F7, size: 0x8, addend: 0x0, symName: __ZNKSt3__122__compressed_pair_elemIPNS_6vectorIiNS_9allocatorIiEEEELi0ELb0EE5__getB7v160006Ev, symObjAddr: 0x9B10, symBinAddr: 0x10000D730, symSize: 0x10 }
  - { offsetInCU: 0x29139, offset: 0x29139, size: 0x8, addend: 0x0, symName: __ZNSt3__16vectorINS0_IiNS_9allocatorIiEEEENS1_IS3_EEE21_ConstructTransactionC1B7v160006ERS5_m, symObjAddr: 0x9B20, symBinAddr: 0x10000D740, symSize: 0x30 }
  - { offsetInCU: 0x29181, offset: 0x29181, size: 0x8, addend: 0x0, symName: __ZNSt3__116allocator_traitsINS_9allocatorINS_6vectorIiNS1_IiEEEEEEE9constructB7v160006IS4_JRKS4_EvvEEvRS5_PT_DpOT0_, symObjAddr: 0x9B50, symBinAddr: 0x10000D770, symSize: 0x30 }
  - { offsetInCU: 0x291D6, offset: 0x291D6, size: 0x8, addend: 0x0, symName: __ZNSt3__16vectorINS0_IiNS_9allocatorIiEEEENS1_IS3_EEE21_ConstructTransactionD1B7v160006Ev, symObjAddr: 0x9B80, symBinAddr: 0x10000D7A0, symSize: 0x20 }
  - { offsetInCU: 0x29200, offset: 0x29200, size: 0x8, addend: 0x0, symName: __ZNSt3__16vectorINS0_IiNS_9allocatorIiEEEENS1_IS3_EEE21_ConstructTransactionC2B7v160006ERS5_m, symObjAddr: 0x9BA0, symBinAddr: 0x10000D7C0, symSize: 0x40 }
  - { offsetInCU: 0x29248, offset: 0x29248, size: 0x8, addend: 0x0, symName: __ZNSt3__16vectorIiNS_9allocatorIiEEEC1ERKS3_, symObjAddr: 0x9C20, symBinAddr: 0x10000D840, symSize: 0x30 }
  - { offsetInCU: 0x29283, offset: 0x29283, size: 0x8, addend: 0x0, symName: __ZNSt3__16vectorIiNS_9allocatorIiEEEC2ERKS3_, symObjAddr: 0x9C50, symBinAddr: 0x10000D870, symSize: 0x110 }
  - { offsetInCU: 0x292E3, offset: 0x292E3, size: 0x8, addend: 0x0, symName: __ZNSt3__116allocator_traitsINS_9allocatorIiEEE37select_on_container_copy_constructionB7v160006IS2_vvEES2_RKS2_, symObjAddr: 0x9D60, symBinAddr: 0x10000D980, symSize: 0x10 }
  - { offsetInCU: 0x29318, offset: 0x29318, size: 0x8, addend: 0x0, symName: __ZNSt3__117__compressed_pairIPiNS_9allocatorIiEEEC1B7v160006IDnS3_EEOT_OT0_, symObjAddr: 0x9D70, symBinAddr: 0x10000D990, symSize: 0x30 }
  - { offsetInCU: 0x29370, offset: 0x29370, size: 0x8, addend: 0x0, symName: __ZNSt3__16vectorIiNS_9allocatorIiEEE18__construct_at_endIPiLi0EEEvT_S6_m, symObjAddr: 0x9DA0, symBinAddr: 0x10000D9C0, symSize: 0x90 }
  - { offsetInCU: 0x293E3, offset: 0x293E3, size: 0x8, addend: 0x0, symName: __ZNSt3__117__compressed_pairIPiNS_9allocatorIiEEEC2B7v160006IDnS3_EEOT_OT0_, symObjAddr: 0x9E30, symBinAddr: 0x10000DA50, symSize: 0x40 }
  - { offsetInCU: 0x2943B, offset: 0x2943B, size: 0x8, addend: 0x0, symName: __ZNSt3__122__compressed_pair_elemINS_9allocatorIiEELi1ELb1EEC2B7v160006IS2_vEEOT_, symObjAddr: 0x9E70, symBinAddr: 0x10000DA90, symSize: 0x10 }
  - { offsetInCU: 0x2947D, offset: 0x2947D, size: 0x8, addend: 0x0, symName: __ZNSt3__129_AllocatorDestroyRangeReverseINS_9allocatorIiEEPiEC1B7v160006ERS2_RS3_S6_, symObjAddr: 0x9FE0, symBinAddr: 0x10000DC00, symSize: 0x40 }
  - { offsetInCU: 0x294D4, offset: 0x294D4, size: 0x8, addend: 0x0, symName: __ZNSt3__116allocator_traitsINS_9allocatorIiEEE9constructB7v160006IiJRiEvvEEvRS2_PT_DpOT0_, symObjAddr: 0xA020, symBinAddr: 0x10000DC40, symSize: 0x30 }
  - { offsetInCU: 0x29529, offset: 0x29529, size: 0x8, addend: 0x0, symName: __ZNSt3__128__exception_guard_exceptionsINS_29_AllocatorDestroyRangeReverseINS_9allocatorIiEEPiEEE10__completeB7v160006Ev, symObjAddr: 0xA050, symBinAddr: 0x10000DC70, symSize: 0x20 }
  - { offsetInCU: 0x2954F, offset: 0x2954F, size: 0x8, addend: 0x0, symName: __ZNSt3__128__exception_guard_exceptionsINS_29_AllocatorDestroyRangeReverseINS_9allocatorIiEEPiEEED1B7v160006Ev, symObjAddr: 0xA070, symBinAddr: 0x10000DC90, symSize: 0x20 }
  - { offsetInCU: 0x29579, offset: 0x29579, size: 0x8, addend: 0x0, symName: __ZNSt3__128__exception_guard_exceptionsINS_29_AllocatorDestroyRangeReverseINS_9allocatorIiEEPiEEEC1B7v160006ES5_, symObjAddr: 0xA090, symBinAddr: 0x10000DCB0, symSize: 0x40 }
  - { offsetInCU: 0x295B1, offset: 0x295B1, size: 0x8, addend: 0x0, symName: __ZNSt3__128__exception_guard_exceptionsINS_29_AllocatorDestroyRangeReverseINS_9allocatorIiEEPiEEEC2B7v160006ES5_, symObjAddr: 0xA0D0, symBinAddr: 0x10000DCF0, symSize: 0x30 }
  - { offsetInCU: 0x295E9, offset: 0x295E9, size: 0x8, addend: 0x0, symName: __ZNSt3__129_AllocatorDestroyRangeReverseINS_9allocatorIiEEPiEC2B7v160006ERS2_RS3_S6_, symObjAddr: 0xA100, symBinAddr: 0x10000DD20, symSize: 0x40 }
  - { offsetInCU: 0x29640, offset: 0x29640, size: 0x8, addend: 0x0, symName: __ZNSt3__128__exception_guard_exceptionsINS_29_AllocatorDestroyRangeReverseINS_9allocatorIiEEPiEEED2B7v160006Ev, symObjAddr: 0xA170, symBinAddr: 0x10000DD90, symSize: 0x40 }
  - { offsetInCU: 0x2966A, offset: 0x2966A, size: 0x8, addend: 0x0, symName: __ZNKSt3__129_AllocatorDestroyRangeReverseINS_9allocatorIiEEPiEclB7v160006Ev, symObjAddr: 0xA1B0, symBinAddr: 0x10000DDD0, symSize: 0x60 }
  - { offsetInCU: 0x29690, offset: 0x29690, size: 0x8, addend: 0x0, symName: __ZNSt3__116reverse_iteratorIPiEC1B7v160006ES1_, symObjAddr: 0xA280, symBinAddr: 0x10000DEA0, symSize: 0x30 }
  - { offsetInCU: 0x296C8, offset: 0x296C8, size: 0x8, addend: 0x0, symName: __ZNSt3__116reverse_iteratorIPiEppB7v160006Ev, symObjAddr: 0xA310, symBinAddr: 0x10000DF30, symSize: 0x20 }
  - { offsetInCU: 0x296EE, offset: 0x296EE, size: 0x8, addend: 0x0, symName: __ZNKSt3__116reverse_iteratorIPiE4baseB7v160006Ev, symObjAddr: 0xA330, symBinAddr: 0x10000DF50, symSize: 0x20 }
  - { offsetInCU: 0x2971A, offset: 0x2971A, size: 0x8, addend: 0x0, symName: __ZNSt3__119__to_address_helperINS_16reverse_iteratorIPiEEvE6__callB7v160006ERKS3_, symObjAddr: 0xA350, symBinAddr: 0x10000DF70, symSize: 0x40 }
  - { offsetInCU: 0x2973D, offset: 0x2973D, size: 0x8, addend: 0x0, symName: __ZNKSt3__116reverse_iteratorIPiEptB7v160006Ev, symObjAddr: 0xA390, symBinAddr: 0x10000DFB0, symSize: 0x30 }
  - { offsetInCU: 0x29763, offset: 0x29763, size: 0x8, addend: 0x0, symName: __ZNSt3__116reverse_iteratorIPiEC2B7v160006ES1_, symObjAddr: 0xA480, symBinAddr: 0x10000E0A0, symSize: 0x30 }
  - { offsetInCU: 0x2979B, offset: 0x2979B, size: 0x8, addend: 0x0, symName: __ZNSt3__16vectorINS0_IiNS_9allocatorIiEEEENS1_IS3_EEE21_ConstructTransactionD2B7v160006Ev, symObjAddr: 0xA4B0, symBinAddr: 0x10000E0D0, symSize: 0x20 }
  - { offsetInCU: 0x297C5, offset: 0x297C5, size: 0x8, addend: 0x0, symName: __ZNSt3__128__exception_guard_exceptionsINS_6vectorINS1_IiNS_9allocatorIiEEEENS2_IS4_EEE16__destroy_vectorEED2B7v160006Ev, symObjAddr: 0xA4D0, symBinAddr: 0x10000E0F0, symSize: 0x40 }
  - { offsetInCU: 0x297EF, offset: 0x297EF, size: 0x8, addend: 0x0, symName: __ZNSt3__16vectorINS0_IiNS_9allocatorIiEEEENS1_IS3_EEE16__destroy_vectorclB7v160006Ev, symObjAddr: 0xA510, symBinAddr: 0x10000E130, symSize: 0x90 }
  - { offsetInCU: 0x29815, offset: 0x29815, size: 0x8, addend: 0x0, symName: __ZNKSt3__16vectorINS0_IiNS_9allocatorIiEEEENS1_IS3_EEE17__annotate_deleteB7v160006Ev, symObjAddr: 0xA5A0, symBinAddr: 0x10000E1C0, symSize: 0xB0 }
  - { offsetInCU: 0x2983B, offset: 0x2983B, size: 0x8, addend: 0x0, symName: __ZNSt3__16vectorINS0_IiNS_9allocatorIiEEEENS1_IS3_EEE7__clearB7v160006Ev, symObjAddr: 0xA660, symBinAddr: 0x10000E280, symSize: 0x20 }
  - { offsetInCU: 0x29861, offset: 0x29861, size: 0x8, addend: 0x0, symName: __ZNSt3__116allocator_traitsINS_9allocatorINS_6vectorIiNS1_IiEEEEEEE10deallocateB7v160006ERS5_PS4_m, symObjAddr: 0xA680, symBinAddr: 0x10000E2A0, symSize: 0x30 }
  - { offsetInCU: 0x298A3, offset: 0x298A3, size: 0x8, addend: 0x0, symName: __ZNKSt3__16vectorINS0_IiNS_9allocatorIiEEEENS1_IS3_EEE4sizeB7v160006Ev, symObjAddr: 0xA6B0, symBinAddr: 0x10000E2D0, symSize: 0x30 }
  - { offsetInCU: 0x298C9, offset: 0x298C9, size: 0x8, addend: 0x0, symName: __ZNSt3__16vectorINS0_IiNS_9allocatorIiEEEENS1_IS3_EEE22__base_destruct_at_endB7v160006EPS3_, symObjAddr: 0xA6E0, symBinAddr: 0x10000E300, symSize: 0x80 }
  - { offsetInCU: 0x2990D, offset: 0x2990D, size: 0x8, addend: 0x0, symName: __ZNSt3__116allocator_traitsINS_9allocatorINS_6vectorIiNS1_IiEEEEEEE7destroyB7v160006IS4_vvEEvRS5_PT_, symObjAddr: 0xA760, symBinAddr: 0x10000E380, symSize: 0x20 }
  - { offsetInCU: 0x29948, offset: 0x29948, size: 0x8, addend: 0x0, symName: __ZNSt3__19allocatorINS_6vectorIiNS0_IiEEEEE10deallocateB7v160006EPS3_m, symObjAddr: 0xA7C0, symBinAddr: 0x10000E3E0, symSize: 0x50 }
  - { offsetInCU: 0x2998A, offset: 0x2998A, size: 0x8, addend: 0x0, symName: __ZNSt3__16vectorIiNS_9allocatorIiEEED2B7v160006Ev, symObjAddr: 0xA810, symBinAddr: 0x10000E430, symSize: 0x40 }
  - { offsetInCU: 0x299B4, offset: 0x299B4, size: 0x8, addend: 0x0, symName: __ZNSt3__16vectorINS_12basic_stringIcNS_11char_traitsIcEENS_9allocatorIcEEEENS4_IS6_EEEC2INS_21__hash_const_iteratorIPNS_11__hash_nodeIS6_PvEEEELi0EEET_SG_, symObjAddr: 0xA850, symBinAddr: 0x10000E470, symSize: 0x140 }
  - { offsetInCU: 0x29A32, offset: 0x29A32, size: 0x8, addend: 0x0, symName: __ZNSt3__16vectorINS_12basic_stringIcNS_11char_traitsIcEENS_9allocatorIcEEEENS4_IS6_EEE11__vallocateB7v160006Em, symObjAddr: 0xA9D0, symBinAddr: 0x10000E5F0, symSize: 0xA0 }
  - { offsetInCU: 0x29A76, offset: 0x29A76, size: 0x8, addend: 0x0, symName: __ZNSt3__16vectorINS_12basic_stringIcNS_11char_traitsIcEENS_9allocatorIcEEEENS4_IS6_EEE18__construct_at_endINS_21__hash_const_iteratorIPNS_11__hash_nodeIS6_PvEEEELi0EEEvT_SG_m, symObjAddr: 0xAA70, symBinAddr: 0x10000E690, symSize: 0xA0 }
  - { offsetInCU: 0x29AE9, offset: 0x29AE9, size: 0x8, addend: 0x0, symName: __ZNSt3__129_AllocatorDestroyRangeReverseINS_9allocatorINS_12basic_stringIcNS_11char_traitsIcEENS1_IcEEEEEEPS6_EC1B7v160006ERS7_RS8_SB_, symObjAddr: 0xAD10, symBinAddr: 0x10000E930, symSize: 0x40 }
  - { offsetInCU: 0x29B40, offset: 0x29B40, size: 0x8, addend: 0x0, symName: __ZNSt3__128__exception_guard_exceptionsINS_29_AllocatorDestroyRangeReverseINS_9allocatorINS_12basic_stringIcNS_11char_traitsIcEENS2_IcEEEEEEPS7_EEE10__completeB7v160006Ev, symObjAddr: 0xAD50, symBinAddr: 0x10000E970, symSize: 0x20 }
  - { offsetInCU: 0x29B66, offset: 0x29B66, size: 0x8, addend: 0x0, symName: __ZNSt3__128__exception_guard_exceptionsINS_29_AllocatorDestroyRangeReverseINS_9allocatorINS_12basic_stringIcNS_11char_traitsIcEENS2_IcEEEEEEPS7_EEED1B7v160006Ev, symObjAddr: 0xAD70, symBinAddr: 0x10000E990, symSize: 0x20 }
  - { offsetInCU: 0x29B90, offset: 0x29B90, size: 0x8, addend: 0x0, symName: __ZNSt3__128__exception_guard_exceptionsINS_29_AllocatorDestroyRangeReverseINS_9allocatorINS_12basic_stringIcNS_11char_traitsIcEENS2_IcEEEEEEPS7_EEEC1B7v160006ESA_, symObjAddr: 0xAD90, symBinAddr: 0x10000E9B0, symSize: 0x40 }
  - { offsetInCU: 0x29BC8, offset: 0x29BC8, size: 0x8, addend: 0x0, symName: __ZNSt3__128__exception_guard_exceptionsINS_29_AllocatorDestroyRangeReverseINS_9allocatorINS_12basic_stringIcNS_11char_traitsIcEENS2_IcEEEEEEPS7_EEEC2B7v160006ESA_, symObjAddr: 0xADD0, symBinAddr: 0x10000E9F0, symSize: 0x30 }
  - { offsetInCU: 0x29C00, offset: 0x29C00, size: 0x8, addend: 0x0, symName: __ZNSt3__129_AllocatorDestroyRangeReverseINS_9allocatorINS_12basic_stringIcNS_11char_traitsIcEENS1_IcEEEEEEPS6_EC2B7v160006ERS7_RS8_SB_, symObjAddr: 0xAE00, symBinAddr: 0x10000EA20, symSize: 0x40 }
  - { offsetInCU: 0x29C57, offset: 0x29C57, size: 0x8, addend: 0x0, symName: __ZNSt3__128__exception_guard_exceptionsINS_29_AllocatorDestroyRangeReverseINS_9allocatorINS_12basic_stringIcNS_11char_traitsIcEENS2_IcEEEEEEPS7_EEED2B7v160006Ev, symObjAddr: 0xAE40, symBinAddr: 0x10000EA60, symSize: 0x40 }
  - { offsetInCU: 0x29C81, offset: 0x29C81, size: 0x8, addend: 0x0, symName: __ZNKSt3__129_AllocatorDestroyRangeReverseINS_9allocatorINS_12basic_stringIcNS_11char_traitsIcEENS1_IcEEEEEEPS6_EclB7v160006Ev, symObjAddr: 0xAE80, symBinAddr: 0x10000EAA0, symSize: 0x60 }
  - { offsetInCU: 0x29CA7, offset: 0x29CA7, size: 0x8, addend: 0x0, symName: __ZNSt3__16vectorINS0_IiNS_9allocatorIiEEEENS1_IS3_EEED2B7v160006Ev, symObjAddr: 0xAF50, symBinAddr: 0x10000EB70, symSize: 0x40 }
  - { offsetInCU: 0x29CD1, offset: 0x29CD1, size: 0x8, addend: 0x0, symName: __ZNSt3__111char_traitsIcE6lengthEPKc, symObjAddr: 0xB180, symBinAddr: 0x10000EDA0, symSize: 0x30 }
  - { offsetInCU: 0x29D17, offset: 0x29D17, size: 0x8, addend: 0x0, symName: __ZNKSt3__113basic_ostreamIcNS_11char_traitsIcEEE6sentrycvbB7v160006Ev, symObjAddr: 0xB1B0, symBinAddr: 0x10000EDD0, symSize: 0x20 }
  - { offsetInCU: 0x29D3D, offset: 0x29D3D, size: 0x8, addend: 0x0, symName: __ZNSt3__119ostreambuf_iteratorIcNS_11char_traitsIcEEEC1B7v160006ERNS_13basic_ostreamIcS2_EE, symObjAddr: 0xB3F0, symBinAddr: 0x10000F010, symSize: 0x30 }
  - { offsetInCU: 0x29D75, offset: 0x29D75, size: 0x8, addend: 0x0, symName: __ZNKSt3__18ios_base5flagsB7v160006Ev, symObjAddr: 0xB420, symBinAddr: 0x10000F040, symSize: 0x20 }
  - { offsetInCU: 0x29D9D, offset: 0x29D9D, size: 0x8, addend: 0x0, symName: __ZNKSt3__19basic_iosIcNS_11char_traitsIcEEE4fillB7v160006Ev, symObjAddr: 0xB440, symBinAddr: 0x10000F060, symSize: 0x70 }
  - { offsetInCU: 0x29DC5, offset: 0x29DC5, size: 0x8, addend: 0x0, symName: __ZNKSt3__119ostreambuf_iteratorIcNS_11char_traitsIcEEE6failedB7v160006Ev, symObjAddr: 0xB4B0, symBinAddr: 0x10000F0D0, symSize: 0x20 }
  - { offsetInCU: 0x29DEB, offset: 0x29DEB, size: 0x8, addend: 0x0, symName: __ZNSt3__115basic_streambufIcNS_11char_traitsIcEEE5sputnB7v160006EPKcl, symObjAddr: 0xB4D0, symBinAddr: 0x10000F0F0, symSize: 0x30 }
  - { offsetInCU: 0x29E2D, offset: 0x29E2D, size: 0x8, addend: 0x0, symName: __ZNSt3__112basic_stringIcNS_11char_traitsIcEENS_9allocatorIcEEEC1B7v160006Emc, symObjAddr: 0xB500, symBinAddr: 0x10000F120, symSize: 0x30 }
  - { offsetInCU: 0x29E75, offset: 0x29E75, size: 0x8, addend: 0x0, symName: __ZNSt3__112basic_stringIcNS_11char_traitsIcEENS_9allocatorIcEEE4dataB7v160006Ev, symObjAddr: 0xB530, symBinAddr: 0x10000F150, symSize: 0x30 }
  - { offsetInCU: 0x29E9B, offset: 0x29E9B, size: 0x8, addend: 0x0, symName: __ZNSt3__112basic_stringIcNS_11char_traitsIcEENS_9allocatorIcEEEC2B7v160006Emc, symObjAddr: 0xB560, symBinAddr: 0x10000F180, symSize: 0x50 }
  - { offsetInCU: 0x29EE3, offset: 0x29EE3, size: 0x8, addend: 0x0, symName: __ZNSt3__119ostreambuf_iteratorIcNS_11char_traitsIcEEEC2B7v160006ERNS_13basic_ostreamIcS2_EE, symObjAddr: 0xB5C0, symBinAddr: 0x10000F1E0, symSize: 0x50 }
  - { offsetInCU: 0x29F1B, offset: 0x29F1B, size: 0x8, addend: 0x0, symName: __ZNKSt3__19basic_iosIcNS_11char_traitsIcEEE5widenB7v160006Ec, symObjAddr: 0xB610, symBinAddr: 0x10000F230, symSize: 0x80 }
  - { offsetInCU: 0x29F52, offset: 0x29F52, size: 0x8, addend: 0x0, symName: __ZNKSt3__15ctypeIcE5widenB7v160006Ec, symObjAddr: 0xB690, symBinAddr: 0x10000F2B0, symSize: 0x30 }
  - { offsetInCU: 0x29F87, offset: 0x29F87, size: 0x8, addend: 0x0, symName: __ZNKSt3__112__hash_tableINS_12basic_stringIcNS_11char_traitsIcEENS_9allocatorIcEEEENS_4hashIS6_EENS_8equal_toIS6_EENS4_IS6_EEE14__count_uniqueIS6_EEmRKT_, symObjAddr: 0xB6E0, symBinAddr: 0x10000F300, symSize: 0x50 }
  - { offsetInCU: 0x29FC7, offset: 0x29FC7, size: 0x8, addend: 0x0, symName: __ZNKSt3__112__hash_tableINS_12basic_stringIcNS_11char_traitsIcEENS_9allocatorIcEEEENS_4hashIS6_EENS_8equal_toIS6_EENS4_IS6_EEE4findIS6_EENS_21__hash_const_iteratorIPNS_11__hash_nodeIS6_PvEEEERKT_, symObjAddr: 0xB730, symBinAddr: 0x10000F350, symSize: 0x190 }
  - { offsetInCU: 0x2A051, offset: 0x2A051, size: 0x8, addend: 0x0, symName: __ZNKSt3__112__hash_tableINS_12basic_stringIcNS_11char_traitsIcEENS_9allocatorIcEEEENS_4hashIS6_EENS_8equal_toIS6_EENS4_IS6_EEE3endEv, symObjAddr: 0xB8C0, symBinAddr: 0x10000F4E0, symSize: 0x30 }
  - { offsetInCU: 0x2A079, offset: 0x2A079, size: 0x8, addend: 0x0, symName: __ZNKSt3__112__hash_tableINS_12basic_stringIcNS_11char_traitsIcEENS_9allocatorIcEEEENS_4hashIS6_EENS_8equal_toIS6_EENS4_IS6_EEE13hash_functionB7v160006Ev, symObjAddr: 0xB8F0, symBinAddr: 0x10000F510, symSize: 0x20 }
  - { offsetInCU: 0x2A09F, offset: 0x2A09F, size: 0x8, addend: 0x0, symName: __ZNKSt3__113__string_hashIcNS_9allocatorIcEEEclERKNS_12basic_stringIcNS_11char_traitsIcEES2_EE, symObjAddr: 0xB910, symBinAddr: 0x10000F530, symSize: 0x60 }
  - { offsetInCU: 0x2A0D4, offset: 0x2A0D4, size: 0x8, addend: 0x0, symName: __ZNKSt3__112__hash_tableINS_12basic_stringIcNS_11char_traitsIcEENS_9allocatorIcEEEENS_4hashIS6_EENS_8equal_toIS6_EENS4_IS6_EEE12bucket_countB7v160006Ev, symObjAddr: 0xB970, symBinAddr: 0x10000F590, symSize: 0x30 }
  - { offsetInCU: 0x2A0FA, offset: 0x2A0FA, size: 0x8, addend: 0x0, symName: __ZNKSt3__110unique_ptrIA_PNS_16__hash_node_baseIPNS_11__hash_nodeINS_12basic_stringIcNS_11char_traitsIcEENS_9allocatorIcEEEEPvEEEENS_25__bucket_list_deallocatorINS6_ISD_EEEEEixB7v160006Em, symObjAddr: 0xBA20, symBinAddr: 0x10000F640, symSize: 0x30 }
  - { offsetInCU: 0x2A12F, offset: 0x2A12F, size: 0x8, addend: 0x0, symName: __ZNKSt3__116__hash_node_baseIPNS_11__hash_nodeINS_12basic_stringIcNS_11char_traitsIcEENS_9allocatorIcEEEEPvEEE6__hashB7v160006Ev, symObjAddr: 0xBA50, symBinAddr: 0x10000F670, symSize: 0x20 }
  - { offsetInCU: 0x2A155, offset: 0x2A155, size: 0x8, addend: 0x0, symName: __ZNKSt3__112__hash_tableINS_12basic_stringIcNS_11char_traitsIcEENS_9allocatorIcEEEENS_4hashIS6_EENS_8equal_toIS6_EENS4_IS6_EEE6key_eqB7v160006Ev, symObjAddr: 0xBA70, symBinAddr: 0x10000F690, symSize: 0x20 }
  - { offsetInCU: 0x2A17B, offset: 0x2A17B, size: 0x8, addend: 0x0, symName: __ZNKSt3__18equal_toINS_12basic_stringIcNS_11char_traitsIcEENS_9allocatorIcEEEEEclB7v160006ERKS6_S9_, symObjAddr: 0xBA90, symBinAddr: 0x10000F6B0, symSize: 0x30 }
  - { offsetInCU: 0x2A1BF, offset: 0x2A1BF, size: 0x8, addend: 0x0, symName: __ZNSt3__116__hash_node_baseIPNS_11__hash_nodeINS_12basic_stringIcNS_11char_traitsIcEENS_9allocatorIcEEEEPvEEE8__upcastB7v160006Ev, symObjAddr: 0xBAC0, symBinAddr: 0x10000F6E0, symSize: 0x20 }
  - { offsetInCU: 0x2A1E5, offset: 0x2A1E5, size: 0x8, addend: 0x0, symName: __ZNSt3__121__hash_const_iteratorIPNS_11__hash_nodeINS_12basic_stringIcNS_11char_traitsIcEENS_9allocatorIcEEEEPvEEEC1B7v160006EPNS_16__hash_node_baseISA_EEPKv, symObjAddr: 0xBAE0, symBinAddr: 0x10000F700, symSize: 0x30 }
  - { offsetInCU: 0x2A22D, offset: 0x2A22D, size: 0x8, addend: 0x0, symName: __ZNKSt3__117__compressed_pairImNS_4hashINS_12basic_stringIcNS_11char_traitsIcEENS_9allocatorIcEEEEEEE6secondB7v160006Ev, symObjAddr: 0xBB10, symBinAddr: 0x10000F730, symSize: 0x20 }
  - { offsetInCU: 0x2A253, offset: 0x2A253, size: 0x8, addend: 0x0, symName: __ZNKSt3__122__compressed_pair_elemINS_4hashINS_12basic_stringIcNS_11char_traitsIcEENS_9allocatorIcEEEEEELi1ELb1EE5__getB7v160006Ev, symObjAddr: 0xBB30, symBinAddr: 0x10000F750, symSize: 0x10 }
  - { offsetInCU: 0x2A279, offset: 0x2A279, size: 0x8, addend: 0x0, symName: __ZNSt3__121__murmur2_or_cityhashImLm64EEclEPKvm, symObjAddr: 0xBB80, symBinAddr: 0x10000F7A0, symSize: 0x3D0 }
  - { offsetInCU: 0x2A312, offset: 0x2A312, size: 0x8, addend: 0x0, symName: __ZNSt3__121__murmur2_or_cityhashImLm64EE18__hash_len_0_to_16EPKcm, symObjAddr: 0xBF50, symBinAddr: 0x10000FB70, symSize: 0x180 }
  - { offsetInCU: 0x2A3EB, offset: 0x2A3EB, size: 0x8, addend: 0x0, symName: __ZNSt3__121__murmur2_or_cityhashImLm64EE19__hash_len_17_to_32EPKcm, symObjAddr: 0xC0D0, symBinAddr: 0x10000FCF0, symSize: 0x100 }
  - { offsetInCU: 0x2A454, offset: 0x2A454, size: 0x8, addend: 0x0, symName: __ZNSt3__121__murmur2_or_cityhashImLm64EE19__hash_len_33_to_64EPKcm, symObjAddr: 0xC1D0, symBinAddr: 0x10000FDF0, symSize: 0x260 }
  - { offsetInCU: 0x2A506, offset: 0x2A506, size: 0x8, addend: 0x0, symName: __ZNSt3__121__murmur2_or_cityhashImLm64EE13__hash_len_16Emm, symObjAddr: 0xC450, symBinAddr: 0x100010070, symSize: 0x90 }
  - { offsetInCU: 0x2A561, offset: 0x2A561, size: 0x8, addend: 0x0, symName: __ZNSt3__121__murmur2_or_cityhashImLm64EE29__weak_hash_len_32_with_seedsEPKcmm, symObjAddr: 0xC4E0, symBinAddr: 0x100010100, symSize: 0x90 }
  - { offsetInCU: 0x2A5A0, offset: 0x2A5A0, size: 0x8, addend: 0x0, symName: __ZNSt3__121__murmur2_or_cityhashImLm64EE8__rotateEmi, symObjAddr: 0xC570, symBinAddr: 0x100010190, symSize: 0x50 }
  - { offsetInCU: 0x2A5D1, offset: 0x2A5D1, size: 0x8, addend: 0x0, symName: __ZNSt3__14pairImmEaSB7v160006EOS1_, symObjAddr: 0xC5C0, symBinAddr: 0x1000101E0, symSize: 0x30 }
  - { offsetInCU: 0x2A606, offset: 0x2A606, size: 0x8, addend: 0x0, symName: __ZNSt3__121__murmur2_or_cityhashImLm64EE11__shift_mixEm, symObjAddr: 0xC630, symBinAddr: 0x100010250, symSize: 0x20 }
  - { offsetInCU: 0x2A629, offset: 0x2A629, size: 0x8, addend: 0x0, symName: __ZNSt3__121__murmur2_or_cityhashImLm64EE22__rotate_by_at_least_1Emi, symObjAddr: 0xC650, symBinAddr: 0x100010270, symSize: 0x30 }
  - { offsetInCU: 0x2A65A, offset: 0x2A65A, size: 0x8, addend: 0x0, symName: __ZNSt3__121__murmur2_or_cityhashImLm64EE29__weak_hash_len_32_with_seedsEmmmmmm, symObjAddr: 0xC6A0, symBinAddr: 0x1000102C0, symSize: 0xD0 }
  - { offsetInCU: 0x2A6D8, offset: 0x2A6D8, size: 0x8, addend: 0x0, symName: __ZNSt3__14pairImmEC1B7v160006ImmLPv0EEEOT_OT0_, symObjAddr: 0xC770, symBinAddr: 0x100010390, symSize: 0x30 }
  - { offsetInCU: 0x2A736, offset: 0x2A736, size: 0x8, addend: 0x0, symName: __ZNSt3__14pairImmEC2B7v160006ImmLPv0EEEOT_OT0_, symObjAddr: 0xC7A0, symBinAddr: 0x1000103C0, symSize: 0x30 }
  - { offsetInCU: 0x2A794, offset: 0x2A794, size: 0x8, addend: 0x0, symName: __ZNKSt3__110unique_ptrIA_PNS_16__hash_node_baseIPNS_11__hash_nodeINS_12basic_stringIcNS_11char_traitsIcEENS_9allocatorIcEEEEPvEEEENS_25__bucket_list_deallocatorINS6_ISD_EEEEE11get_deleterB7v160006Ev, symObjAddr: 0xC7D0, symBinAddr: 0x1000103F0, symSize: 0x20 }
  - { offsetInCU: 0x2A7BA, offset: 0x2A7BA, size: 0x8, addend: 0x0, symName: __ZNKSt3__125__bucket_list_deallocatorINS_9allocatorIPNS_16__hash_node_baseIPNS_11__hash_nodeINS_12basic_stringIcNS_11char_traitsIcEENS1_IcEEEEPvEEEEEEE4sizeB7v160006Ev, symObjAddr: 0xC7F0, symBinAddr: 0x100010410, symSize: 0x20 }
  - { offsetInCU: 0x2A7E0, offset: 0x2A7E0, size: 0x8, addend: 0x0, symName: __ZNKSt3__117__compressed_pairIPPNS_16__hash_node_baseIPNS_11__hash_nodeINS_12basic_stringIcNS_11char_traitsIcEENS_9allocatorIcEEEEPvEEEENS_25__bucket_list_deallocatorINS6_ISD_EEEEE6secondB7v160006Ev, symObjAddr: 0xC810, symBinAddr: 0x100010430, symSize: 0x20 }
  - { offsetInCU: 0x2A806, offset: 0x2A806, size: 0x8, addend: 0x0, symName: __ZNKSt3__122__compressed_pair_elemINS_25__bucket_list_deallocatorINS_9allocatorIPNS_16__hash_node_baseIPNS_11__hash_nodeINS_12basic_stringIcNS_11char_traitsIcEENS2_IcEEEEPvEEEEEEEELi1ELb0EE5__getB7v160006Ev, symObjAddr: 0xC830, symBinAddr: 0x100010450, symSize: 0x10 }
  - { offsetInCU: 0x2A82C, offset: 0x2A82C, size: 0x8, addend: 0x0, symName: __ZNKSt3__117__compressed_pairImNS_9allocatorIPNS_16__hash_node_baseIPNS_11__hash_nodeINS_12basic_stringIcNS_11char_traitsIcEENS1_IcEEEEPvEEEEEEE5firstB7v160006Ev, symObjAddr: 0xC840, symBinAddr: 0x100010460, symSize: 0x20 }
  - { offsetInCU: 0x2A852, offset: 0x2A852, size: 0x8, addend: 0x0, symName: __ZNKSt3__122__compressed_pair_elemImLi0ELb0EE5__getB7v160006Ev, symObjAddr: 0xC860, symBinAddr: 0x100010480, symSize: 0x10 }
  - { offsetInCU: 0x2A878, offset: 0x2A878, size: 0x8, addend: 0x0, symName: __ZNKSt3__117__compressed_pairIPPNS_16__hash_node_baseIPNS_11__hash_nodeINS_12basic_stringIcNS_11char_traitsIcEENS_9allocatorIcEEEEPvEEEENS_25__bucket_list_deallocatorINS6_ISD_EEEEE5firstB7v160006Ev, symObjAddr: 0xC870, symBinAddr: 0x100010490, symSize: 0x20 }
  - { offsetInCU: 0x2A89E, offset: 0x2A89E, size: 0x8, addend: 0x0, symName: __ZNKSt3__122__compressed_pair_elemIPPNS_16__hash_node_baseIPNS_11__hash_nodeINS_12basic_stringIcNS_11char_traitsIcEENS_9allocatorIcEEEEPvEEEELi0ELb0EE5__getB7v160006Ev, symObjAddr: 0xC890, symBinAddr: 0x1000104B0, symSize: 0x10 }
  - { offsetInCU: 0x2A8C4, offset: 0x2A8C4, size: 0x8, addend: 0x0, symName: __ZNKSt3__117__compressed_pairIfNS_8equal_toINS_12basic_stringIcNS_11char_traitsIcEENS_9allocatorIcEEEEEEE6secondB7v160006Ev, symObjAddr: 0xC8A0, symBinAddr: 0x1000104C0, symSize: 0x20 }
  - { offsetInCU: 0x2A8EA, offset: 0x2A8EA, size: 0x8, addend: 0x0, symName: __ZNKSt3__122__compressed_pair_elemINS_8equal_toINS_12basic_stringIcNS_11char_traitsIcEENS_9allocatorIcEEEEEELi1ELb1EE5__getB7v160006Ev, symObjAddr: 0xC8C0, symBinAddr: 0x1000104E0, symSize: 0x10 }
  - { offsetInCU: 0x2A910, offset: 0x2A910, size: 0x8, addend: 0x0, symName: __ZNSt3__114pointer_traitsIPNS_16__hash_node_baseIPNS_11__hash_nodeINS_12basic_stringIcNS_11char_traitsIcEENS_9allocatorIcEEEEPvEEEEE10pointer_toB7v160006ERSC_, symObjAddr: 0xC8D0, symBinAddr: 0x1000104F0, symSize: 0x10 }
  - { offsetInCU: 0x2A933, offset: 0x2A933, size: 0x8, addend: 0x0, symName: __ZNSt3__121__hash_const_iteratorIPNS_11__hash_nodeINS_12basic_stringIcNS_11char_traitsIcEENS_9allocatorIcEEEEPvEEEC2B7v160006EPNS_16__hash_node_baseISA_EEPKv, symObjAddr: 0xC8E0, symBinAddr: 0x100010500, symSize: 0x20 }
  - { offsetInCU: 0x2A97B, offset: 0x2A97B, size: 0x8, addend: 0x0, symName: __ZNSt3__113unordered_mapINS_12basic_stringIcNS_11char_traitsIcEENS_9allocatorIcEEEENS_13unordered_setIS6_NS_4hashIS6_EENS_8equal_toIS6_EENS4_IS6_EEEES9_SB_NS4_INS_4pairIKS6_SD_EEEEEC2B7v160006Ev, symObjAddr: 0xC900, symBinAddr: 0x100010520, symSize: 0x40 }
  - { offsetInCU: 0x2A9A5, offset: 0x2A9A5, size: 0x8, addend: 0x0, symName: __ZNSt3__112__hash_tableINS_17__hash_value_typeINS_12basic_stringIcNS_11char_traitsIcEENS_9allocatorIcEEEENS_13unordered_setIS7_NS_4hashIS7_EENS_8equal_toIS7_EENS5_IS7_EEEEEENS_22__unordered_map_hasherIS7_SF_SA_SC_Lb1EEENS_21__unordered_map_equalIS7_SF_SC_SA_Lb1EEENS5_ISF_EEEC1Ev, symObjAddr: 0xC940, symBinAddr: 0x100010560, symSize: 0x20 }
  - { offsetInCU: 0x2A9D1, offset: 0x2A9D1, size: 0x8, addend: 0x0, symName: __ZNSt3__112__hash_tableINS_17__hash_value_typeINS_12basic_stringIcNS_11char_traitsIcEENS_9allocatorIcEEEENS_13unordered_setIS7_NS_4hashIS7_EENS_8equal_toIS7_EENS5_IS7_EEEEEENS_22__unordered_map_hasherIS7_SF_SA_SC_Lb1EEENS_21__unordered_map_equalIS7_SF_SC_SA_Lb1EEENS5_ISF_EEEC2Ev, symObjAddr: 0xC970, symBinAddr: 0x100010590, symSize: 0x80 }
  - { offsetInCU: 0x2A9FD, offset: 0x2A9FD, size: 0x8, addend: 0x0, symName: __ZNSt3__110unique_ptrIA_PNS_16__hash_node_baseIPNS_11__hash_nodeINS_17__hash_value_typeINS_12basic_stringIcNS_11char_traitsIcEENS_9allocatorIcEEEENS_13unordered_setIS9_NS_4hashIS9_EENS_8equal_toIS9_EENS7_IS9_EEEEEEPvEEEENS_25__bucket_list_deallocatorINS7_ISM_EEEEEC1B7v160006ILb1EvEEv, symObjAddr: 0xC9F0, symBinAddr: 0x100010610, symSize: 0x20 }
  - { offsetInCU: 0x2AA32, offset: 0x2AA32, size: 0x8, addend: 0x0, symName: __ZNSt3__117__compressed_pairINS_16__hash_node_baseIPNS_11__hash_nodeINS_17__hash_value_typeINS_12basic_stringIcNS_11char_traitsIcEENS_9allocatorIcEEEENS_13unordered_setIS9_NS_4hashIS9_EENS_8equal_toIS9_EENS7_IS9_EEEEEEPvEEEENS7_ISJ_EEEC1B7v160006ILb1EvEEv, symObjAddr: 0xCA10, symBinAddr: 0x100010630, symSize: 0x20 }
  - { offsetInCU: 0x2AA6D, offset: 0x2AA6D, size: 0x8, addend: 0x0, symName: __ZNSt3__117__compressed_pairImNS_22__unordered_map_hasherINS_12basic_stringIcNS_11char_traitsIcEENS_9allocatorIcEEEENS_17__hash_value_typeIS7_NS_13unordered_setIS7_NS_4hashIS7_EENS_8equal_toIS7_EENS5_IS7_EEEEEESB_SD_Lb1EEEEC1B7v160006IiNS_18__default_init_tagEEEOT_OT0_, symObjAddr: 0xCA30, symBinAddr: 0x100010650, symSize: 0x30 }
  - { offsetInCU: 0x2AACB, offset: 0x2AACB, size: 0x8, addend: 0x0, symName: __ZNSt3__117__compressed_pairIfNS_21__unordered_map_equalINS_12basic_stringIcNS_11char_traitsIcEENS_9allocatorIcEEEENS_17__hash_value_typeIS7_NS_13unordered_setIS7_NS_4hashIS7_EENS_8equal_toIS7_EENS5_IS7_EEEEEESD_SB_Lb1EEEEC1B7v160006IfNS_18__default_init_tagEEEOT_OT0_, symObjAddr: 0xCA60, symBinAddr: 0x100010680, symSize: 0x30 }
  - { offsetInCU: 0x2AB23, offset: 0x2AB23, size: 0x8, addend: 0x0, symName: __ZNSt3__110unique_ptrIA_PNS_16__hash_node_baseIPNS_11__hash_nodeINS_17__hash_value_typeINS_12basic_stringIcNS_11char_traitsIcEENS_9allocatorIcEEEENS_13unordered_setIS9_NS_4hashIS9_EENS_8equal_toIS9_EENS7_IS9_EEEEEEPvEEEENS_25__bucket_list_deallocatorINS7_ISM_EEEEEC2B7v160006ILb1EvEEv, symObjAddr: 0xCA90, symBinAddr: 0x1000106B0, symSize: 0x30 }
  - { offsetInCU: 0x2AB5E, offset: 0x2AB5E, size: 0x8, addend: 0x0, symName: __ZNSt3__117__compressed_pairIPPNS_16__hash_node_baseIPNS_11__hash_nodeINS_17__hash_value_typeINS_12basic_stringIcNS_11char_traitsIcEENS_9allocatorIcEEEENS_13unordered_setIS9_NS_4hashIS9_EENS_8equal_toIS9_EENS7_IS9_EEEEEEPvEEEENS_25__bucket_list_deallocatorINS7_ISM_EEEEEC1B7v160006INS_16__value_init_tagEST_EEOT_OT0_, symObjAddr: 0xCAC0, symBinAddr: 0x1000106E0, symSize: 0x30 }
  - { offsetInCU: 0x2ABB6, offset: 0x2ABB6, size: 0x8, addend: 0x0, symName: __ZNSt3__117__compressed_pairIPPNS_16__hash_node_baseIPNS_11__hash_nodeINS_17__hash_value_typeINS_12basic_stringIcNS_11char_traitsIcEENS_9allocatorIcEEEENS_13unordered_setIS9_NS_4hashIS9_EENS_8equal_toIS9_EENS7_IS9_EEEEEEPvEEEENS_25__bucket_list_deallocatorINS7_ISM_EEEEEC2B7v160006INS_16__value_init_tagEST_EEOT_OT0_, symObjAddr: 0xCAF0, symBinAddr: 0x100010710, symSize: 0x40 }
  - { offsetInCU: 0x2AC0E, offset: 0x2AC0E, size: 0x8, addend: 0x0, symName: __ZNSt3__122__compressed_pair_elemIPPNS_16__hash_node_baseIPNS_11__hash_nodeINS_17__hash_value_typeINS_12basic_stringIcNS_11char_traitsIcEENS_9allocatorIcEEEENS_13unordered_setIS9_NS_4hashIS9_EENS_8equal_toIS9_EENS7_IS9_EEEEEEPvEEEELi0ELb0EEC2B7v160006ENS_16__value_init_tagE, symObjAddr: 0xCB30, symBinAddr: 0x100010750, symSize: 0x20 }
  - { offsetInCU: 0x2AC43, offset: 0x2AC43, size: 0x8, addend: 0x0, symName: __ZNSt3__122__compressed_pair_elemINS_25__bucket_list_deallocatorINS_9allocatorIPNS_16__hash_node_baseIPNS_11__hash_nodeINS_17__hash_value_typeINS_12basic_stringIcNS_11char_traitsIcEENS2_IcEEEENS_13unordered_setISA_NS_4hashISA_EENS_8equal_toISA_EENS2_ISA_EEEEEEPvEEEEEEEELi1ELb0EEC2B7v160006ENS_16__value_init_tagE, symObjAddr: 0xCB50, symBinAddr: 0x100010770, symSize: 0x20 }
  - { offsetInCU: 0x2AC78, offset: 0x2AC78, size: 0x8, addend: 0x0, symName: __ZNSt3__125__bucket_list_deallocatorINS_9allocatorIPNS_16__hash_node_baseIPNS_11__hash_nodeINS_17__hash_value_typeINS_12basic_stringIcNS_11char_traitsIcEENS1_IcEEEENS_13unordered_setIS9_NS_4hashIS9_EENS_8equal_toIS9_EENS1_IS9_EEEEEEPvEEEEEEEC1B7v160006Ev, symObjAddr: 0xCB70, symBinAddr: 0x100010790, symSize: 0x20 }
  - { offsetInCU: 0x2ACA2, offset: 0x2ACA2, size: 0x8, addend: 0x0, symName: __ZNSt3__125__bucket_list_deallocatorINS_9allocatorIPNS_16__hash_node_baseIPNS_11__hash_nodeINS_17__hash_value_typeINS_12basic_stringIcNS_11char_traitsIcEENS1_IcEEEENS_13unordered_setIS9_NS_4hashIS9_EENS_8equal_toIS9_EENS1_IS9_EEEEEEPvEEEEEEEC2B7v160006Ev, symObjAddr: 0xCB90, symBinAddr: 0x1000107B0, symSize: 0x40 }
  - { offsetInCU: 0x2ACCC, offset: 0x2ACCC, size: 0x8, addend: 0x0, symName: __ZNSt3__117__compressed_pairImNS_9allocatorIPNS_16__hash_node_baseIPNS_11__hash_nodeINS_17__hash_value_typeINS_12basic_stringIcNS_11char_traitsIcEENS1_IcEEEENS_13unordered_setIS9_NS_4hashIS9_EENS_8equal_toIS9_EENS1_IS9_EEEEEEPvEEEEEEEC1B7v160006IiNS_18__default_init_tagEEEOT_OT0_, symObjAddr: 0xCBD0, symBinAddr: 0x1000107F0, symSize: 0x30 }
  - { offsetInCU: 0x2AD24, offset: 0x2AD24, size: 0x8, addend: 0x0, symName: __ZNSt3__117__compressed_pairImNS_9allocatorIPNS_16__hash_node_baseIPNS_11__hash_nodeINS_17__hash_value_typeINS_12basic_stringIcNS_11char_traitsIcEENS1_IcEEEENS_13unordered_setIS9_NS_4hashIS9_EENS_8equal_toIS9_EENS1_IS9_EEEEEEPvEEEEEEEC2B7v160006IiNS_18__default_init_tagEEEOT_OT0_, symObjAddr: 0xCC00, symBinAddr: 0x100010820, symSize: 0x40 }
  - { offsetInCU: 0x2AD7C, offset: 0x2AD7C, size: 0x8, addend: 0x0, symName: __ZNSt3__122__compressed_pair_elemImLi0ELb0EEC2B7v160006IivEEOT_, symObjAddr: 0xCC40, symBinAddr: 0x100010860, symSize: 0x20 }
  - { offsetInCU: 0x2ADBE, offset: 0x2ADBE, size: 0x8, addend: 0x0, symName: __ZNSt3__122__compressed_pair_elemINS_9allocatorIPNS_16__hash_node_baseIPNS_11__hash_nodeINS_17__hash_value_typeINS_12basic_stringIcNS_11char_traitsIcEENS1_IcEEEENS_13unordered_setIS9_NS_4hashIS9_EENS_8equal_toIS9_EENS1_IS9_EEEEEEPvEEEEEELi1ELb1EEC2B7v160006ENS_18__default_init_tagE, symObjAddr: 0xCC60, symBinAddr: 0x100010880, symSize: 0x20 }
  - { offsetInCU: 0x2ADF3, offset: 0x2ADF3, size: 0x8, addend: 0x0, symName: __ZNSt3__19allocatorIPNS_16__hash_node_baseIPNS_11__hash_nodeINS_17__hash_value_typeINS_12basic_stringIcNS_11char_traitsIcEENS0_IcEEEENS_13unordered_setIS8_NS_4hashIS8_EENS_8equal_toIS8_EENS0_IS8_EEEEEEPvEEEEEC2B7v160006Ev, symObjAddr: 0xCC80, symBinAddr: 0x1000108A0, symSize: 0x20 }
  - { offsetInCU: 0x2AE1D, offset: 0x2AE1D, size: 0x8, addend: 0x0, symName: __ZNSt3__116__non_trivial_ifILb1ENS_9allocatorIPNS_16__hash_node_baseIPNS_11__hash_nodeINS_17__hash_value_typeINS_12basic_stringIcNS_11char_traitsIcEENS1_IcEEEENS_13unordered_setIS9_NS_4hashIS9_EENS_8equal_toIS9_EENS1_IS9_EEEEEEPvEEEEEEEC2B7v160006Ev, symObjAddr: 0xCCA0, symBinAddr: 0x1000108C0, symSize: 0x10 }
  - { offsetInCU: 0x2AE47, offset: 0x2AE47, size: 0x8, addend: 0x0, symName: __ZNSt3__117__compressed_pairINS_16__hash_node_baseIPNS_11__hash_nodeINS_17__hash_value_typeINS_12basic_stringIcNS_11char_traitsIcEENS_9allocatorIcEEEENS_13unordered_setIS9_NS_4hashIS9_EENS_8equal_toIS9_EENS7_IS9_EEEEEEPvEEEENS7_ISJ_EEEC2B7v160006ILb1EvEEv, symObjAddr: 0xCCB0, symBinAddr: 0x1000108D0, symSize: 0x30 }
  - { offsetInCU: 0x2AE7C, offset: 0x2AE7C, size: 0x8, addend: 0x0, symName: __ZNSt3__122__compressed_pair_elemINS_16__hash_node_baseIPNS_11__hash_nodeINS_17__hash_value_typeINS_12basic_stringIcNS_11char_traitsIcEENS_9allocatorIcEEEENS_13unordered_setIS9_NS_4hashIS9_EENS_8equal_toIS9_EENS7_IS9_EEEEEEPvEEEELi0ELb0EEC2B7v160006ENS_16__value_init_tagE, symObjAddr: 0xCCE0, symBinAddr: 0x100010900, symSize: 0x20 }
  - { offsetInCU: 0x2AEB1, offset: 0x2AEB1, size: 0x8, addend: 0x0, symName: __ZNSt3__122__compressed_pair_elemINS_9allocatorINS_11__hash_nodeINS_17__hash_value_typeINS_12basic_stringIcNS_11char_traitsIcEENS1_IcEEEENS_13unordered_setIS8_NS_4hashIS8_EENS_8equal_toIS8_EENS1_IS8_EEEEEEPvEEEELi1ELb1EEC2B7v160006ENS_16__value_init_tagE, symObjAddr: 0xCD00, symBinAddr: 0x100010920, symSize: 0x20 }
  - { offsetInCU: 0x2AEE6, offset: 0x2AEE6, size: 0x8, addend: 0x0, symName: __ZNSt3__116__hash_node_baseIPNS_11__hash_nodeINS_17__hash_value_typeINS_12basic_stringIcNS_11char_traitsIcEENS_9allocatorIcEEEENS_13unordered_setIS8_NS_4hashIS8_EENS_8equal_toIS8_EENS6_IS8_EEEEEEPvEEEC1B7v160006Ev, symObjAddr: 0xCD20, symBinAddr: 0x100010940, symSize: 0x20 }
  - { offsetInCU: 0x2AF10, offset: 0x2AF10, size: 0x8, addend: 0x0, symName: __ZNSt3__116__hash_node_baseIPNS_11__hash_nodeINS_17__hash_value_typeINS_12basic_stringIcNS_11char_traitsIcEENS_9allocatorIcEEEENS_13unordered_setIS8_NS_4hashIS8_EENS_8equal_toIS8_EENS6_IS8_EEEEEEPvEEEC2B7v160006Ev, symObjAddr: 0xCD40, symBinAddr: 0x100010960, symSize: 0x20 }
  - { offsetInCU: 0x2AF3A, offset: 0x2AF3A, size: 0x8, addend: 0x0, symName: __ZNSt3__19allocatorINS_11__hash_nodeINS_17__hash_value_typeINS_12basic_stringIcNS_11char_traitsIcEENS0_IcEEEENS_13unordered_setIS7_NS_4hashIS7_EENS_8equal_toIS7_EENS0_IS7_EEEEEEPvEEEC2B7v160006Ev, symObjAddr: 0xCD60, symBinAddr: 0x100010980, symSize: 0x20 }
  - { offsetInCU: 0x2AF64, offset: 0x2AF64, size: 0x8, addend: 0x0, symName: __ZNSt3__116__non_trivial_ifILb1ENS_9allocatorINS_11__hash_nodeINS_17__hash_value_typeINS_12basic_stringIcNS_11char_traitsIcEENS1_IcEEEENS_13unordered_setIS8_NS_4hashIS8_EENS_8equal_toIS8_EENS1_IS8_EEEEEEPvEEEEEC2B7v160006Ev, symObjAddr: 0xCD80, symBinAddr: 0x1000109A0, symSize: 0x10 }
  - { offsetInCU: 0x2AF8E, offset: 0x2AF8E, size: 0x8, addend: 0x0, symName: __ZNSt3__117__compressed_pairImNS_22__unordered_map_hasherINS_12basic_stringIcNS_11char_traitsIcEENS_9allocatorIcEEEENS_17__hash_value_typeIS7_NS_13unordered_setIS7_NS_4hashIS7_EENS_8equal_toIS7_EENS5_IS7_EEEEEESB_SD_Lb1EEEEC2B7v160006IiNS_18__default_init_tagEEEOT_OT0_, symObjAddr: 0xCD90, symBinAddr: 0x1000109B0, symSize: 0x40 }
  - { offsetInCU: 0x2AFE6, offset: 0x2AFE6, size: 0x8, addend: 0x0, symName: __ZNSt3__122__compressed_pair_elemINS_22__unordered_map_hasherINS_12basic_stringIcNS_11char_traitsIcEENS_9allocatorIcEEEENS_17__hash_value_typeIS7_NS_13unordered_setIS7_NS_4hashIS7_EENS_8equal_toIS7_EENS5_IS7_EEEEEESB_SD_Lb1EEELi1ELb1EEC2B7v160006ENS_18__default_init_tagE, symObjAddr: 0xCDD0, symBinAddr: 0x1000109F0, symSize: 0x20 }
  - { offsetInCU: 0x2B01B, offset: 0x2B01B, size: 0x8, addend: 0x0, symName: __ZNSt3__122__unordered_map_hasherINS_12basic_stringIcNS_11char_traitsIcEENS_9allocatorIcEEEENS_17__hash_value_typeIS6_NS_13unordered_setIS6_NS_4hashIS6_EENS_8equal_toIS6_EENS4_IS6_EEEEEESA_SC_Lb1EEC2B7v160006Ev, symObjAddr: 0xCDF0, symBinAddr: 0x100010A10, symSize: 0x10 }
  - { offsetInCU: 0x2B045, offset: 0x2B045, size: 0x8, addend: 0x0, symName: __ZNSt3__117__compressed_pairIfNS_21__unordered_map_equalINS_12basic_stringIcNS_11char_traitsIcEENS_9allocatorIcEEEENS_17__hash_value_typeIS7_NS_13unordered_setIS7_NS_4hashIS7_EENS_8equal_toIS7_EENS5_IS7_EEEEEESD_SB_Lb1EEEEC2B7v160006IfNS_18__default_init_tagEEEOT_OT0_, symObjAddr: 0xCE00, symBinAddr: 0x100010A20, symSize: 0x40 }
  - { offsetInCU: 0x2B09D, offset: 0x2B09D, size: 0x8, addend: 0x0, symName: __ZNSt3__122__compressed_pair_elemIfLi0ELb0EEC2B7v160006IfvEEOT_, symObjAddr: 0xCE40, symBinAddr: 0x100010A60, symSize: 0x20 }
  - { offsetInCU: 0x2B0DF, offset: 0x2B0DF, size: 0x8, addend: 0x0, symName: __ZNSt3__122__compressed_pair_elemINS_21__unordered_map_equalINS_12basic_stringIcNS_11char_traitsIcEENS_9allocatorIcEEEENS_17__hash_value_typeIS7_NS_13unordered_setIS7_NS_4hashIS7_EENS_8equal_toIS7_EENS5_IS7_EEEEEESD_SB_Lb1EEELi1ELb1EEC2B7v160006ENS_18__default_init_tagE, symObjAddr: 0xCE60, symBinAddr: 0x100010A80, symSize: 0x20 }
  - { offsetInCU: 0x2B114, offset: 0x2B114, size: 0x8, addend: 0x0, symName: __ZNSt3__121__unordered_map_equalINS_12basic_stringIcNS_11char_traitsIcEENS_9allocatorIcEEEENS_17__hash_value_typeIS6_NS_13unordered_setIS6_NS_4hashIS6_EENS_8equal_toIS6_EENS4_IS6_EEEEEESC_SA_Lb1EEC2B7v160006Ev, symObjAddr: 0xCE80, symBinAddr: 0x100010AA0, symSize: 0x10 }
  - { offsetInCU: 0x2B13E, offset: 0x2B13E, size: 0x8, addend: 0x0, symName: __ZNSt3__113unordered_mapINS_12basic_stringIcNS_11char_traitsIcEENS_9allocatorIcEEEENS_13unordered_setIS6_NS_4hashIS6_EENS_8equal_toIS6_EENS4_IS6_EEEES9_SB_NS4_INS_4pairIKS6_SD_EEEEED2B7v160006Ev, symObjAddr: 0xCE90, symBinAddr: 0x100010AB0, symSize: 0x20 }
  - { offsetInCU: 0x2B168, offset: 0x2B168, size: 0x8, addend: 0x0, symName: __ZNSt3__112__hash_tableINS_17__hash_value_typeINS_12basic_stringIcNS_11char_traitsIcEENS_9allocatorIcEEEENS_13unordered_setIS7_NS_4hashIS7_EENS_8equal_toIS7_EENS5_IS7_EEEEEENS_22__unordered_map_hasherIS7_SF_SA_SC_Lb1EEENS_21__unordered_map_equalIS7_SF_SC_SA_Lb1EEENS5_ISF_EEED1Ev, symObjAddr: 0xCEB0, symBinAddr: 0x100010AD0, symSize: 0x20 }
  - { offsetInCU: 0x2B194, offset: 0x2B194, size: 0x8, addend: 0x0, symName: __ZNSt3__112__hash_tableINS_17__hash_value_typeINS_12basic_stringIcNS_11char_traitsIcEENS_9allocatorIcEEEENS_13unordered_setIS7_NS_4hashIS7_EENS_8equal_toIS7_EENS5_IS7_EEEEEENS_22__unordered_map_hasherIS7_SF_SA_SC_Lb1EEENS_21__unordered_map_equalIS7_SF_SC_SA_Lb1EEENS5_ISF_EEED2Ev, symObjAddr: 0xCED0, symBinAddr: 0x100010AF0, symSize: 0x50 }
  - { offsetInCU: 0x2B1C0, offset: 0x2B1C0, size: 0x8, addend: 0x0, symName: __ZNSt3__112__hash_tableINS_17__hash_value_typeINS_12basic_stringIcNS_11char_traitsIcEENS_9allocatorIcEEEENS_13unordered_setIS7_NS_4hashIS7_EENS_8equal_toIS7_EENS5_IS7_EEEEEENS_22__unordered_map_hasherIS7_SF_SA_SC_Lb1EEENS_21__unordered_map_equalIS7_SF_SC_SA_Lb1EEENS5_ISF_EEE17__deallocate_nodeEPNS_16__hash_node_baseIPNS_11__hash_nodeISF_PvEEEE, symObjAddr: 0xCF20, symBinAddr: 0x100010B40, symSize: 0xA0 }
  - { offsetInCU: 0x2B22A, offset: 0x2B22A, size: 0x8, addend: 0x0, symName: __ZNSt3__117__compressed_pairINS_16__hash_node_baseIPNS_11__hash_nodeINS_17__hash_value_typeINS_12basic_stringIcNS_11char_traitsIcEENS_9allocatorIcEEEENS_13unordered_setIS9_NS_4hashIS9_EENS_8equal_toIS9_EENS7_IS9_EEEEEEPvEEEENS7_ISJ_EEE5firstB7v160006Ev, symObjAddr: 0xCFC0, symBinAddr: 0x100010BE0, symSize: 0x20 }
  - { offsetInCU: 0x2B250, offset: 0x2B250, size: 0x8, addend: 0x0, symName: __ZNSt3__110unique_ptrIA_PNS_16__hash_node_baseIPNS_11__hash_nodeINS_17__hash_value_typeINS_12basic_stringIcNS_11char_traitsIcEENS_9allocatorIcEEEENS_13unordered_setIS9_NS_4hashIS9_EENS_8equal_toIS9_EENS7_IS9_EEEEEEPvEEEENS_25__bucket_list_deallocatorINS7_ISM_EEEEED1B7v160006Ev, symObjAddr: 0xCFF0, symBinAddr: 0x100010C10, symSize: 0x20 }
  - { offsetInCU: 0x2B27A, offset: 0x2B27A, size: 0x8, addend: 0x0, symName: __ZNSt3__112__hash_tableINS_17__hash_value_typeINS_12basic_stringIcNS_11char_traitsIcEENS_9allocatorIcEEEENS_13unordered_setIS7_NS_4hashIS7_EENS_8equal_toIS7_EENS5_IS7_EEEEEENS_22__unordered_map_hasherIS7_SF_SA_SC_Lb1EEENS_21__unordered_map_equalIS7_SF_SC_SA_Lb1EEENS5_ISF_EEE12__node_allocB7v160006Ev, symObjAddr: 0xD010, symBinAddr: 0x100010C30, symSize: 0x20 }
  - { offsetInCU: 0x2B2A0, offset: 0x2B2A0, size: 0x8, addend: 0x0, symName: __ZNSt3__116__hash_node_baseIPNS_11__hash_nodeINS_17__hash_value_typeINS_12basic_stringIcNS_11char_traitsIcEENS_9allocatorIcEEEENS_13unordered_setIS8_NS_4hashIS8_EENS_8equal_toIS8_EENS6_IS8_EEEEEEPvEEE8__upcastB7v160006Ev, symObjAddr: 0xD030, symBinAddr: 0x100010C50, symSize: 0x20 }
  - { offsetInCU: 0x2B2C6, offset: 0x2B2C6, size: 0x8, addend: 0x0, symName: __ZNSt3__116allocator_traitsINS_9allocatorINS_11__hash_nodeINS_17__hash_value_typeINS_12basic_stringIcNS_11char_traitsIcEENS1_IcEEEENS_13unordered_setIS8_NS_4hashIS8_EENS_8equal_toIS8_EENS1_IS8_EEEEEEPvEEEEE7destroyB7v160006INS_4pairIKS8_SF_EEvvEEvRSJ_PT_, symObjAddr: 0xD050, symBinAddr: 0x100010C70, symSize: 0x20 }
  - { offsetInCU: 0x2B301, offset: 0x2B301, size: 0x8, addend: 0x0, symName: __ZNSt3__122__hash_key_value_typesINS_17__hash_value_typeINS_12basic_stringIcNS_11char_traitsIcEENS_9allocatorIcEEEENS_13unordered_setIS7_NS_4hashIS7_EENS_8equal_toIS7_EENS5_IS7_EEEEEEE9__get_ptrB7v160006ERSF_, symObjAddr: 0xD070, symBinAddr: 0x100010C90, symSize: 0x20 }
  - { offsetInCU: 0x2B324, offset: 0x2B324, size: 0x8, addend: 0x0, symName: __ZNSt3__116allocator_traitsINS_9allocatorINS_11__hash_nodeINS_17__hash_value_typeINS_12basic_stringIcNS_11char_traitsIcEENS1_IcEEEENS_13unordered_setIS8_NS_4hashIS8_EENS_8equal_toIS8_EENS1_IS8_EEEEEEPvEEEEE10deallocateB7v160006ERSJ_PSI_m, symObjAddr: 0xD090, symBinAddr: 0x100010CB0, symSize: 0x30 }
  - { offsetInCU: 0x2B366, offset: 0x2B366, size: 0x8, addend: 0x0, symName: __ZNSt3__117__compressed_pairINS_16__hash_node_baseIPNS_11__hash_nodeINS_17__hash_value_typeINS_12basic_stringIcNS_11char_traitsIcEENS_9allocatorIcEEEENS_13unordered_setIS9_NS_4hashIS9_EENS_8equal_toIS9_EENS7_IS9_EEEEEEPvEEEENS7_ISJ_EEE6secondB7v160006Ev, symObjAddr: 0xD0C0, symBinAddr: 0x100010CE0, symSize: 0x20 }
  - { offsetInCU: 0x2B38C, offset: 0x2B38C, size: 0x8, addend: 0x0, symName: __ZNSt3__122__compressed_pair_elemINS_9allocatorINS_11__hash_nodeINS_17__hash_value_typeINS_12basic_stringIcNS_11char_traitsIcEENS1_IcEEEENS_13unordered_setIS8_NS_4hashIS8_EENS_8equal_toIS8_EENS1_IS8_EEEEEEPvEEEELi1ELb1EE5__getB7v160006Ev, symObjAddr: 0xD0E0, symBinAddr: 0x100010D00, symSize: 0x10 }
  - { offsetInCU: 0x2B3B2, offset: 0x2B3B2, size: 0x8, addend: 0x0, symName: __ZNSt3__114pointer_traitsIPNS_16__hash_node_baseIPNS_11__hash_nodeINS_17__hash_value_typeINS_12basic_stringIcNS_11char_traitsIcEENS_9allocatorIcEEEENS_13unordered_setIS9_NS_4hashIS9_EENS_8equal_toIS9_EENS7_IS9_EEEEEEPvEEEEE10pointer_toB7v160006ERSL_, symObjAddr: 0xD0F0, symBinAddr: 0x100010D10, symSize: 0x10 }
  - { offsetInCU: 0x2B3D5, offset: 0x2B3D5, size: 0x8, addend: 0x0, symName: __ZNSt3__14pairIKNS_12basic_stringIcNS_11char_traitsIcEENS_9allocatorIcEEEENS_13unordered_setIS6_NS_4hashIS6_EENS_8equal_toIS6_EENS4_IS6_EEEEED1Ev, symObjAddr: 0xD140, symBinAddr: 0x100010D60, symSize: 0x20 }
  - { offsetInCU: 0x2B401, offset: 0x2B401, size: 0x8, addend: 0x0, symName: __ZNSt3__14pairIKNS_12basic_stringIcNS_11char_traitsIcEENS_9allocatorIcEEEENS_13unordered_setIS6_NS_4hashIS6_EENS_8equal_toIS6_EENS4_IS6_EEEEED2Ev, symObjAddr: 0xD160, symBinAddr: 0x100010D80, symSize: 0x30 }
  - { offsetInCU: 0x2B42D, offset: 0x2B42D, size: 0x8, addend: 0x0, symName: __ZNSt3__117__hash_value_typeINS_12basic_stringIcNS_11char_traitsIcEENS_9allocatorIcEEEENS_13unordered_setIS6_NS_4hashIS6_EENS_8equal_toIS6_EENS4_IS6_EEEEE11__get_valueB7v160006Ev, symObjAddr: 0xD190, symBinAddr: 0x100010DB0, symSize: 0x20 }
  - { offsetInCU: 0x2B453, offset: 0x2B453, size: 0x8, addend: 0x0, symName: __ZNSt3__19allocatorINS_11__hash_nodeINS_17__hash_value_typeINS_12basic_stringIcNS_11char_traitsIcEENS0_IcEEEENS_13unordered_setIS7_NS_4hashIS7_EENS_8equal_toIS7_EENS0_IS7_EEEEEEPvEEE10deallocateB7v160006EPSH_m, symObjAddr: 0xD1E0, symBinAddr: 0x100010E00, symSize: 0x50 }
  - { offsetInCU: 0x2B495, offset: 0x2B495, size: 0x8, addend: 0x0, symName: __ZNSt3__122__compressed_pair_elemINS_16__hash_node_baseIPNS_11__hash_nodeINS_17__hash_value_typeINS_12basic_stringIcNS_11char_traitsIcEENS_9allocatorIcEEEENS_13unordered_setIS9_NS_4hashIS9_EENS_8equal_toIS9_EENS7_IS9_EEEEEEPvEEEELi0ELb0EE5__getB7v160006Ev, symObjAddr: 0xD230, symBinAddr: 0x100010E50, symSize: 0x10 }
  - { offsetInCU: 0x2B4BB, offset: 0x2B4BB, size: 0x8, addend: 0x0, symName: __ZNSt3__110unique_ptrIA_PNS_16__hash_node_baseIPNS_11__hash_nodeINS_17__hash_value_typeINS_12basic_stringIcNS_11char_traitsIcEENS_9allocatorIcEEEENS_13unordered_setIS9_NS_4hashIS9_EENS_8equal_toIS9_EENS7_IS9_EEEEEEPvEEEENS_25__bucket_list_deallocatorINS7_ISM_EEEEED2B7v160006Ev, symObjAddr: 0xD240, symBinAddr: 0x100010E60, symSize: 0x20 }
  - { offsetInCU: 0x2B4E5, offset: 0x2B4E5, size: 0x8, addend: 0x0, symName: __ZNSt3__110unique_ptrIA_PNS_16__hash_node_baseIPNS_11__hash_nodeINS_17__hash_value_typeINS_12basic_stringIcNS_11char_traitsIcEENS_9allocatorIcEEEENS_13unordered_setIS9_NS_4hashIS9_EENS_8equal_toIS9_EENS7_IS9_EEEEEEPvEEEENS_25__bucket_list_deallocatorINS7_ISM_EEEEE5resetB7v160006EDn, symObjAddr: 0xD260, symBinAddr: 0x100010E80, symSize: 0x60 }
  - { offsetInCU: 0x2B526, offset: 0x2B526, size: 0x8, addend: 0x0, symName: __ZNSt3__117__compressed_pairIPPNS_16__hash_node_baseIPNS_11__hash_nodeINS_17__hash_value_typeINS_12basic_stringIcNS_11char_traitsIcEENS_9allocatorIcEEEENS_13unordered_setIS9_NS_4hashIS9_EENS_8equal_toIS9_EENS7_IS9_EEEEEEPvEEEENS_25__bucket_list_deallocatorINS7_ISM_EEEEE5firstB7v160006Ev, symObjAddr: 0xD2C0, symBinAddr: 0x100010EE0, symSize: 0x20 }
  - { offsetInCU: 0x2B54C, offset: 0x2B54C, size: 0x8, addend: 0x0, symName: __ZNSt3__117__compressed_pairIPPNS_16__hash_node_baseIPNS_11__hash_nodeINS_17__hash_value_typeINS_12basic_stringIcNS_11char_traitsIcEENS_9allocatorIcEEEENS_13unordered_setIS9_NS_4hashIS9_EENS_8equal_toIS9_EENS7_IS9_EEEEEEPvEEEENS_25__bucket_list_deallocatorINS7_ISM_EEEEE6secondB7v160006Ev, symObjAddr: 0xD2E0, symBinAddr: 0x100010F00, symSize: 0x20 }
  - { offsetInCU: 0x2B572, offset: 0x2B572, size: 0x8, addend: 0x0, symName: __ZNSt3__125__bucket_list_deallocatorINS_9allocatorIPNS_16__hash_node_baseIPNS_11__hash_nodeINS_17__hash_value_typeINS_12basic_stringIcNS_11char_traitsIcEENS1_IcEEEENS_13unordered_setIS9_NS_4hashIS9_EENS_8equal_toIS9_EENS1_IS9_EEEEEEPvEEEEEEEclB7v160006EPSM_, symObjAddr: 0xD300, symBinAddr: 0x100010F20, symSize: 0x50 }
  - { offsetInCU: 0x2B5A7, offset: 0x2B5A7, size: 0x8, addend: 0x0, symName: __ZNSt3__122__compressed_pair_elemIPPNS_16__hash_node_baseIPNS_11__hash_nodeINS_17__hash_value_typeINS_12basic_stringIcNS_11char_traitsIcEENS_9allocatorIcEEEENS_13unordered_setIS9_NS_4hashIS9_EENS_8equal_toIS9_EENS7_IS9_EEEEEEPvEEEELi0ELb0EE5__getB7v160006Ev, symObjAddr: 0xD350, symBinAddr: 0x100010F70, symSize: 0x10 }
  - { offsetInCU: 0x2B5CD, offset: 0x2B5CD, size: 0x8, addend: 0x0, symName: __ZNSt3__122__compressed_pair_elemINS_25__bucket_list_deallocatorINS_9allocatorIPNS_16__hash_node_baseIPNS_11__hash_nodeINS_17__hash_value_typeINS_12basic_stringIcNS_11char_traitsIcEENS2_IcEEEENS_13unordered_setISA_NS_4hashISA_EENS_8equal_toISA_EENS2_ISA_EEEEEEPvEEEEEEEELi1ELb0EE5__getB7v160006Ev, symObjAddr: 0xD360, symBinAddr: 0x100010F80, symSize: 0x10 }
  - { offsetInCU: 0x2B5F3, offset: 0x2B5F3, size: 0x8, addend: 0x0, symName: __ZNSt3__116allocator_traitsINS_9allocatorIPNS_16__hash_node_baseIPNS_11__hash_nodeINS_17__hash_value_typeINS_12basic_stringIcNS_11char_traitsIcEENS1_IcEEEENS_13unordered_setIS9_NS_4hashIS9_EENS_8equal_toIS9_EENS1_IS9_EEEEEEPvEEEEEEE10deallocateB7v160006ERSN_PSM_m, symObjAddr: 0xD370, symBinAddr: 0x100010F90, symSize: 0x30 }
  - { offsetInCU: 0x2B635, offset: 0x2B635, size: 0x8, addend: 0x0, symName: __ZNSt3__125__bucket_list_deallocatorINS_9allocatorIPNS_16__hash_node_baseIPNS_11__hash_nodeINS_17__hash_value_typeINS_12basic_stringIcNS_11char_traitsIcEENS1_IcEEEENS_13unordered_setIS9_NS_4hashIS9_EENS_8equal_toIS9_EENS1_IS9_EEEEEEPvEEEEEEE7__allocB7v160006Ev, symObjAddr: 0xD3A0, symBinAddr: 0x100010FC0, symSize: 0x20 }
  - { offsetInCU: 0x2B65B, offset: 0x2B65B, size: 0x8, addend: 0x0, symName: __ZNSt3__125__bucket_list_deallocatorINS_9allocatorIPNS_16__hash_node_baseIPNS_11__hash_nodeINS_17__hash_value_typeINS_12basic_stringIcNS_11char_traitsIcEENS1_IcEEEENS_13unordered_setIS9_NS_4hashIS9_EENS_8equal_toIS9_EENS1_IS9_EEEEEEPvEEEEEEE4sizeB7v160006Ev, symObjAddr: 0xD3C0, symBinAddr: 0x100010FE0, symSize: 0x20 }
  - { offsetInCU: 0x2B681, offset: 0x2B681, size: 0x8, addend: 0x0, symName: __ZNSt3__19allocatorIPNS_16__hash_node_baseIPNS_11__hash_nodeINS_17__hash_value_typeINS_12basic_stringIcNS_11char_traitsIcEENS0_IcEEEENS_13unordered_setIS8_NS_4hashIS8_EENS_8equal_toIS8_EENS0_IS8_EEEEEEPvEEEEE10deallocateB7v160006EPSL_m, symObjAddr: 0xD3E0, symBinAddr: 0x100011000, symSize: 0x40 }
  - { offsetInCU: 0x2B6C3, offset: 0x2B6C3, size: 0x8, addend: 0x0, symName: __ZNSt3__117__compressed_pairImNS_9allocatorIPNS_16__hash_node_baseIPNS_11__hash_nodeINS_17__hash_value_typeINS_12basic_stringIcNS_11char_traitsIcEENS1_IcEEEENS_13unordered_setIS9_NS_4hashIS9_EENS_8equal_toIS9_EENS1_IS9_EEEEEEPvEEEEEEE6secondB7v160006Ev, symObjAddr: 0xD420, symBinAddr: 0x100011040, symSize: 0x20 }
  - { offsetInCU: 0x2B6E9, offset: 0x2B6E9, size: 0x8, addend: 0x0, symName: __ZNSt3__122__compressed_pair_elemINS_9allocatorIPNS_16__hash_node_baseIPNS_11__hash_nodeINS_17__hash_value_typeINS_12basic_stringIcNS_11char_traitsIcEENS1_IcEEEENS_13unordered_setIS9_NS_4hashIS9_EENS_8equal_toIS9_EENS1_IS9_EEEEEEPvEEEEEELi1ELb1EE5__getB7v160006Ev, symObjAddr: 0xD440, symBinAddr: 0x100011060, symSize: 0x10 }
  - { offsetInCU: 0x2B70F, offset: 0x2B70F, size: 0x8, addend: 0x0, symName: __ZNSt3__117__compressed_pairImNS_9allocatorIPNS_16__hash_node_baseIPNS_11__hash_nodeINS_17__hash_value_typeINS_12basic_stringIcNS_11char_traitsIcEENS1_IcEEEENS_13unordered_setIS9_NS_4hashIS9_EENS_8equal_toIS9_EENS1_IS9_EEEEEEPvEEEEEEE5firstB7v160006Ev, symObjAddr: 0xD450, symBinAddr: 0x100011070, symSize: 0x20 }
  - { offsetInCU: 0x2B735, offset: 0x2B735, size: 0x8, addend: 0x0, symName: __ZNSt3__122__compressed_pair_elemImLi0ELb0EE5__getB7v160006Ev, symObjAddr: 0xD470, symBinAddr: 0x100011090, symSize: 0x10 }
  - { offsetInCU: 0x2B75B, offset: 0x2B75B, size: 0x8, addend: 0x0, symName: __ZNSt3__19basic_iosIcNS_11char_traitsIcEEEC2B7v160006Ev, symObjAddr: 0xD480, symBinAddr: 0x1000110A0, symSize: 0x40 }
  - { offsetInCU: 0x2B785, offset: 0x2B785, size: 0x8, addend: 0x0, symName: __ZNSt3__113basic_istreamIcNS_11char_traitsIcEEEC2B7v160006EPNS_15basic_streambufIcS2_EE, symObjAddr: 0xD4C0, symBinAddr: 0x1000110E0, symSize: 0x50 }
  - { offsetInCU: 0x2B7CA, offset: 0x2B7CA, size: 0x8, addend: 0x0, symName: __ZNSt3__113basic_filebufIcNS_11char_traitsIcEEE4openERKNS_12basic_stringIcS2_NS_9allocatorIcEEEEj, symObjAddr: 0xD510, symBinAddr: 0x100011130, symSize: 0x40 }
  - { offsetInCU: 0x2B80E, offset: 0x2B80E, size: 0x8, addend: 0x0, symName: __ZNSt3__18ios_baseC2B7v160006Ev, symObjAddr: 0xD550, symBinAddr: 0x100011170, symSize: 0x20 }
  - { offsetInCU: 0x2B838, offset: 0x2B838, size: 0x8, addend: 0x0, symName: __ZNSt3__19basic_iosIcNS_11char_traitsIcEEE4initB7v160006EPNS_15basic_streambufIcS2_EE, symObjAddr: 0xD570, symBinAddr: 0x100011190, symSize: 0x50 }
  - { offsetInCU: 0x2B86F, offset: 0x2B86F, size: 0x8, addend: 0x0, symName: __ZNKSt3__112basic_stringIcNS_11char_traitsIcEENS_9allocatorIcEEE5c_strB7v160006Ev, symObjAddr: 0xD5C0, symBinAddr: 0x1000111E0, symSize: 0x20 }
  - { offsetInCU: 0x2B895, offset: 0x2B895, size: 0x8, addend: 0x0, symName: __ZNKSt3__113basic_filebufIcNS_11char_traitsIcEEE7is_openEv, symObjAddr: 0xD5E0, symBinAddr: 0x100011200, symSize: 0x20 }
  - { offsetInCU: 0x2B8BD, offset: 0x2B8BD, size: 0x8, addend: 0x0, symName: __ZNSt3__111char_traitsIcE2eqEcc, symObjAddr: 0xD820, symBinAddr: 0x100011440, symSize: 0x30 }
  - { offsetInCU: 0x2B8EE, offset: 0x2B8EE, size: 0x8, addend: 0x0, symName: __ZNSt3__115basic_stringbufIcNS_11char_traitsIcEENS_9allocatorIcEEEC1B7v160006ERKNS_12basic_stringIcS2_S4_EEj, symObjAddr: 0xD850, symBinAddr: 0x100011470, symSize: 0x30 }
  - { offsetInCU: 0x2B934, offset: 0x2B934, size: 0x8, addend: 0x0, symName: __ZNSt3__115basic_stringbufIcNS_11char_traitsIcEENS_9allocatorIcEEEC2B7v160006ERKNS_12basic_stringIcS2_S4_EEj, symObjAddr: 0xD880, symBinAddr: 0x1000114A0, symSize: 0xA0 }
  - { offsetInCU: 0x2B97A, offset: 0x2B97A, size: 0x8, addend: 0x0, symName: __ZNKSt3__112basic_stringIcNS_11char_traitsIcEENS_9allocatorIcEEE13get_allocatorB7v160006Ev, symObjAddr: 0xD920, symBinAddr: 0x100011540, symSize: 0x20 }
  - { offsetInCU: 0x2B9A0, offset: 0x2B9A0, size: 0x8, addend: 0x0, symName: __ZNSt3__112basic_stringIcNS_11char_traitsIcEENS_9allocatorIcEEEC1B7v160006ERKS4_, symObjAddr: 0xD940, symBinAddr: 0x100011560, symSize: 0x30 }
  - { offsetInCU: 0x2B9D9, offset: 0x2B9D9, size: 0x8, addend: 0x0, symName: __ZNSt3__112basic_stringIcNS_11char_traitsIcEENS_9allocatorIcEEEC2B7v160006ERKS4_, symObjAddr: 0xD970, symBinAddr: 0x100011590, symSize: 0x50 }
  - { offsetInCU: 0x2BA12, offset: 0x2BA12, size: 0x8, addend: 0x0, symName: __ZNSt3__117__compressed_pairINS_12basic_stringIcNS_11char_traitsIcEENS_9allocatorIcEEE5__repES5_EC1B7v160006INS_18__default_init_tagERKS5_EEOT_OT0_, symObjAddr: 0xD9C0, symBinAddr: 0x1000115E0, symSize: 0x30 }
  - { offsetInCU: 0x2BA6A, offset: 0x2BA6A, size: 0x8, addend: 0x0, symName: __ZNSt3__117__compressed_pairINS_12basic_stringIcNS_11char_traitsIcEENS_9allocatorIcEEE5__repES5_EC2B7v160006INS_18__default_init_tagERKS5_EEOT_OT0_, symObjAddr: 0xD9F0, symBinAddr: 0x100011610, symSize: 0x40 }
  - { offsetInCU: 0x2BAC2, offset: 0x2BAC2, size: 0x8, addend: 0x0, symName: __ZNSt3__122__compressed_pair_elemINS_9allocatorIcEELi1ELb1EEC2B7v160006IRKS2_vEEOT_, symObjAddr: 0xDA30, symBinAddr: 0x100011650, symSize: 0x10 }
  - { offsetInCU: 0x2BB04, offset: 0x2BB04, size: 0x8, addend: 0x0, symName: __ZNSt3__116istream_iteratorINS_12basic_stringIcNS_11char_traitsIcEENS_9allocatorIcEEEEcS3_lEC2B7v160006ERNS_13basic_istreamIcS3_EE, symObjAddr: 0xDA40, symBinAddr: 0x100011660, symSize: 0xB0 }
  - { offsetInCU: 0x2BB54, offset: 0x2BB54, size: 0x8, addend: 0x0, symName: __ZNSt3__112__hash_tableINS_17__hash_value_typeINS_12basic_stringIcNS_11char_traitsIcEENS_9allocatorIcEEEENS_13unordered_setIS7_NS_4hashIS7_EENS_8equal_toIS7_EENS5_IS7_EEEEEENS_22__unordered_map_hasherIS7_SF_SA_SC_Lb1EEENS_21__unordered_map_equalIS7_SF_SC_SA_Lb1EEENS5_ISF_EEE25__emplace_unique_key_argsIS7_JRKNS_21piecewise_construct_tENS_5tupleIJRKS7_EEENSQ_IJEEEEEENS_4pairINS_15__hash_iteratorIPNS_11__hash_nodeISF_PvEEEEbEERKT_DpOT0_, symObjAddr: 0xDAF0, symBinAddr: 0x100011710, symSize: 0x620 }
  - { offsetInCU: 0x2BC5B, offset: 0x2BC5B, size: 0x8, addend: 0x0, symName: __ZNKSt3__115__hash_iteratorIPNS_11__hash_nodeINS_17__hash_value_typeINS_12basic_stringIcNS_11char_traitsIcEENS_9allocatorIcEEEENS_13unordered_setIS8_NS_4hashIS8_EENS_8equal_toIS8_EENS6_IS8_EEEEEEPvEEEptB7v160006Ev, symObjAddr: 0xE150, symBinAddr: 0x100011D70, symSize: 0x30 }
  - { offsetInCU: 0x2BC81, offset: 0x2BC81, size: 0x8, addend: 0x0, symName: __ZNSt3__112__hash_tableINS_17__hash_value_typeINS_12basic_stringIcNS_11char_traitsIcEENS_9allocatorIcEEEENS_13unordered_setIS7_NS_4hashIS7_EENS_8equal_toIS7_EENS5_IS7_EEEEEENS_22__unordered_map_hasherIS7_SF_SA_SC_Lb1EEENS_21__unordered_map_equalIS7_SF_SC_SA_Lb1EEENS5_ISF_EEE13hash_functionB7v160006Ev, symObjAddr: 0xE180, symBinAddr: 0x100011DA0, symSize: 0x20 }
  - { offsetInCU: 0x2BCA7, offset: 0x2BCA7, size: 0x8, addend: 0x0, symName: __ZNKSt3__122__unordered_map_hasherINS_12basic_stringIcNS_11char_traitsIcEENS_9allocatorIcEEEENS_17__hash_value_typeIS6_NS_13unordered_setIS6_NS_4hashIS6_EENS_8equal_toIS6_EENS4_IS6_EEEEEESA_SC_Lb1EEclB7v160006ERKS6_, symObjAddr: 0xE1A0, symBinAddr: 0x100011DC0, symSize: 0x30 }
  - { offsetInCU: 0x2BCDC, offset: 0x2BCDC, size: 0x8, addend: 0x0, symName: __ZNKSt3__112__hash_tableINS_17__hash_value_typeINS_12basic_stringIcNS_11char_traitsIcEENS_9allocatorIcEEEENS_13unordered_setIS7_NS_4hashIS7_EENS_8equal_toIS7_EENS5_IS7_EEEEEENS_22__unordered_map_hasherIS7_SF_SA_SC_Lb1EEENS_21__unordered_map_equalIS7_SF_SC_SA_Lb1EEENS5_ISF_EEE12bucket_countB7v160006Ev, symObjAddr: 0xE1D0, symBinAddr: 0x100011DF0, symSize: 0x30 }
  - { offsetInCU: 0x2BD02, offset: 0x2BD02, size: 0x8, addend: 0x0, symName: __ZNKSt3__110unique_ptrIA_PNS_16__hash_node_baseIPNS_11__hash_nodeINS_17__hash_value_typeINS_12basic_stringIcNS_11char_traitsIcEENS_9allocatorIcEEEENS_13unordered_setIS9_NS_4hashIS9_EENS_8equal_toIS9_EENS7_IS9_EEEEEEPvEEEENS_25__bucket_list_deallocatorINS7_ISM_EEEEEixB7v160006Em, symObjAddr: 0xE200, symBinAddr: 0x100011E20, symSize: 0x30 }
  - { offsetInCU: 0x2BD37, offset: 0x2BD37, size: 0x8, addend: 0x0, symName: __ZNKSt3__116__hash_node_baseIPNS_11__hash_nodeINS_17__hash_value_typeINS_12basic_stringIcNS_11char_traitsIcEENS_9allocatorIcEEEENS_13unordered_setIS8_NS_4hashIS8_EENS_8equal_toIS8_EENS6_IS8_EEEEEEPvEEE6__hashB7v160006Ev, symObjAddr: 0xE230, symBinAddr: 0x100011E50, symSize: 0x20 }
  - { offsetInCU: 0x2BD5D, offset: 0x2BD5D, size: 0x8, addend: 0x0, symName: __ZNSt3__112__hash_tableINS_17__hash_value_typeINS_12basic_stringIcNS_11char_traitsIcEENS_9allocatorIcEEEENS_13unordered_setIS7_NS_4hashIS7_EENS_8equal_toIS7_EENS5_IS7_EEEEEENS_22__unordered_map_hasherIS7_SF_SA_SC_Lb1EEENS_21__unordered_map_equalIS7_SF_SC_SA_Lb1EEENS5_ISF_EEE6key_eqB7v160006Ev, symObjAddr: 0xE250, symBinAddr: 0x100011E70, symSize: 0x20 }
  - { offsetInCU: 0x2BD83, offset: 0x2BD83, size: 0x8, addend: 0x0, symName: __ZNKSt3__121__unordered_map_equalINS_12basic_stringIcNS_11char_traitsIcEENS_9allocatorIcEEEENS_17__hash_value_typeIS6_NS_13unordered_setIS6_NS_4hashIS6_EENS_8equal_toIS6_EENS4_IS6_EEEEEESC_SA_Lb1EEclB7v160006ERKSF_RKS6_, symObjAddr: 0xE270, symBinAddr: 0x100011E90, symSize: 0x40 }
  - { offsetInCU: 0x2BDC7, offset: 0x2BDC7, size: 0x8, addend: 0x0, symName: __ZNSt3__112__hash_tableINS_17__hash_value_typeINS_12basic_stringIcNS_11char_traitsIcEENS_9allocatorIcEEEENS_13unordered_setIS7_NS_4hashIS7_EENS_8equal_toIS7_EENS5_IS7_EEEEEENS_22__unordered_map_hasherIS7_SF_SA_SC_Lb1EEENS_21__unordered_map_equalIS7_SF_SC_SA_Lb1EEENS5_ISF_EEE21__construct_node_hashIRKNS_21piecewise_construct_tEJNS_5tupleIJRKS7_EEENSQ_IJEEEEEENS_10unique_ptrINS_11__hash_nodeISF_PvEENS_22__hash_node_destructorINS5_ISY_EEEEEEmOT_DpOT0_, symObjAddr: 0xE2B0, symBinAddr: 0x100011ED0, symSize: 0x150 }
  - { offsetInCU: 0x2BE63, offset: 0x2BE63, size: 0x8, addend: 0x0, symName: __ZNSt3__112__hash_tableINS_17__hash_value_typeINS_12basic_stringIcNS_11char_traitsIcEENS_9allocatorIcEEEENS_13unordered_setIS7_NS_4hashIS7_EENS_8equal_toIS7_EENS5_IS7_EEEEEENS_22__unordered_map_hasherIS7_SF_SA_SC_Lb1EEENS_21__unordered_map_equalIS7_SF_SC_SA_Lb1EEENS5_ISF_EEE4sizeB7v160006Ev, symObjAddr: 0xE400, symBinAddr: 0x100012020, symSize: 0x20 }
  - { offsetInCU: 0x2BE89, offset: 0x2BE89, size: 0x8, addend: 0x0, symName: __ZNSt3__112__hash_tableINS_17__hash_value_typeINS_12basic_stringIcNS_11char_traitsIcEENS_9allocatorIcEEEENS_13unordered_setIS7_NS_4hashIS7_EENS_8equal_toIS7_EENS5_IS7_EEEEEENS_22__unordered_map_hasherIS7_SF_SA_SC_Lb1EEENS_21__unordered_map_equalIS7_SF_SC_SA_Lb1EEENS5_ISF_EEE15max_load_factorB7v160006Ev, symObjAddr: 0xE420, symBinAddr: 0x100012040, symSize: 0x20 }
  - { offsetInCU: 0x2BEAF, offset: 0x2BEAF, size: 0x8, addend: 0x0, symName: __ZNSt3__112__hash_tableINS_17__hash_value_typeINS_12basic_stringIcNS_11char_traitsIcEENS_9allocatorIcEEEENS_13unordered_setIS7_NS_4hashIS7_EENS_8equal_toIS7_EENS5_IS7_EEEEEENS_22__unordered_map_hasherIS7_SF_SA_SC_Lb1EEENS_21__unordered_map_equalIS7_SF_SC_SA_Lb1EEENS5_ISF_EEE15__rehash_uniqueB7v160006Em, symObjAddr: 0xE440, symBinAddr: 0x100012060, symSize: 0x30 }
  - { offsetInCU: 0x2BEE3, offset: 0x2BEE3, size: 0x8, addend: 0x0, symName: __Z4ceilB7v160006f, symObjAddr: 0xE4B0, symBinAddr: 0x1000120D0, symSize: 0x20 }
  - { offsetInCU: 0x2BF12, offset: 0x2BF12, size: 0x8, addend: 0x0, symName: __ZNSt3__116__hash_node_baseIPNS_11__hash_nodeINS_17__hash_value_typeINS_12basic_stringIcNS_11char_traitsIcEENS_9allocatorIcEEEENS_13unordered_setIS8_NS_4hashIS8_EENS_8equal_toIS8_EENS6_IS8_EEEEEEPvEEE5__ptrB7v160006Ev, symObjAddr: 0xE4D0, symBinAddr: 0x1000120F0, symSize: 0x20 }
  - { offsetInCU: 0x2BF38, offset: 0x2BF38, size: 0x8, addend: 0x0, symName: __ZNKSt3__110unique_ptrINS_11__hash_nodeINS_17__hash_value_typeINS_12basic_stringIcNS_11char_traitsIcEENS_9allocatorIcEEEENS_13unordered_setIS8_NS_4hashIS8_EENS_8equal_toIS8_EENS6_IS8_EEEEEEPvEENS_22__hash_node_destructorINS6_ISI_EEEEEptB7v160006Ev, symObjAddr: 0xE4F0, symBinAddr: 0x100012110, symSize: 0x20 }
  - { offsetInCU: 0x2BF5E, offset: 0x2BF5E, size: 0x8, addend: 0x0, symName: __ZNKSt3__110unique_ptrINS_11__hash_nodeINS_17__hash_value_typeINS_12basic_stringIcNS_11char_traitsIcEENS_9allocatorIcEEEENS_13unordered_setIS8_NS_4hashIS8_EENS_8equal_toIS8_EENS6_IS8_EEEEEEPvEENS_22__hash_node_destructorINS6_ISI_EEEEE3getB7v160006Ev, symObjAddr: 0xE510, symBinAddr: 0x100012130, symSize: 0x20 }
  - { offsetInCU: 0x2BF84, offset: 0x2BF84, size: 0x8, addend: 0x0, symName: __ZNSt3__110unique_ptrINS_11__hash_nodeINS_17__hash_value_typeINS_12basic_stringIcNS_11char_traitsIcEENS_9allocatorIcEEEENS_13unordered_setIS8_NS_4hashIS8_EENS_8equal_toIS8_EENS6_IS8_EEEEEEPvEENS_22__hash_node_destructorINS6_ISI_EEEEE7releaseB7v160006Ev, symObjAddr: 0xE530, symBinAddr: 0x100012150, symSize: 0x40 }
  - { offsetInCU: 0x2BFB9, offset: 0x2BFB9, size: 0x8, addend: 0x0, symName: __ZNSt3__110unique_ptrINS_11__hash_nodeINS_17__hash_value_typeINS_12basic_stringIcNS_11char_traitsIcEENS_9allocatorIcEEEENS_13unordered_setIS8_NS_4hashIS8_EENS_8equal_toIS8_EENS6_IS8_EEEEEEPvEENS_22__hash_node_destructorINS6_ISI_EEEEED1B7v160006Ev, symObjAddr: 0xE570, symBinAddr: 0x100012190, symSize: 0x20 }
  - { offsetInCU: 0x2BFE3, offset: 0x2BFE3, size: 0x8, addend: 0x0, symName: __ZNSt3__115__hash_iteratorIPNS_11__hash_nodeINS_17__hash_value_typeINS_12basic_stringIcNS_11char_traitsIcEENS_9allocatorIcEEEENS_13unordered_setIS8_NS_4hashIS8_EENS_8equal_toIS8_EENS6_IS8_EEEEEEPvEEEC1B7v160006EPNS_16__hash_node_baseISJ_EEPKv, symObjAddr: 0xE590, symBinAddr: 0x1000121B0, symSize: 0x30 }
  - { offsetInCU: 0x2C031, offset: 0x2C031, size: 0x8, addend: 0x0, symName: __ZNSt3__14pairINS_15__hash_iteratorIPNS_11__hash_nodeINS_17__hash_value_typeINS_12basic_stringIcNS_11char_traitsIcEENS_9allocatorIcEEEENS_13unordered_setIS9_NS_4hashIS9_EENS_8equal_toIS9_EENS7_IS9_EEEEEEPvEEEEbEC1B7v160006ISL_RbLSI_0EEEOT_OT0_, symObjAddr: 0xE5C0, symBinAddr: 0x1000121E0, symSize: 0x30 }
  - { offsetInCU: 0x2C08F, offset: 0x2C08F, size: 0x8, addend: 0x0, symName: __ZNSt3__117__compressed_pairImNS_22__unordered_map_hasherINS_12basic_stringIcNS_11char_traitsIcEENS_9allocatorIcEEEENS_17__hash_value_typeIS7_NS_13unordered_setIS7_NS_4hashIS7_EENS_8equal_toIS7_EENS5_IS7_EEEEEESB_SD_Lb1EEEE6secondB7v160006Ev, symObjAddr: 0xE5F0, symBinAddr: 0x100012210, symSize: 0x20 }
  - { offsetInCU: 0x2C0B5, offset: 0x2C0B5, size: 0x8, addend: 0x0, symName: __ZNSt3__122__compressed_pair_elemINS_22__unordered_map_hasherINS_12basic_stringIcNS_11char_traitsIcEENS_9allocatorIcEEEENS_17__hash_value_typeIS7_NS_13unordered_setIS7_NS_4hashIS7_EENS_8equal_toIS7_EENS5_IS7_EEEEEESB_SD_Lb1EEELi1ELb1EE5__getB7v160006Ev, symObjAddr: 0xE610, symBinAddr: 0x100012230, symSize: 0x10 }
  - { offsetInCU: 0x2C0DB, offset: 0x2C0DB, size: 0x8, addend: 0x0, symName: __ZNKSt3__110unique_ptrIA_PNS_16__hash_node_baseIPNS_11__hash_nodeINS_17__hash_value_typeINS_12basic_stringIcNS_11char_traitsIcEENS_9allocatorIcEEEENS_13unordered_setIS9_NS_4hashIS9_EENS_8equal_toIS9_EENS7_IS9_EEEEEEPvEEEENS_25__bucket_list_deallocatorINS7_ISM_EEEEE11get_deleterB7v160006Ev, symObjAddr: 0xE620, symBinAddr: 0x100012240, symSize: 0x20 }
  - { offsetInCU: 0x2C101, offset: 0x2C101, size: 0x8, addend: 0x0, symName: __ZNKSt3__125__bucket_list_deallocatorINS_9allocatorIPNS_16__hash_node_baseIPNS_11__hash_nodeINS_17__hash_value_typeINS_12basic_stringIcNS_11char_traitsIcEENS1_IcEEEENS_13unordered_setIS9_NS_4hashIS9_EENS_8equal_toIS9_EENS1_IS9_EEEEEEPvEEEEEEE4sizeB7v160006Ev, symObjAddr: 0xE640, symBinAddr: 0x100012260, symSize: 0x20 }
  - { offsetInCU: 0x2C127, offset: 0x2C127, size: 0x8, addend: 0x0, symName: __ZNKSt3__117__compressed_pairIPPNS_16__hash_node_baseIPNS_11__hash_nodeINS_17__hash_value_typeINS_12basic_stringIcNS_11char_traitsIcEENS_9allocatorIcEEEENS_13unordered_setIS9_NS_4hashIS9_EENS_8equal_toIS9_EENS7_IS9_EEEEEEPvEEEENS_25__bucket_list_deallocatorINS7_ISM_EEEEE6secondB7v160006Ev, symObjAddr: 0xE660, symBinAddr: 0x100012280, symSize: 0x20 }
  - { offsetInCU: 0x2C14D, offset: 0x2C14D, size: 0x8, addend: 0x0, symName: __ZNKSt3__122__compressed_pair_elemINS_25__bucket_list_deallocatorINS_9allocatorIPNS_16__hash_node_baseIPNS_11__hash_nodeINS_17__hash_value_typeINS_12basic_stringIcNS_11char_traitsIcEENS2_IcEEEENS_13unordered_setISA_NS_4hashISA_EENS_8equal_toISA_EENS2_ISA_EEEEEEPvEEEEEEEELi1ELb0EE5__getB7v160006Ev, symObjAddr: 0xE680, symBinAddr: 0x1000122A0, symSize: 0x10 }
  - { offsetInCU: 0x2C173, offset: 0x2C173, size: 0x8, addend: 0x0, symName: __ZNKSt3__117__compressed_pairImNS_9allocatorIPNS_16__hash_node_baseIPNS_11__hash_nodeINS_17__hash_value_typeINS_12basic_stringIcNS_11char_traitsIcEENS1_IcEEEENS_13unordered_setIS9_NS_4hashIS9_EENS_8equal_toIS9_EENS1_IS9_EEEEEEPvEEEEEEE5firstB7v160006Ev, symObjAddr: 0xE690, symBinAddr: 0x1000122B0, symSize: 0x20 }
  - { offsetInCU: 0x2C199, offset: 0x2C199, size: 0x8, addend: 0x0, symName: __ZNKSt3__117__compressed_pairIPPNS_16__hash_node_baseIPNS_11__hash_nodeINS_17__hash_value_typeINS_12basic_stringIcNS_11char_traitsIcEENS_9allocatorIcEEEENS_13unordered_setIS9_NS_4hashIS9_EENS_8equal_toIS9_EENS7_IS9_EEEEEEPvEEEENS_25__bucket_list_deallocatorINS7_ISM_EEEEE5firstB7v160006Ev, symObjAddr: 0xE6B0, symBinAddr: 0x1000122D0, symSize: 0x20 }
  - { offsetInCU: 0x2C1BF, offset: 0x2C1BF, size: 0x8, addend: 0x0, symName: __ZNKSt3__122__compressed_pair_elemIPPNS_16__hash_node_baseIPNS_11__hash_nodeINS_17__hash_value_typeINS_12basic_stringIcNS_11char_traitsIcEENS_9allocatorIcEEEENS_13unordered_setIS9_NS_4hashIS9_EENS_8equal_toIS9_EENS7_IS9_EEEEEEPvEEEELi0ELb0EE5__getB7v160006Ev, symObjAddr: 0xE6D0, symBinAddr: 0x1000122F0, symSize: 0x10 }
  - { offsetInCU: 0x2C1E5, offset: 0x2C1E5, size: 0x8, addend: 0x0, symName: __ZNSt3__117__compressed_pairIfNS_21__unordered_map_equalINS_12basic_stringIcNS_11char_traitsIcEENS_9allocatorIcEEEENS_17__hash_value_typeIS7_NS_13unordered_setIS7_NS_4hashIS7_EENS_8equal_toIS7_EENS5_IS7_EEEEEESD_SB_Lb1EEEE6secondB7v160006Ev, symObjAddr: 0xE6E0, symBinAddr: 0x100012300, symSize: 0x20 }
  - { offsetInCU: 0x2C20B, offset: 0x2C20B, size: 0x8, addend: 0x0, symName: __ZNSt3__122__compressed_pair_elemINS_21__unordered_map_equalINS_12basic_stringIcNS_11char_traitsIcEENS_9allocatorIcEEEENS_17__hash_value_typeIS7_NS_13unordered_setIS7_NS_4hashIS7_EENS_8equal_toIS7_EENS5_IS7_EEEEEESD_SB_Lb1EEELi1ELb1EE5__getB7v160006Ev, symObjAddr: 0xE700, symBinAddr: 0x100012320, symSize: 0x10 }
  - { offsetInCU: 0x2C231, offset: 0x2C231, size: 0x8, addend: 0x0, symName: __ZNKSt3__117__hash_value_typeINS_12basic_stringIcNS_11char_traitsIcEENS_9allocatorIcEEEENS_13unordered_setIS6_NS_4hashIS6_EENS_8equal_toIS6_EENS4_IS6_EEEEE11__get_valueB7v160006Ev, symObjAddr: 0xE710, symBinAddr: 0x100012330, symSize: 0x20 }
  - { offsetInCU: 0x2C257, offset: 0x2C257, size: 0x8, addend: 0x0, symName: __ZNSt3__116allocator_traitsINS_9allocatorINS_11__hash_nodeINS_17__hash_value_typeINS_12basic_stringIcNS_11char_traitsIcEENS1_IcEEEENS_13unordered_setIS8_NS_4hashIS8_EENS_8equal_toIS8_EENS1_IS8_EEEEEEPvEEEEE8allocateB7v160006ERSJ_m, symObjAddr: 0xE760, symBinAddr: 0x100012380, symSize: 0x30 }
  - { offsetInCU: 0x2C28A, offset: 0x2C28A, size: 0x8, addend: 0x0, symName: __ZNSt3__122__hash_node_destructorINS_9allocatorINS_11__hash_nodeINS_17__hash_value_typeINS_12basic_stringIcNS_11char_traitsIcEENS1_IcEEEENS_13unordered_setIS8_NS_4hashIS8_EENS_8equal_toIS8_EENS1_IS8_EEEEEEPvEEEEEC1B7v160006ERSJ_b, symObjAddr: 0xE790, symBinAddr: 0x1000123B0, symSize: 0x40 }
  - { offsetInCU: 0x2C2D8, offset: 0x2C2D8, size: 0x8, addend: 0x0, symName: __ZNSt3__110unique_ptrINS_11__hash_nodeINS_17__hash_value_typeINS_12basic_stringIcNS_11char_traitsIcEENS_9allocatorIcEEEENS_13unordered_setIS8_NS_4hashIS8_EENS_8equal_toIS8_EENS6_IS8_EEEEEEPvEENS_22__hash_node_destructorINS6_ISI_EEEEEC1B7v160006ILb1EvEEPSI_NS_16__dependent_typeINS_27__unique_ptr_deleter_sfinaeISL_EEXT_EE20__good_rval_ref_typeE, symObjAddr: 0xE7D0, symBinAddr: 0x1000123F0, symSize: 0x30 }
  - { offsetInCU: 0x2C329, offset: 0x2C329, size: 0x8, addend: 0x0, symName: __ZNSt3__116allocator_traitsINS_9allocatorINS_11__hash_nodeINS_17__hash_value_typeINS_12basic_stringIcNS_11char_traitsIcEENS1_IcEEEENS_13unordered_setIS8_NS_4hashIS8_EENS_8equal_toIS8_EENS1_IS8_EEEEEEPvEEEEE9constructB7v160006INS_4pairIKS8_SF_EEJRKNS_21piecewise_construct_tENS_5tupleIJRSN_EEENSS_IJEEEEvvEEvRSJ_PT_DpOT0_, symObjAddr: 0xE800, symBinAddr: 0x100012420, symSize: 0x40 }
  - { offsetInCU: 0x2C3A6, offset: 0x2C3A6, size: 0x8, addend: 0x0, symName: __ZNSt3__110unique_ptrINS_11__hash_nodeINS_17__hash_value_typeINS_12basic_stringIcNS_11char_traitsIcEENS_9allocatorIcEEEENS_13unordered_setIS8_NS_4hashIS8_EENS_8equal_toIS8_EENS6_IS8_EEEEEEPvEENS_22__hash_node_destructorINS6_ISI_EEEEE11get_deleterB7v160006Ev, symObjAddr: 0xE840, symBinAddr: 0x100012460, symSize: 0x20 }
  - { offsetInCU: 0x2C3CC, offset: 0x2C3CC, size: 0x8, addend: 0x0, symName: __ZNSt3__19allocatorINS_11__hash_nodeINS_17__hash_value_typeINS_12basic_stringIcNS_11char_traitsIcEENS0_IcEEEENS_13unordered_setIS7_NS_4hashIS7_EENS_8equal_toIS7_EENS0_IS7_EEEEEEPvEEE8allocateB7v160006Em, symObjAddr: 0xE860, symBinAddr: 0x100012480, symSize: 0x50 }
  - { offsetInCU: 0x2C40B, offset: 0x2C40B, size: 0x8, addend: 0x0, symName: __ZNSt3__116allocator_traitsINS_9allocatorINS_11__hash_nodeINS_17__hash_value_typeINS_12basic_stringIcNS_11char_traitsIcEENS1_IcEEEENS_13unordered_setIS8_NS_4hashIS8_EENS_8equal_toIS8_EENS1_IS8_EEEEEEPvEEEEE8max_sizeB7v160006ISJ_vvEEmRKSJ_, symObjAddr: 0xE8B0, symBinAddr: 0x1000124D0, symSize: 0x30 }
  - { offsetInCU: 0x2C437, offset: 0x2C437, size: 0x8, addend: 0x0, symName: __ZNSt3__122__hash_node_destructorINS_9allocatorINS_11__hash_nodeINS_17__hash_value_typeINS_12basic_stringIcNS_11char_traitsIcEENS1_IcEEEENS_13unordered_setIS8_NS_4hashIS8_EENS_8equal_toIS8_EENS1_IS8_EEEEEEPvEEEEEC2B7v160006ERSJ_b, symObjAddr: 0xE8E0, symBinAddr: 0x100012500, symSize: 0x30 }
  - { offsetInCU: 0x2C47F, offset: 0x2C47F, size: 0x8, addend: 0x0, symName: __ZNSt3__110unique_ptrINS_11__hash_nodeINS_17__hash_value_typeINS_12basic_stringIcNS_11char_traitsIcEENS_9allocatorIcEEEENS_13unordered_setIS8_NS_4hashIS8_EENS_8equal_toIS8_EENS6_IS8_EEEEEEPvEENS_22__hash_node_destructorINS6_ISI_EEEEEC2B7v160006ILb1EvEEPSI_NS_16__dependent_typeINS_27__unique_ptr_deleter_sfinaeISL_EEXT_EE20__good_rval_ref_typeE, symObjAddr: 0xE910, symBinAddr: 0x100012530, symSize: 0x40 }
  - { offsetInCU: 0x2C4D0, offset: 0x2C4D0, size: 0x8, addend: 0x0, symName: __ZNSt3__117__compressed_pairIPNS_11__hash_nodeINS_17__hash_value_typeINS_12basic_stringIcNS_11char_traitsIcEENS_9allocatorIcEEEENS_13unordered_setIS8_NS_4hashIS8_EENS_8equal_toIS8_EENS6_IS8_EEEEEEPvEENS_22__hash_node_destructorINS6_ISI_EEEEEC1B7v160006IRSJ_SM_EEOT_OT0_, symObjAddr: 0xE950, symBinAddr: 0x100012570, symSize: 0x30 }
  - { offsetInCU: 0x2C528, offset: 0x2C528, size: 0x8, addend: 0x0, symName: __ZNSt3__117__compressed_pairIPNS_11__hash_nodeINS_17__hash_value_typeINS_12basic_stringIcNS_11char_traitsIcEENS_9allocatorIcEEEENS_13unordered_setIS8_NS_4hashIS8_EENS_8equal_toIS8_EENS6_IS8_EEEEEEPvEENS_22__hash_node_destructorINS6_ISI_EEEEEC2B7v160006IRSJ_SM_EEOT_OT0_, symObjAddr: 0xE980, symBinAddr: 0x1000125A0, symSize: 0x40 }
  - { offsetInCU: 0x2C580, offset: 0x2C580, size: 0x8, addend: 0x0, symName: __ZNSt3__122__compressed_pair_elemIPNS_11__hash_nodeINS_17__hash_value_typeINS_12basic_stringIcNS_11char_traitsIcEENS_9allocatorIcEEEENS_13unordered_setIS8_NS_4hashIS8_EENS_8equal_toIS8_EENS6_IS8_EEEEEEPvEELi0ELb0EEC2B7v160006IRSJ_vEEOT_, symObjAddr: 0xE9C0, symBinAddr: 0x1000125E0, symSize: 0x20 }
  - { offsetInCU: 0x2C5C2, offset: 0x2C5C2, size: 0x8, addend: 0x0, symName: __ZNSt3__122__compressed_pair_elemINS_22__hash_node_destructorINS_9allocatorINS_11__hash_nodeINS_17__hash_value_typeINS_12basic_stringIcNS_11char_traitsIcEENS2_IcEEEENS_13unordered_setIS9_NS_4hashIS9_EENS_8equal_toIS9_EENS2_IS9_EEEEEEPvEEEEEELi1ELb0EEC2B7v160006ISL_vEEOT_, symObjAddr: 0xE9E0, symBinAddr: 0x100012600, symSize: 0x30 }
  - { offsetInCU: 0x2C604, offset: 0x2C604, size: 0x8, addend: 0x0, symName: __ZNSt3__14pairIKNS_12basic_stringIcNS_11char_traitsIcEENS_9allocatorIcEEEENS_13unordered_setIS6_NS_4hashIS6_EENS_8equal_toIS6_EENS4_IS6_EEEEEC1B7v160006IJRS7_EJEEENS_21piecewise_construct_tENS_5tupleIJDpT_EEENSJ_IJDpT0_EEE, symObjAddr: 0xEA60, symBinAddr: 0x100012680, symSize: 0x30 }
  - { offsetInCU: 0x2C66B, offset: 0x2C66B, size: 0x8, addend: 0x0, symName: __ZNSt3__14pairIKNS_12basic_stringIcNS_11char_traitsIcEENS_9allocatorIcEEEENS_13unordered_setIS6_NS_4hashIS6_EENS_8equal_toIS6_EENS4_IS6_EEEEEC1B7v160006IJRS7_EJEJLm0EEJEEENS_21piecewise_construct_tERNS_5tupleIJDpT_EEERNSJ_IJDpT0_EEENS_15__tuple_indicesIJXspT1_EEEENSS_IJXspT2_EEEE, symObjAddr: 0xEA90, symBinAddr: 0x1000126B0, symSize: 0x30 }
  - { offsetInCU: 0x2C6FB, offset: 0x2C6FB, size: 0x8, addend: 0x0, symName: __ZNSt3__14pairIKNS_12basic_stringIcNS_11char_traitsIcEENS_9allocatorIcEEEENS_13unordered_setIS6_NS_4hashIS6_EENS_8equal_toIS6_EENS4_IS6_EEEEEC2B7v160006IJRS7_EJEJLm0EEJEEENS_21piecewise_construct_tERNS_5tupleIJDpT_EEERNSJ_IJDpT0_EEENS_15__tuple_indicesIJXspT1_EEEENSS_IJXspT2_EEEE, symObjAddr: 0xEAC0, symBinAddr: 0x1000126E0, symSize: 0x50 }
  - { offsetInCU: 0x2C78B, offset: 0x2C78B, size: 0x8, addend: 0x0, symName: __ZNSt3__112__tuple_leafILm0ERKNS_12basic_stringIcNS_11char_traitsIcEENS_9allocatorIcEEEELb0EE3getB7v160006Ev, symObjAddr: 0xEB30, symBinAddr: 0x100012750, symSize: 0x20 }
  - { offsetInCU: 0x2C7B1, offset: 0x2C7B1, size: 0x8, addend: 0x0, symName: __ZNSt3__117__compressed_pairIPNS_11__hash_nodeINS_17__hash_value_typeINS_12basic_stringIcNS_11char_traitsIcEENS_9allocatorIcEEEENS_13unordered_setIS8_NS_4hashIS8_EENS_8equal_toIS8_EENS6_IS8_EEEEEEPvEENS_22__hash_node_destructorINS6_ISI_EEEEE6secondB7v160006Ev, symObjAddr: 0xEB50, symBinAddr: 0x100012770, symSize: 0x20 }
  - { offsetInCU: 0x2C7D7, offset: 0x2C7D7, size: 0x8, addend: 0x0, symName: __ZNSt3__122__compressed_pair_elemINS_22__hash_node_destructorINS_9allocatorINS_11__hash_nodeINS_17__hash_value_typeINS_12basic_stringIcNS_11char_traitsIcEENS2_IcEEEENS_13unordered_setIS9_NS_4hashIS9_EENS_8equal_toIS9_EENS2_IS9_EEEEEEPvEEEEEELi1ELb0EE5__getB7v160006Ev, symObjAddr: 0xEB70, symBinAddr: 0x100012790, symSize: 0x10 }
  - { offsetInCU: 0x2C7FD, offset: 0x2C7FD, size: 0x8, addend: 0x0, symName: __ZNSt3__117__compressed_pairImNS_22__unordered_map_hasherINS_12basic_stringIcNS_11char_traitsIcEENS_9allocatorIcEEEENS_17__hash_value_typeIS7_NS_13unordered_setIS7_NS_4hashIS7_EENS_8equal_toIS7_EENS5_IS7_EEEEEESB_SD_Lb1EEEE5firstB7v160006Ev, symObjAddr: 0xEB80, symBinAddr: 0x1000127A0, symSize: 0x20 }
  - { offsetInCU: 0x2C823, offset: 0x2C823, size: 0x8, addend: 0x0, symName: __ZNSt3__117__compressed_pairIfNS_21__unordered_map_equalINS_12basic_stringIcNS_11char_traitsIcEENS_9allocatorIcEEEENS_17__hash_value_typeIS7_NS_13unordered_setIS7_NS_4hashIS7_EENS_8equal_toIS7_EENS5_IS7_EEEEEESD_SB_Lb1EEEE5firstB7v160006Ev, symObjAddr: 0xEBA0, symBinAddr: 0x1000127C0, symSize: 0x20 }
  - { offsetInCU: 0x2C849, offset: 0x2C849, size: 0x8, addend: 0x0, symName: __ZNSt3__122__compressed_pair_elemIfLi0ELb0EE5__getB7v160006Ev, symObjAddr: 0xEBC0, symBinAddr: 0x1000127E0, symSize: 0x10 }
  - { offsetInCU: 0x2C86F, offset: 0x2C86F, size: 0x8, addend: 0x0, symName: __ZNSt3__112__hash_tableINS_17__hash_value_typeINS_12basic_stringIcNS_11char_traitsIcEENS_9allocatorIcEEEENS_13unordered_setIS7_NS_4hashIS7_EENS_8equal_toIS7_EENS5_IS7_EEEEEENS_22__unordered_map_hasherIS7_SF_SA_SC_Lb1EEENS_21__unordered_map_equalIS7_SF_SC_SA_Lb1EEENS5_ISF_EEE8__rehashILb1EEEvm, symObjAddr: 0xEBD0, symBinAddr: 0x1000127F0, symSize: 0x230 }
  - { offsetInCU: 0x2C8BF, offset: 0x2C8BF, size: 0x8, addend: 0x0, symName: __ZNSt3__112__hash_tableINS_17__hash_value_typeINS_12basic_stringIcNS_11char_traitsIcEENS_9allocatorIcEEEENS_13unordered_setIS7_NS_4hashIS7_EENS_8equal_toIS7_EENS5_IS7_EEEEEENS_22__unordered_map_hasherIS7_SF_SA_SC_Lb1EEENS_21__unordered_map_equalIS7_SF_SC_SA_Lb1EEENS5_ISF_EEE11__do_rehashILb1EEEvm, symObjAddr: 0xEE00, symBinAddr: 0x100012A20, symSize: 0x260 }
  - { offsetInCU: 0x2C9A2, offset: 0x2C9A2, size: 0x8, addend: 0x0, symName: __ZNSt3__110unique_ptrIA_PNS_16__hash_node_baseIPNS_11__hash_nodeINS_17__hash_value_typeINS_12basic_stringIcNS_11char_traitsIcEENS_9allocatorIcEEEENS_13unordered_setIS9_NS_4hashIS9_EENS_8equal_toIS9_EENS7_IS9_EEEEEEPvEEEENS_25__bucket_list_deallocatorINS7_ISM_EEEEE11get_deleterB7v160006Ev, symObjAddr: 0xF0D0, symBinAddr: 0x100012CF0, symSize: 0x20 }
  - { offsetInCU: 0x2C9C8, offset: 0x2C9C8, size: 0x8, addend: 0x0, symName: __ZNSt3__110unique_ptrIA_PNS_16__hash_node_baseIPNS_11__hash_nodeINS_17__hash_value_typeINS_12basic_stringIcNS_11char_traitsIcEENS_9allocatorIcEEEENS_13unordered_setIS9_NS_4hashIS9_EENS_8equal_toIS9_EENS7_IS9_EEEEEEPvEEEENS_25__bucket_list_deallocatorINS7_ISM_EEEEE5resetB7v160006IPSM_EENS_9enable_ifIXsr28_CheckArrayPointerConversionIT_EE5valueEvE4typeESV_, symObjAddr: 0xF0F0, symBinAddr: 0x100012D10, symSize: 0x70 }
  - { offsetInCU: 0x2CA15, offset: 0x2CA15, size: 0x8, addend: 0x0, symName: __ZNSt3__116allocator_traitsINS_9allocatorIPNS_16__hash_node_baseIPNS_11__hash_nodeINS_17__hash_value_typeINS_12basic_stringIcNS_11char_traitsIcEENS1_IcEEEENS_13unordered_setIS9_NS_4hashIS9_EENS_8equal_toIS9_EENS1_IS9_EEEEEEPvEEEEEEE8allocateB7v160006ERSN_m, symObjAddr: 0xF160, symBinAddr: 0x100012D80, symSize: 0x30 }
  - { offsetInCU: 0x2CA48, offset: 0x2CA48, size: 0x8, addend: 0x0, symName: __ZNSt3__19allocatorIPNS_16__hash_node_baseIPNS_11__hash_nodeINS_17__hash_value_typeINS_12basic_stringIcNS_11char_traitsIcEENS0_IcEEEENS_13unordered_setIS8_NS_4hashIS8_EENS_8equal_toIS8_EENS0_IS8_EEEEEEPvEEEEE8allocateB7v160006Em, symObjAddr: 0xF190, symBinAddr: 0x100012DB0, symSize: 0x50 }
  - { offsetInCU: 0x2CA87, offset: 0x2CA87, size: 0x8, addend: 0x0, symName: __ZNSt3__116allocator_traitsINS_9allocatorIPNS_16__hash_node_baseIPNS_11__hash_nodeINS_17__hash_value_typeINS_12basic_stringIcNS_11char_traitsIcEENS1_IcEEEENS_13unordered_setIS9_NS_4hashIS9_EENS_8equal_toIS9_EENS1_IS9_EEEEEEPvEEEEEEE8max_sizeB7v160006ISN_vvEEmRKSN_, symObjAddr: 0xF1E0, symBinAddr: 0x100012E00, symSize: 0x20 }
  - { offsetInCU: 0x2CAB3, offset: 0x2CAB3, size: 0x8, addend: 0x0, symName: __ZNKSt3__117__compressed_pairIPNS_11__hash_nodeINS_17__hash_value_typeINS_12basic_stringIcNS_11char_traitsIcEENS_9allocatorIcEEEENS_13unordered_setIS8_NS_4hashIS8_EENS_8equal_toIS8_EENS6_IS8_EEEEEEPvEENS_22__hash_node_destructorINS6_ISI_EEEEE5firstB7v160006Ev, symObjAddr: 0xF200, symBinAddr: 0x100012E20, symSize: 0x20 }
  - { offsetInCU: 0x2CAD9, offset: 0x2CAD9, size: 0x8, addend: 0x0, symName: __ZNKSt3__122__compressed_pair_elemIPNS_11__hash_nodeINS_17__hash_value_typeINS_12basic_stringIcNS_11char_traitsIcEENS_9allocatorIcEEEENS_13unordered_setIS8_NS_4hashIS8_EENS_8equal_toIS8_EENS6_IS8_EEEEEEPvEELi0ELb0EE5__getB7v160006Ev, symObjAddr: 0xF220, symBinAddr: 0x100012E40, symSize: 0x10 }
  - { offsetInCU: 0x2CAFF, offset: 0x2CAFF, size: 0x8, addend: 0x0, symName: __ZNSt3__117__compressed_pairIPNS_11__hash_nodeINS_17__hash_value_typeINS_12basic_stringIcNS_11char_traitsIcEENS_9allocatorIcEEEENS_13unordered_setIS8_NS_4hashIS8_EENS_8equal_toIS8_EENS6_IS8_EEEEEEPvEENS_22__hash_node_destructorINS6_ISI_EEEEE5firstB7v160006Ev, symObjAddr: 0xF230, symBinAddr: 0x100012E50, symSize: 0x20 }
  - { offsetInCU: 0x2CB25, offset: 0x2CB25, size: 0x8, addend: 0x0, symName: __ZNSt3__122__compressed_pair_elemIPNS_11__hash_nodeINS_17__hash_value_typeINS_12basic_stringIcNS_11char_traitsIcEENS_9allocatorIcEEEENS_13unordered_setIS8_NS_4hashIS8_EENS_8equal_toIS8_EENS6_IS8_EEEEEEPvEELi0ELb0EE5__getB7v160006Ev, symObjAddr: 0xF250, symBinAddr: 0x100012E70, symSize: 0x10 }
  - { offsetInCU: 0x2CB4B, offset: 0x2CB4B, size: 0x8, addend: 0x0, symName: __ZNSt3__110unique_ptrINS_11__hash_nodeINS_17__hash_value_typeINS_12basic_stringIcNS_11char_traitsIcEENS_9allocatorIcEEEENS_13unordered_setIS8_NS_4hashIS8_EENS_8equal_toIS8_EENS6_IS8_EEEEEEPvEENS_22__hash_node_destructorINS6_ISI_EEEEED2B7v160006Ev, symObjAddr: 0xF260, symBinAddr: 0x100012E80, symSize: 0x20 }
  - { offsetInCU: 0x2CB75, offset: 0x2CB75, size: 0x8, addend: 0x0, symName: __ZNSt3__110unique_ptrINS_11__hash_nodeINS_17__hash_value_typeINS_12basic_stringIcNS_11char_traitsIcEENS_9allocatorIcEEEENS_13unordered_setIS8_NS_4hashIS8_EENS_8equal_toIS8_EENS6_IS8_EEEEEEPvEENS_22__hash_node_destructorINS6_ISI_EEEEE5resetB7v160006EPSI_, symObjAddr: 0xF280, symBinAddr: 0x100012EA0, symSize: 0x70 }
  - { offsetInCU: 0x2CBB9, offset: 0x2CBB9, size: 0x8, addend: 0x0, symName: __ZNSt3__122__hash_node_destructorINS_9allocatorINS_11__hash_nodeINS_17__hash_value_typeINS_12basic_stringIcNS_11char_traitsIcEENS1_IcEEEENS_13unordered_setIS8_NS_4hashIS8_EENS_8equal_toIS8_EENS1_IS8_EEEEEEPvEEEEEclB7v160006EPSI_, symObjAddr: 0xF2F0, symBinAddr: 0x100012F10, symSize: 0x90 }
  - { offsetInCU: 0x2CBEE, offset: 0x2CBEE, size: 0x8, addend: 0x0, symName: __ZNSt3__115__hash_iteratorIPNS_11__hash_nodeINS_17__hash_value_typeINS_12basic_stringIcNS_11char_traitsIcEENS_9allocatorIcEEEENS_13unordered_setIS8_NS_4hashIS8_EENS_8equal_toIS8_EENS6_IS8_EEEEEEPvEEEC2B7v160006EPNS_16__hash_node_baseISJ_EEPKv, symObjAddr: 0xF380, symBinAddr: 0x100012FA0, symSize: 0x20 }
  - { offsetInCU: 0x2CC36, offset: 0x2CC36, size: 0x8, addend: 0x0, symName: __ZNSt3__14pairINS_15__hash_iteratorIPNS_11__hash_nodeINS_17__hash_value_typeINS_12basic_stringIcNS_11char_traitsIcEENS_9allocatorIcEEEENS_13unordered_setIS9_NS_4hashIS9_EENS_8equal_toIS9_EENS7_IS9_EEEEEEPvEEEEbEC2B7v160006ISL_RbLSI_0EEEOT_OT0_, symObjAddr: 0xF3A0, symBinAddr: 0x100012FC0, symSize: 0x30 }
  - { offsetInCU: 0x2CC94, offset: 0x2CC94, size: 0x8, addend: 0x0, symName: __ZNSt3__15tupleIJRKNS_12basic_stringIcNS_11char_traitsIcEENS_9allocatorIcEEEEEEC1B7v160006INS_4_AndELi0EEES8_, symObjAddr: 0xF3D0, symBinAddr: 0x100012FF0, symSize: 0x30 }
  - { offsetInCU: 0x2CCDC, offset: 0x2CCDC, size: 0x8, addend: 0x0, symName: __ZNSt3__15tupleIJRKNS_12basic_stringIcNS_11char_traitsIcEENS_9allocatorIcEEEEEEC2B7v160006INS_4_AndELi0EEES8_, symObjAddr: 0xF400, symBinAddr: 0x100013020, symSize: 0x30 }
  - { offsetInCU: 0x2CD24, offset: 0x2CD24, size: 0x8, addend: 0x0, symName: __ZNSt3__112__tuple_implINS_15__tuple_indicesIJLm0EEEEJRKNS_12basic_stringIcNS_11char_traitsIcEENS_9allocatorIcEEEEEEC1B7v160006IJLm0EEJSA_EJEJEJSA_EEENS1_IJXspT_EEEENS_13__tuple_typesIJDpT0_EEENS1_IJXspT1_EEEENSE_IJDpT2_EEEDpOT3_, symObjAddr: 0xF430, symBinAddr: 0x100013050, symSize: 0x30 }
  - { offsetInCU: 0x2CDB9, offset: 0x2CDB9, size: 0x8, addend: 0x0, symName: __ZNSt3__112__tuple_implINS_15__tuple_indicesIJLm0EEEEJRKNS_12basic_stringIcNS_11char_traitsIcEENS_9allocatorIcEEEEEEC2B7v160006IJLm0EEJSA_EJEJEJSA_EEENS1_IJXspT_EEEENS_13__tuple_typesIJDpT0_EEENS1_IJXspT1_EEEENSE_IJDpT2_EEEDpOT3_, symObjAddr: 0xF460, symBinAddr: 0x100013080, symSize: 0x30 }
  - { offsetInCU: 0x2CE4E, offset: 0x2CE4E, size: 0x8, addend: 0x0, symName: __ZNSt3__112__tuple_leafILm0ERKNS_12basic_stringIcNS_11char_traitsIcEENS_9allocatorIcEEEELb0EEC2B7v160006IS8_vEEOT_, symObjAddr: 0xF490, symBinAddr: 0x1000130B0, symSize: 0x20 }
  - { offsetInCU: 0x2CE91, offset: 0x2CE91, size: 0x8, addend: 0x0, symName: __ZNSt3__114pointer_traitsIPNS_17__hash_value_typeINS_12basic_stringIcNS_11char_traitsIcEENS_9allocatorIcEEEENS_13unordered_setIS7_NS_4hashIS7_EENS_8equal_toIS7_EENS5_IS7_EEEEEEE10pointer_toB7v160006ERSF_, symObjAddr: 0xF4B0, symBinAddr: 0x1000130D0, symSize: 0x10 }
  - { offsetInCU: 0x2CEB4, offset: 0x2CEB4, size: 0x8, addend: 0x0, symName: __ZNSt3__112__hash_tableINS_12basic_stringIcNS_11char_traitsIcEENS_9allocatorIcEEEENS_4hashIS6_EENS_8equal_toIS6_EENS4_IS6_EEE15__insert_uniqueB7v160006EOS6_, symObjAddr: 0xF4C0, symBinAddr: 0x1000130E0, symSize: 0x50 }
  - { offsetInCU: 0x2CEE9, offset: 0x2CEE9, size: 0x8, addend: 0x0, symName: __ZNSt3__14pairINS_21__hash_const_iteratorIPNS_11__hash_nodeINS_12basic_stringIcNS_11char_traitsIcEENS_9allocatorIcEEEEPvEEEEbEC1B7v160006INS_15__hash_iteratorISB_EEbLS9_0EEEONS0_IT_T0_EE, symObjAddr: 0xF510, symBinAddr: 0x100013130, symSize: 0x30 }
  - { offsetInCU: 0x2CF3A, offset: 0x2CF3A, size: 0x8, addend: 0x0, symName: __ZNSt3__112__hash_tableINS_12basic_stringIcNS_11char_traitsIcEENS_9allocatorIcEEEENS_4hashIS6_EENS_8equal_toIS6_EENS4_IS6_EEE25__emplace_unique_key_argsIS6_JS6_EEENS_4pairINS_15__hash_iteratorIPNS_11__hash_nodeIS6_PvEEEEbEERKT_DpOT0_, symObjAddr: 0xF540, symBinAddr: 0x100013160, symSize: 0x590 }
  - { offsetInCU: 0x2D017, offset: 0x2D017, size: 0x8, addend: 0x0, symName: __ZNSt3__122__hash_key_value_typesINS_12basic_stringIcNS_11char_traitsIcEENS_9allocatorIcEEEEE9__get_keyB7v160006ERKS6_, symObjAddr: 0xFAD0, symBinAddr: 0x1000136F0, symSize: 0x10 }
  - { offsetInCU: 0x2D03A, offset: 0x2D03A, size: 0x8, addend: 0x0, symName: __ZNSt3__112__hash_tableINS_12basic_stringIcNS_11char_traitsIcEENS_9allocatorIcEEEENS_4hashIS6_EENS_8equal_toIS6_EENS4_IS6_EEE13hash_functionB7v160006Ev, symObjAddr: 0xFAE0, symBinAddr: 0x100013700, symSize: 0x20 }
  - { offsetInCU: 0x2D060, offset: 0x2D060, size: 0x8, addend: 0x0, symName: __ZNSt3__112__hash_tableINS_12basic_stringIcNS_11char_traitsIcEENS_9allocatorIcEEEENS_4hashIS6_EENS_8equal_toIS6_EENS4_IS6_EEE6key_eqB7v160006Ev, symObjAddr: 0xFB00, symBinAddr: 0x100013720, symSize: 0x20 }
  - { offsetInCU: 0x2D086, offset: 0x2D086, size: 0x8, addend: 0x0, symName: __ZNSt3__112__hash_tableINS_12basic_stringIcNS_11char_traitsIcEENS_9allocatorIcEEEENS_4hashIS6_EENS_8equal_toIS6_EENS4_IS6_EEE21__construct_node_hashIS6_JEEENS_10unique_ptrINS_11__hash_nodeIS6_PvEENS_22__hash_node_destructorINS4_ISH_EEEEEEmOT_DpOT0_, symObjAddr: 0xFB20, symBinAddr: 0x100013740, symSize: 0x140 }
  - { offsetInCU: 0x2D0F9, offset: 0x2D0F9, size: 0x8, addend: 0x0, symName: __ZNSt3__112__hash_tableINS_12basic_stringIcNS_11char_traitsIcEENS_9allocatorIcEEEENS_4hashIS6_EENS_8equal_toIS6_EENS4_IS6_EEE4sizeB7v160006Ev, symObjAddr: 0xFC60, symBinAddr: 0x100013880, symSize: 0x20 }
  - { offsetInCU: 0x2D11F, offset: 0x2D11F, size: 0x8, addend: 0x0, symName: __ZNSt3__112__hash_tableINS_12basic_stringIcNS_11char_traitsIcEENS_9allocatorIcEEEENS_4hashIS6_EENS_8equal_toIS6_EENS4_IS6_EEE15max_load_factorB7v160006Ev, symObjAddr: 0xFC80, symBinAddr: 0x1000138A0, symSize: 0x20 }
  - { offsetInCU: 0x2D145, offset: 0x2D145, size: 0x8, addend: 0x0, symName: __ZNSt3__112__hash_tableINS_12basic_stringIcNS_11char_traitsIcEENS_9allocatorIcEEEENS_4hashIS6_EENS_8equal_toIS6_EENS4_IS6_EEE15__rehash_uniqueB7v160006Em, symObjAddr: 0xFCA0, symBinAddr: 0x1000138C0, symSize: 0x30 }
  - { offsetInCU: 0x2D17A, offset: 0x2D17A, size: 0x8, addend: 0x0, symName: __ZNSt3__117__compressed_pairINS_16__hash_node_baseIPNS_11__hash_nodeINS_12basic_stringIcNS_11char_traitsIcEENS_9allocatorIcEEEEPvEEEENS6_ISA_EEE5firstB7v160006Ev, symObjAddr: 0xFCD0, symBinAddr: 0x1000138F0, symSize: 0x20 }
  - { offsetInCU: 0x2D1A0, offset: 0x2D1A0, size: 0x8, addend: 0x0, symName: __ZNSt3__116__hash_node_baseIPNS_11__hash_nodeINS_12basic_stringIcNS_11char_traitsIcEENS_9allocatorIcEEEEPvEEE5__ptrB7v160006Ev, symObjAddr: 0xFCF0, symBinAddr: 0x100013910, symSize: 0x20 }
  - { offsetInCU: 0x2D1C6, offset: 0x2D1C6, size: 0x8, addend: 0x0, symName: __ZNKSt3__110unique_ptrINS_11__hash_nodeINS_12basic_stringIcNS_11char_traitsIcEENS_9allocatorIcEEEEPvEENS_22__hash_node_destructorINS5_IS9_EEEEEptB7v160006Ev, symObjAddr: 0xFD10, symBinAddr: 0x100013930, symSize: 0x20 }
  - { offsetInCU: 0x2D1EC, offset: 0x2D1EC, size: 0x8, addend: 0x0, symName: __ZNKSt3__110unique_ptrINS_11__hash_nodeINS_12basic_stringIcNS_11char_traitsIcEENS_9allocatorIcEEEEPvEENS_22__hash_node_destructorINS5_IS9_EEEEE3getB7v160006Ev, symObjAddr: 0xFD30, symBinAddr: 0x100013950, symSize: 0x20 }
  - { offsetInCU: 0x2D212, offset: 0x2D212, size: 0x8, addend: 0x0, symName: __ZNSt3__110unique_ptrINS_11__hash_nodeINS_12basic_stringIcNS_11char_traitsIcEENS_9allocatorIcEEEEPvEENS_22__hash_node_destructorINS5_IS9_EEEEE7releaseB7v160006Ev, symObjAddr: 0xFD50, symBinAddr: 0x100013970, symSize: 0x40 }
  - { offsetInCU: 0x2D247, offset: 0x2D247, size: 0x8, addend: 0x0, symName: __ZNSt3__110unique_ptrINS_11__hash_nodeINS_12basic_stringIcNS_11char_traitsIcEENS_9allocatorIcEEEEPvEENS_22__hash_node_destructorINS5_IS9_EEEEED1B7v160006Ev, symObjAddr: 0xFD90, symBinAddr: 0x1000139B0, symSize: 0x20 }
  - { offsetInCU: 0x2D271, offset: 0x2D271, size: 0x8, addend: 0x0, symName: __ZNSt3__115__hash_iteratorIPNS_11__hash_nodeINS_12basic_stringIcNS_11char_traitsIcEENS_9allocatorIcEEEEPvEEEC1B7v160006EPNS_16__hash_node_baseISA_EEPKv, symObjAddr: 0xFDB0, symBinAddr: 0x1000139D0, symSize: 0x30 }
  - { offsetInCU: 0x2D2BF, offset: 0x2D2BF, size: 0x8, addend: 0x0, symName: __ZNSt3__14pairINS_15__hash_iteratorIPNS_11__hash_nodeINS_12basic_stringIcNS_11char_traitsIcEENS_9allocatorIcEEEEPvEEEEbEC1B7v160006ISC_RbLS9_0EEEOT_OT0_, symObjAddr: 0xFDE0, symBinAddr: 0x100013A00, symSize: 0x30 }
  - { offsetInCU: 0x2D31D, offset: 0x2D31D, size: 0x8, addend: 0x0, symName: __ZNSt3__117__compressed_pairImNS_4hashINS_12basic_stringIcNS_11char_traitsIcEENS_9allocatorIcEEEEEEE6secondB7v160006Ev, symObjAddr: 0xFE10, symBinAddr: 0x100013A30, symSize: 0x20 }
  - { offsetInCU: 0x2D343, offset: 0x2D343, size: 0x8, addend: 0x0, symName: __ZNSt3__122__compressed_pair_elemINS_4hashINS_12basic_stringIcNS_11char_traitsIcEENS_9allocatorIcEEEEEELi1ELb1EE5__getB7v160006Ev, symObjAddr: 0xFE30, symBinAddr: 0x100013A50, symSize: 0x10 }
  - { offsetInCU: 0x2D369, offset: 0x2D369, size: 0x8, addend: 0x0, symName: __ZNSt3__117__compressed_pairIfNS_8equal_toINS_12basic_stringIcNS_11char_traitsIcEENS_9allocatorIcEEEEEEE6secondB7v160006Ev, symObjAddr: 0xFE40, symBinAddr: 0x100013A60, symSize: 0x20 }
  - { offsetInCU: 0x2D38F, offset: 0x2D38F, size: 0x8, addend: 0x0, symName: __ZNSt3__122__compressed_pair_elemINS_8equal_toINS_12basic_stringIcNS_11char_traitsIcEENS_9allocatorIcEEEEEELi1ELb1EE5__getB7v160006Ev, symObjAddr: 0xFE60, symBinAddr: 0x100013A80, symSize: 0x10 }
  - { offsetInCU: 0x2D3B5, offset: 0x2D3B5, size: 0x8, addend: 0x0, symName: __ZNSt3__112__hash_tableINS_12basic_stringIcNS_11char_traitsIcEENS_9allocatorIcEEEENS_4hashIS6_EENS_8equal_toIS6_EENS4_IS6_EEE12__node_allocB7v160006Ev, symObjAddr: 0xFE70, symBinAddr: 0x100013A90, symSize: 0x20 }
  - { offsetInCU: 0x2D3DB, offset: 0x2D3DB, size: 0x8, addend: 0x0, symName: __ZNSt3__116allocator_traitsINS_9allocatorINS_11__hash_nodeINS_12basic_stringIcNS_11char_traitsIcEENS1_IcEEEEPvEEEEE8allocateB7v160006ERSA_m, symObjAddr: 0xFE90, symBinAddr: 0x100013AB0, symSize: 0x30 }
  - { offsetInCU: 0x2D40E, offset: 0x2D40E, size: 0x8, addend: 0x0, symName: __ZNSt3__122__hash_node_destructorINS_9allocatorINS_11__hash_nodeINS_12basic_stringIcNS_11char_traitsIcEENS1_IcEEEEPvEEEEEC1B7v160006ERSA_b, symObjAddr: 0xFEC0, symBinAddr: 0x100013AE0, symSize: 0x40 }
  - { offsetInCU: 0x2D45C, offset: 0x2D45C, size: 0x8, addend: 0x0, symName: __ZNSt3__110unique_ptrINS_11__hash_nodeINS_12basic_stringIcNS_11char_traitsIcEENS_9allocatorIcEEEEPvEENS_22__hash_node_destructorINS5_IS9_EEEEEC1B7v160006ILb1EvEEPS9_NS_16__dependent_typeINS_27__unique_ptr_deleter_sfinaeISC_EEXT_EE20__good_rval_ref_typeE, symObjAddr: 0xFF00, symBinAddr: 0x100013B20, symSize: 0x30 }
  - { offsetInCU: 0x2D4AD, offset: 0x2D4AD, size: 0x8, addend: 0x0, symName: __ZNSt3__116allocator_traitsINS_9allocatorINS_11__hash_nodeINS_12basic_stringIcNS_11char_traitsIcEENS1_IcEEEEPvEEEEE9constructB7v160006IS7_JS7_EvvEEvRSA_PT_DpOT0_, symObjAddr: 0xFF30, symBinAddr: 0x100013B50, symSize: 0x30 }
  - { offsetInCU: 0x2D502, offset: 0x2D502, size: 0x8, addend: 0x0, symName: __ZNSt3__122__hash_key_value_typesINS_12basic_stringIcNS_11char_traitsIcEENS_9allocatorIcEEEEE9__get_ptrB7v160006ERS6_, symObjAddr: 0xFF60, symBinAddr: 0x100013B80, symSize: 0x10 }
  - { offsetInCU: 0x2D525, offset: 0x2D525, size: 0x8, addend: 0x0, symName: __ZNSt3__110unique_ptrINS_11__hash_nodeINS_12basic_stringIcNS_11char_traitsIcEENS_9allocatorIcEEEEPvEENS_22__hash_node_destructorINS5_IS9_EEEEE11get_deleterB7v160006Ev, symObjAddr: 0xFF70, symBinAddr: 0x100013B90, symSize: 0x20 }
  - { offsetInCU: 0x2D54B, offset: 0x2D54B, size: 0x8, addend: 0x0, symName: __ZNSt3__117__compressed_pairINS_16__hash_node_baseIPNS_11__hash_nodeINS_12basic_stringIcNS_11char_traitsIcEENS_9allocatorIcEEEEPvEEEENS6_ISA_EEE6secondB7v160006Ev, symObjAddr: 0xFF90, symBinAddr: 0x100013BB0, symSize: 0x20 }
  - { offsetInCU: 0x2D571, offset: 0x2D571, size: 0x8, addend: 0x0, symName: __ZNSt3__122__compressed_pair_elemINS_9allocatorINS_11__hash_nodeINS_12basic_stringIcNS_11char_traitsIcEENS1_IcEEEEPvEEEELi1ELb1EE5__getB7v160006Ev, symObjAddr: 0xFFB0, symBinAddr: 0x100013BD0, symSize: 0x10 }
  - { offsetInCU: 0x2D597, offset: 0x2D597, size: 0x8, addend: 0x0, symName: __ZNSt3__19allocatorINS_11__hash_nodeINS_12basic_stringIcNS_11char_traitsIcEENS0_IcEEEEPvEEE8allocateB7v160006Em, symObjAddr: 0xFFC0, symBinAddr: 0x100013BE0, symSize: 0x50 }
  - { offsetInCU: 0x2D5D6, offset: 0x2D5D6, size: 0x8, addend: 0x0, symName: __ZNSt3__116allocator_traitsINS_9allocatorINS_11__hash_nodeINS_12basic_stringIcNS_11char_traitsIcEENS1_IcEEEEPvEEEEE8max_sizeB7v160006ISA_vvEEmRKSA_, symObjAddr: 0x10010, symBinAddr: 0x100013C30, symSize: 0x30 }
  - { offsetInCU: 0x2D602, offset: 0x2D602, size: 0x8, addend: 0x0, symName: __ZNSt3__122__hash_node_destructorINS_9allocatorINS_11__hash_nodeINS_12basic_stringIcNS_11char_traitsIcEENS1_IcEEEEPvEEEEEC2B7v160006ERSA_b, symObjAddr: 0x10040, symBinAddr: 0x100013C60, symSize: 0x30 }
  - { offsetInCU: 0x2D64A, offset: 0x2D64A, size: 0x8, addend: 0x0, symName: __ZNSt3__110unique_ptrINS_11__hash_nodeINS_12basic_stringIcNS_11char_traitsIcEENS_9allocatorIcEEEEPvEENS_22__hash_node_destructorINS5_IS9_EEEEEC2B7v160006ILb1EvEEPS9_NS_16__dependent_typeINS_27__unique_ptr_deleter_sfinaeISC_EEXT_EE20__good_rval_ref_typeE, symObjAddr: 0x10070, symBinAddr: 0x100013C90, symSize: 0x40 }
  - { offsetInCU: 0x2D69B, offset: 0x2D69B, size: 0x8, addend: 0x0, symName: __ZNSt3__117__compressed_pairIPNS_11__hash_nodeINS_12basic_stringIcNS_11char_traitsIcEENS_9allocatorIcEEEEPvEENS_22__hash_node_destructorINS5_IS9_EEEEEC1B7v160006IRSA_SD_EEOT_OT0_, symObjAddr: 0x100B0, symBinAddr: 0x100013CD0, symSize: 0x30 }
  - { offsetInCU: 0x2D6F3, offset: 0x2D6F3, size: 0x8, addend: 0x0, symName: __ZNSt3__117__compressed_pairIPNS_11__hash_nodeINS_12basic_stringIcNS_11char_traitsIcEENS_9allocatorIcEEEEPvEENS_22__hash_node_destructorINS5_IS9_EEEEEC2B7v160006IRSA_SD_EEOT_OT0_, symObjAddr: 0x100E0, symBinAddr: 0x100013D00, symSize: 0x40 }
  - { offsetInCU: 0x2D74B, offset: 0x2D74B, size: 0x8, addend: 0x0, symName: __ZNSt3__122__compressed_pair_elemIPNS_11__hash_nodeINS_12basic_stringIcNS_11char_traitsIcEENS_9allocatorIcEEEEPvEELi0ELb0EEC2B7v160006IRSA_vEEOT_, symObjAddr: 0x10120, symBinAddr: 0x100013D40, symSize: 0x20 }
  - { offsetInCU: 0x2D78D, offset: 0x2D78D, size: 0x8, addend: 0x0, symName: __ZNSt3__122__compressed_pair_elemINS_22__hash_node_destructorINS_9allocatorINS_11__hash_nodeINS_12basic_stringIcNS_11char_traitsIcEENS2_IcEEEEPvEEEEEELi1ELb0EEC2B7v160006ISC_vEEOT_, symObjAddr: 0x10140, symBinAddr: 0x100013D60, symSize: 0x30 }
  - { offsetInCU: 0x2D7CF, offset: 0x2D7CF, size: 0x8, addend: 0x0, symName: __ZNSt3__117__compressed_pairIPNS_11__hash_nodeINS_12basic_stringIcNS_11char_traitsIcEENS_9allocatorIcEEEEPvEENS_22__hash_node_destructorINS5_IS9_EEEEE6secondB7v160006Ev, symObjAddr: 0x10170, symBinAddr: 0x100013D90, symSize: 0x20 }
  - { offsetInCU: 0x2D7F5, offset: 0x2D7F5, size: 0x8, addend: 0x0, symName: __ZNSt3__122__compressed_pair_elemINS_22__hash_node_destructorINS_9allocatorINS_11__hash_nodeINS_12basic_stringIcNS_11char_traitsIcEENS2_IcEEEEPvEEEEEELi1ELb0EE5__getB7v160006Ev, symObjAddr: 0x10190, symBinAddr: 0x100013DB0, symSize: 0x10 }
  - { offsetInCU: 0x2D81B, offset: 0x2D81B, size: 0x8, addend: 0x0, symName: __ZNSt3__117__compressed_pairImNS_4hashINS_12basic_stringIcNS_11char_traitsIcEENS_9allocatorIcEEEEEEE5firstB7v160006Ev, symObjAddr: 0x101A0, symBinAddr: 0x100013DC0, symSize: 0x20 }
  - { offsetInCU: 0x2D841, offset: 0x2D841, size: 0x8, addend: 0x0, symName: __ZNSt3__117__compressed_pairIfNS_8equal_toINS_12basic_stringIcNS_11char_traitsIcEENS_9allocatorIcEEEEEEE5firstB7v160006Ev, symObjAddr: 0x101C0, symBinAddr: 0x100013DE0, symSize: 0x20 }
  - { offsetInCU: 0x2D867, offset: 0x2D867, size: 0x8, addend: 0x0, symName: __ZNSt3__112__hash_tableINS_12basic_stringIcNS_11char_traitsIcEENS_9allocatorIcEEEENS_4hashIS6_EENS_8equal_toIS6_EENS4_IS6_EEE8__rehashILb1EEEvm, symObjAddr: 0x101E0, symBinAddr: 0x100013E00, symSize: 0x230 }
  - { offsetInCU: 0x2D8B7, offset: 0x2D8B7, size: 0x8, addend: 0x0, symName: __ZNSt3__112__hash_tableINS_12basic_stringIcNS_11char_traitsIcEENS_9allocatorIcEEEENS_4hashIS6_EENS_8equal_toIS6_EENS4_IS6_EEE11__do_rehashILb1EEEvm, symObjAddr: 0x10410, symBinAddr: 0x100014030, symSize: 0x260 }
  - { offsetInCU: 0x2D99A, offset: 0x2D99A, size: 0x8, addend: 0x0, symName: __ZNSt3__110unique_ptrIA_PNS_16__hash_node_baseIPNS_11__hash_nodeINS_12basic_stringIcNS_11char_traitsIcEENS_9allocatorIcEEEEPvEEEENS_25__bucket_list_deallocatorINS6_ISD_EEEEE11get_deleterB7v160006Ev, symObjAddr: 0x10680, symBinAddr: 0x1000142A0, symSize: 0x20 }
  - { offsetInCU: 0x2D9C0, offset: 0x2D9C0, size: 0x8, addend: 0x0, symName: __ZNSt3__125__bucket_list_deallocatorINS_9allocatorIPNS_16__hash_node_baseIPNS_11__hash_nodeINS_12basic_stringIcNS_11char_traitsIcEENS1_IcEEEEPvEEEEEEE7__allocB7v160006Ev, symObjAddr: 0x106A0, symBinAddr: 0x1000142C0, symSize: 0x20 }
  - { offsetInCU: 0x2D9E6, offset: 0x2D9E6, size: 0x8, addend: 0x0, symName: __ZNSt3__110unique_ptrIA_PNS_16__hash_node_baseIPNS_11__hash_nodeINS_12basic_stringIcNS_11char_traitsIcEENS_9allocatorIcEEEEPvEEEENS_25__bucket_list_deallocatorINS6_ISD_EEEEE5resetB7v160006IPSD_EENS_9enable_ifIXsr28_CheckArrayPointerConversionIT_EE5valueEvE4typeESM_, symObjAddr: 0x106C0, symBinAddr: 0x1000142E0, symSize: 0x70 }
  - { offsetInCU: 0x2DA33, offset: 0x2DA33, size: 0x8, addend: 0x0, symName: __ZNSt3__116allocator_traitsINS_9allocatorIPNS_16__hash_node_baseIPNS_11__hash_nodeINS_12basic_stringIcNS_11char_traitsIcEENS1_IcEEEEPvEEEEEEE8allocateB7v160006ERSE_m, symObjAddr: 0x10730, symBinAddr: 0x100014350, symSize: 0x30 }
  - { offsetInCU: 0x2DA66, offset: 0x2DA66, size: 0x8, addend: 0x0, symName: __ZNSt3__125__bucket_list_deallocatorINS_9allocatorIPNS_16__hash_node_baseIPNS_11__hash_nodeINS_12basic_stringIcNS_11char_traitsIcEENS1_IcEEEEPvEEEEEEE4sizeB7v160006Ev, symObjAddr: 0x10760, symBinAddr: 0x100014380, symSize: 0x20 }
  - { offsetInCU: 0x2DA8C, offset: 0x2DA8C, size: 0x8, addend: 0x0, symName: __ZNSt3__117__compressed_pairIPPNS_16__hash_node_baseIPNS_11__hash_nodeINS_12basic_stringIcNS_11char_traitsIcEENS_9allocatorIcEEEEPvEEEENS_25__bucket_list_deallocatorINS6_ISD_EEEEE6secondB7v160006Ev, symObjAddr: 0x10780, symBinAddr: 0x1000143A0, symSize: 0x20 }
  - { offsetInCU: 0x2DAB2, offset: 0x2DAB2, size: 0x8, addend: 0x0, symName: __ZNSt3__122__compressed_pair_elemINS_25__bucket_list_deallocatorINS_9allocatorIPNS_16__hash_node_baseIPNS_11__hash_nodeINS_12basic_stringIcNS_11char_traitsIcEENS2_IcEEEEPvEEEEEEEELi1ELb0EE5__getB7v160006Ev, symObjAddr: 0x107A0, symBinAddr: 0x1000143C0, symSize: 0x10 }
  - { offsetInCU: 0x2DAD8, offset: 0x2DAD8, size: 0x8, addend: 0x0, symName: __ZNSt3__117__compressed_pairImNS_9allocatorIPNS_16__hash_node_baseIPNS_11__hash_nodeINS_12basic_stringIcNS_11char_traitsIcEENS1_IcEEEEPvEEEEEEE6secondB7v160006Ev, symObjAddr: 0x107B0, symBinAddr: 0x1000143D0, symSize: 0x20 }
  - { offsetInCU: 0x2DAFE, offset: 0x2DAFE, size: 0x8, addend: 0x0, symName: __ZNSt3__122__compressed_pair_elemINS_9allocatorIPNS_16__hash_node_baseIPNS_11__hash_nodeINS_12basic_stringIcNS_11char_traitsIcEENS1_IcEEEEPvEEEEEELi1ELb1EE5__getB7v160006Ev, symObjAddr: 0x107D0, symBinAddr: 0x1000143F0, symSize: 0x10 }
  - { offsetInCU: 0x2DB24, offset: 0x2DB24, size: 0x8, addend: 0x0, symName: __ZNSt3__117__compressed_pairIPPNS_16__hash_node_baseIPNS_11__hash_nodeINS_12basic_stringIcNS_11char_traitsIcEENS_9allocatorIcEEEEPvEEEENS_25__bucket_list_deallocatorINS6_ISD_EEEEE5firstB7v160006Ev, symObjAddr: 0x107E0, symBinAddr: 0x100014400, symSize: 0x20 }
  - { offsetInCU: 0x2DB4A, offset: 0x2DB4A, size: 0x8, addend: 0x0, symName: __ZNSt3__125__bucket_list_deallocatorINS_9allocatorIPNS_16__hash_node_baseIPNS_11__hash_nodeINS_12basic_stringIcNS_11char_traitsIcEENS1_IcEEEEPvEEEEEEEclB7v160006EPSD_, symObjAddr: 0x10800, symBinAddr: 0x100014420, symSize: 0x50 }
  - { offsetInCU: 0x2DB7F, offset: 0x2DB7F, size: 0x8, addend: 0x0, symName: __ZNSt3__122__compressed_pair_elemIPPNS_16__hash_node_baseIPNS_11__hash_nodeINS_12basic_stringIcNS_11char_traitsIcEENS_9allocatorIcEEEEPvEEEELi0ELb0EE5__getB7v160006Ev, symObjAddr: 0x10850, symBinAddr: 0x100014470, symSize: 0x10 }
  - { offsetInCU: 0x2DBA5, offset: 0x2DBA5, size: 0x8, addend: 0x0, symName: __ZNSt3__116allocator_traitsINS_9allocatorIPNS_16__hash_node_baseIPNS_11__hash_nodeINS_12basic_stringIcNS_11char_traitsIcEENS1_IcEEEEPvEEEEEEE10deallocateB7v160006ERSE_PSD_m, symObjAddr: 0x10860, symBinAddr: 0x100014480, symSize: 0x30 }
  - { offsetInCU: 0x2DBE7, offset: 0x2DBE7, size: 0x8, addend: 0x0, symName: __ZNSt3__19allocatorIPNS_16__hash_node_baseIPNS_11__hash_nodeINS_12basic_stringIcNS_11char_traitsIcEENS0_IcEEEEPvEEEEE10deallocateB7v160006EPSC_m, symObjAddr: 0x10890, symBinAddr: 0x1000144B0, symSize: 0x40 }
  - { offsetInCU: 0x2DC29, offset: 0x2DC29, size: 0x8, addend: 0x0, symName: __ZNSt3__19allocatorIPNS_16__hash_node_baseIPNS_11__hash_nodeINS_12basic_stringIcNS_11char_traitsIcEENS0_IcEEEEPvEEEEE8allocateB7v160006Em, symObjAddr: 0x108D0, symBinAddr: 0x1000144F0, symSize: 0x50 }
  - { offsetInCU: 0x2DC68, offset: 0x2DC68, size: 0x8, addend: 0x0, symName: __ZNSt3__116allocator_traitsINS_9allocatorIPNS_16__hash_node_baseIPNS_11__hash_nodeINS_12basic_stringIcNS_11char_traitsIcEENS1_IcEEEEPvEEEEEEE8max_sizeB7v160006ISE_vvEEmRKSE_, symObjAddr: 0x10920, symBinAddr: 0x100014540, symSize: 0x20 }
  - { offsetInCU: 0x2DC94, offset: 0x2DC94, size: 0x8, addend: 0x0, symName: __ZNSt3__117__compressed_pairImNS_9allocatorIPNS_16__hash_node_baseIPNS_11__hash_nodeINS_12basic_stringIcNS_11char_traitsIcEENS1_IcEEEEPvEEEEEEE5firstB7v160006Ev, symObjAddr: 0x10940, symBinAddr: 0x100014560, symSize: 0x20 }
  - { offsetInCU: 0x2DCBA, offset: 0x2DCBA, size: 0x8, addend: 0x0, symName: __ZNSt3__122__compressed_pair_elemINS_16__hash_node_baseIPNS_11__hash_nodeINS_12basic_stringIcNS_11char_traitsIcEENS_9allocatorIcEEEEPvEEEELi0ELb0EE5__getB7v160006Ev, symObjAddr: 0x10960, symBinAddr: 0x100014580, symSize: 0x10 }
  - { offsetInCU: 0x2DCE0, offset: 0x2DCE0, size: 0x8, addend: 0x0, symName: __ZNKSt3__117__compressed_pairIPNS_11__hash_nodeINS_12basic_stringIcNS_11char_traitsIcEENS_9allocatorIcEEEEPvEENS_22__hash_node_destructorINS5_IS9_EEEEE5firstB7v160006Ev, symObjAddr: 0x10970, symBinAddr: 0x100014590, symSize: 0x20 }
  - { offsetInCU: 0x2DD06, offset: 0x2DD06, size: 0x8, addend: 0x0, symName: __ZNKSt3__122__compressed_pair_elemIPNS_11__hash_nodeINS_12basic_stringIcNS_11char_traitsIcEENS_9allocatorIcEEEEPvEELi0ELb0EE5__getB7v160006Ev, symObjAddr: 0x10990, symBinAddr: 0x1000145B0, symSize: 0x10 }
  - { offsetInCU: 0x2DD2C, offset: 0x2DD2C, size: 0x8, addend: 0x0, symName: __ZNSt3__117__compressed_pairIPNS_11__hash_nodeINS_12basic_stringIcNS_11char_traitsIcEENS_9allocatorIcEEEEPvEENS_22__hash_node_destructorINS5_IS9_EEEEE5firstB7v160006Ev, symObjAddr: 0x109A0, symBinAddr: 0x1000145C0, symSize: 0x20 }
  - { offsetInCU: 0x2DD52, offset: 0x2DD52, size: 0x8, addend: 0x0, symName: __ZNSt3__122__compressed_pair_elemIPNS_11__hash_nodeINS_12basic_stringIcNS_11char_traitsIcEENS_9allocatorIcEEEEPvEELi0ELb0EE5__getB7v160006Ev, symObjAddr: 0x109C0, symBinAddr: 0x1000145E0, symSize: 0x10 }
  - { offsetInCU: 0x2DD78, offset: 0x2DD78, size: 0x8, addend: 0x0, symName: __ZNSt3__110unique_ptrINS_11__hash_nodeINS_12basic_stringIcNS_11char_traitsIcEENS_9allocatorIcEEEEPvEENS_22__hash_node_destructorINS5_IS9_EEEEED2B7v160006Ev, symObjAddr: 0x109D0, symBinAddr: 0x1000145F0, symSize: 0x20 }
  - { offsetInCU: 0x2DDA2, offset: 0x2DDA2, size: 0x8, addend: 0x0, symName: __ZNSt3__110unique_ptrINS_11__hash_nodeINS_12basic_stringIcNS_11char_traitsIcEENS_9allocatorIcEEEEPvEENS_22__hash_node_destructorINS5_IS9_EEEEE5resetB7v160006EPS9_, symObjAddr: 0x109F0, symBinAddr: 0x100014610, symSize: 0x70 }
  - { offsetInCU: 0x2DDE6, offset: 0x2DDE6, size: 0x8, addend: 0x0, symName: __ZNSt3__122__hash_node_destructorINS_9allocatorINS_11__hash_nodeINS_12basic_stringIcNS_11char_traitsIcEENS1_IcEEEEPvEEEEEclB7v160006EPS9_, symObjAddr: 0x10A60, symBinAddr: 0x100014680, symSize: 0x80 }
  - { offsetInCU: 0x2DE1B, offset: 0x2DE1B, size: 0x8, addend: 0x0, symName: __ZNSt3__116allocator_traitsINS_9allocatorINS_11__hash_nodeINS_12basic_stringIcNS_11char_traitsIcEENS1_IcEEEEPvEEEEE7destroyB7v160006IS7_vvEEvRSA_PT_, symObjAddr: 0x10AE0, symBinAddr: 0x100014700, symSize: 0x20 }
  - { offsetInCU: 0x2DE56, offset: 0x2DE56, size: 0x8, addend: 0x0, symName: __ZNSt3__116allocator_traitsINS_9allocatorINS_11__hash_nodeINS_12basic_stringIcNS_11char_traitsIcEENS1_IcEEEEPvEEEEE10deallocateB7v160006ERSA_PS9_m, symObjAddr: 0x10B00, symBinAddr: 0x100014720, symSize: 0x30 }
  - { offsetInCU: 0x2DE98, offset: 0x2DE98, size: 0x8, addend: 0x0, symName: __ZNSt3__19allocatorINS_11__hash_nodeINS_12basic_stringIcNS_11char_traitsIcEENS0_IcEEEEPvEEE10deallocateB7v160006EPS8_m, symObjAddr: 0x10B30, symBinAddr: 0x100014750, symSize: 0x50 }
  - { offsetInCU: 0x2DEDA, offset: 0x2DEDA, size: 0x8, addend: 0x0, symName: __ZNSt3__115__hash_iteratorIPNS_11__hash_nodeINS_12basic_stringIcNS_11char_traitsIcEENS_9allocatorIcEEEEPvEEEC2B7v160006EPNS_16__hash_node_baseISA_EEPKv, symObjAddr: 0x10B80, symBinAddr: 0x1000147A0, symSize: 0x20 }
  - { offsetInCU: 0x2DF22, offset: 0x2DF22, size: 0x8, addend: 0x0, symName: __ZNSt3__14pairINS_15__hash_iteratorIPNS_11__hash_nodeINS_12basic_stringIcNS_11char_traitsIcEENS_9allocatorIcEEEEPvEEEEbEC2B7v160006ISC_RbLS9_0EEEOT_OT0_, symObjAddr: 0x10BA0, symBinAddr: 0x1000147C0, symSize: 0x30 }
  - { offsetInCU: 0x2DF80, offset: 0x2DF80, size: 0x8, addend: 0x0, symName: __ZNSt3__14pairINS_21__hash_const_iteratorIPNS_11__hash_nodeINS_12basic_stringIcNS_11char_traitsIcEENS_9allocatorIcEEEEPvEEEEbEC2B7v160006INS_15__hash_iteratorISB_EEbLS9_0EEEONS0_IT_T0_EE, symObjAddr: 0x10BD0, symBinAddr: 0x1000147F0, symSize: 0x40 }
  - { offsetInCU: 0x2DFD1, offset: 0x2DFD1, size: 0x8, addend: 0x0, symName: __ZNSt3__121__hash_const_iteratorIPNS_11__hash_nodeINS_12basic_stringIcNS_11char_traitsIcEENS_9allocatorIcEEEEPvEEEC1B7v160006ERKNS_15__hash_iteratorISA_EE, symObjAddr: 0x10C10, symBinAddr: 0x100014830, symSize: 0x30 }
  - { offsetInCU: 0x2E00A, offset: 0x2E00A, size: 0x8, addend: 0x0, symName: __ZNSt3__121__hash_const_iteratorIPNS_11__hash_nodeINS_12basic_stringIcNS_11char_traitsIcEENS_9allocatorIcEEEEPvEEEC2B7v160006ERKNS_15__hash_iteratorISA_EE, symObjAddr: 0x10C40, symBinAddr: 0x100014860, symSize: 0x20 }
  - { offsetInCU: 0x2E043, offset: 0x2E043, size: 0x8, addend: 0x0, symName: __ZNKSt3__112__hash_tableINS_17__hash_value_typeINS_12basic_stringIcNS_11char_traitsIcEENS_9allocatorIcEEEENS_13unordered_setIS7_NS_4hashIS7_EENS_8equal_toIS7_EENS5_IS7_EEEEEENS_22__unordered_map_hasherIS7_SF_SA_SC_Lb1EEENS_21__unordered_map_equalIS7_SF_SC_SA_Lb1EEENS5_ISF_EEE5beginEv, symObjAddr: 0x10C60, symBinAddr: 0x100014880, symSize: 0x40 }
  - { offsetInCU: 0x2E06B, offset: 0x2E06B, size: 0x8, addend: 0x0, symName: __ZNSt3__125__hash_map_const_iteratorINS_21__hash_const_iteratorIPNS_11__hash_nodeINS_17__hash_value_typeINS_12basic_stringIcNS_11char_traitsIcEENS_9allocatorIcEEEENS_13unordered_setIS9_NS_4hashIS9_EENS_8equal_toIS9_EENS7_IS9_EEEEEEPvEEEEEC1B7v160006ESL_, symObjAddr: 0x10CA0, symBinAddr: 0x1000148C0, symSize: 0x30 }
  - { offsetInCU: 0x2E0A4, offset: 0x2E0A4, size: 0x8, addend: 0x0, symName: __ZNKSt3__117__compressed_pairINS_16__hash_node_baseIPNS_11__hash_nodeINS_17__hash_value_typeINS_12basic_stringIcNS_11char_traitsIcEENS_9allocatorIcEEEENS_13unordered_setIS9_NS_4hashIS9_EENS_8equal_toIS9_EENS7_IS9_EEEEEEPvEEEENS7_ISJ_EEE5firstB7v160006Ev, symObjAddr: 0x10CD0, symBinAddr: 0x1000148F0, symSize: 0x20 }
  - { offsetInCU: 0x2E0CA, offset: 0x2E0CA, size: 0x8, addend: 0x0, symName: __ZNSt3__121__hash_const_iteratorIPNS_11__hash_nodeINS_17__hash_value_typeINS_12basic_stringIcNS_11char_traitsIcEENS_9allocatorIcEEEENS_13unordered_setIS8_NS_4hashIS8_EENS_8equal_toIS8_EENS6_IS8_EEEEEEPvEEEC1B7v160006EPNS_16__hash_node_baseISJ_EEPKv, symObjAddr: 0x10CF0, symBinAddr: 0x100014910, symSize: 0x30 }
  - { offsetInCU: 0x2E112, offset: 0x2E112, size: 0x8, addend: 0x0, symName: __ZNKSt3__122__compressed_pair_elemINS_16__hash_node_baseIPNS_11__hash_nodeINS_17__hash_value_typeINS_12basic_stringIcNS_11char_traitsIcEENS_9allocatorIcEEEENS_13unordered_setIS9_NS_4hashIS9_EENS_8equal_toIS9_EENS7_IS9_EEEEEEPvEEEELi0ELb0EE5__getB7v160006Ev, symObjAddr: 0x10D20, symBinAddr: 0x100014940, symSize: 0x10 }
  - { offsetInCU: 0x2E138, offset: 0x2E138, size: 0x8, addend: 0x0, symName: __ZNSt3__121__hash_const_iteratorIPNS_11__hash_nodeINS_17__hash_value_typeINS_12basic_stringIcNS_11char_traitsIcEENS_9allocatorIcEEEENS_13unordered_setIS8_NS_4hashIS8_EENS_8equal_toIS8_EENS6_IS8_EEEEEEPvEEEC2B7v160006EPNS_16__hash_node_baseISJ_EEPKv, symObjAddr: 0x10D30, symBinAddr: 0x100014950, symSize: 0x20 }
  - { offsetInCU: 0x2E180, offset: 0x2E180, size: 0x8, addend: 0x0, symName: __ZNSt3__125__hash_map_const_iteratorINS_21__hash_const_iteratorIPNS_11__hash_nodeINS_17__hash_value_typeINS_12basic_stringIcNS_11char_traitsIcEENS_9allocatorIcEEEENS_13unordered_setIS9_NS_4hashIS9_EENS_8equal_toIS9_EENS7_IS9_EEEEEEPvEEEEEC2B7v160006ESL_, symObjAddr: 0x10D50, symBinAddr: 0x100014970, symSize: 0x20 }
  - { offsetInCU: 0x2E1B9, offset: 0x2E1B9, size: 0x8, addend: 0x0, symName: __ZNKSt3__112__hash_tableINS_17__hash_value_typeINS_12basic_stringIcNS_11char_traitsIcEENS_9allocatorIcEEEENS_13unordered_setIS7_NS_4hashIS7_EENS_8equal_toIS7_EENS5_IS7_EEEEEENS_22__unordered_map_hasherIS7_SF_SA_SC_Lb1EEENS_21__unordered_map_equalIS7_SF_SC_SA_Lb1EEENS5_ISF_EEE3endEv, symObjAddr: 0x10D70, symBinAddr: 0x100014990, symSize: 0x30 }
  - { offsetInCU: 0x2E1E1, offset: 0x2E1E1, size: 0x8, addend: 0x0, symName: __ZNSt3__121__hash_const_iteratorIPNS_11__hash_nodeINS_17__hash_value_typeINS_12basic_stringIcNS_11char_traitsIcEENS_9allocatorIcEEEENS_13unordered_setIS8_NS_4hashIS8_EENS_8equal_toIS8_EENS6_IS8_EEEEEEPvEEEppB7v160006Ev, symObjAddr: 0x10E00, symBinAddr: 0x100014A20, symSize: 0x20 }
  - { offsetInCU: 0x2E207, offset: 0x2E207, size: 0x8, addend: 0x0, symName: __ZNKSt3__121__hash_const_iteratorIPNS_11__hash_nodeINS_17__hash_value_typeINS_12basic_stringIcNS_11char_traitsIcEENS_9allocatorIcEEEENS_13unordered_setIS8_NS_4hashIS8_EENS_8equal_toIS8_EENS6_IS8_EEEEEEPvEEEptB7v160006Ev, symObjAddr: 0x10E20, symBinAddr: 0x100014A40, symSize: 0x30 }
  - { offsetInCU: 0x2E22D, offset: 0x2E22D, size: 0x8, addend: 0x0, symName: __ZNSt3__114pointer_traitsIPKNS_17__hash_value_typeINS_12basic_stringIcNS_11char_traitsIcEENS_9allocatorIcEEEENS_13unordered_setIS7_NS_4hashIS7_EENS_8equal_toIS7_EENS5_IS7_EEEEEEE10pointer_toB7v160006ERSG_, symObjAddr: 0x10E50, symBinAddr: 0x100014A70, symSize: 0x10 }
  - { offsetInCU: 0x2E250, offset: 0x2E250, size: 0x8, addend: 0x0, symName: __ZNKSt3__112__hash_tableINS_12basic_stringIcNS_11char_traitsIcEENS_9allocatorIcEEEENS_4hashIS6_EENS_8equal_toIS6_EENS4_IS6_EEE5beginEv, symObjAddr: 0x10E60, symBinAddr: 0x100014A80, symSize: 0x40 }
  - { offsetInCU: 0x2E278, offset: 0x2E278, size: 0x8, addend: 0x0, symName: __ZNKSt3__117__compressed_pairINS_16__hash_node_baseIPNS_11__hash_nodeINS_12basic_stringIcNS_11char_traitsIcEENS_9allocatorIcEEEEPvEEEENS6_ISA_EEE5firstB7v160006Ev, symObjAddr: 0x10EA0, symBinAddr: 0x100014AC0, symSize: 0x20 }
  - { offsetInCU: 0x2E29E, offset: 0x2E29E, size: 0x8, addend: 0x0, symName: __ZNKSt3__122__compressed_pair_elemINS_16__hash_node_baseIPNS_11__hash_nodeINS_12basic_stringIcNS_11char_traitsIcEENS_9allocatorIcEEEEPvEEEELi0ELb0EE5__getB7v160006Ev, symObjAddr: 0x10EC0, symBinAddr: 0x100014AE0, symSize: 0x10 }
  - { offsetInCU: 0x2E2C4, offset: 0x2E2C4, size: 0x8, addend: 0x0, symName: __ZNSt3__113unordered_setINS_12basic_stringIcNS_11char_traitsIcEENS_9allocatorIcEEEENS_4hashIS6_EENS_8equal_toIS6_EENS4_IS6_EEEC2B7v160006Ev, symObjAddr: 0x10F00, symBinAddr: 0x100014B20, symSize: 0x40 }
  - { offsetInCU: 0x2E2EE, offset: 0x2E2EE, size: 0x8, addend: 0x0, symName: __ZNSt3__112__hash_tableINS_12basic_stringIcNS_11char_traitsIcEENS_9allocatorIcEEEENS_4hashIS6_EENS_8equal_toIS6_EENS4_IS6_EEEC1Ev, symObjAddr: 0x10F40, symBinAddr: 0x100014B60, symSize: 0x20 }
  - { offsetInCU: 0x2E31A, offset: 0x2E31A, size: 0x8, addend: 0x0, symName: __ZNSt3__112__hash_tableINS_12basic_stringIcNS_11char_traitsIcEENS_9allocatorIcEEEENS_4hashIS6_EENS_8equal_toIS6_EENS4_IS6_EEEC2Ev, symObjAddr: 0x10F70, symBinAddr: 0x100014B90, symSize: 0x80 }
  - { offsetInCU: 0x2E346, offset: 0x2E346, size: 0x8, addend: 0x0, symName: __ZNSt3__110unique_ptrIA_PNS_16__hash_node_baseIPNS_11__hash_nodeINS_12basic_stringIcNS_11char_traitsIcEENS_9allocatorIcEEEEPvEEEENS_25__bucket_list_deallocatorINS6_ISD_EEEEEC1B7v160006ILb1EvEEv, symObjAddr: 0x10FF0, symBinAddr: 0x100014C10, symSize: 0x20 }
  - { offsetInCU: 0x2E37B, offset: 0x2E37B, size: 0x8, addend: 0x0, symName: __ZNSt3__117__compressed_pairINS_16__hash_node_baseIPNS_11__hash_nodeINS_12basic_stringIcNS_11char_traitsIcEENS_9allocatorIcEEEEPvEEEENS6_ISA_EEEC1B7v160006ILb1EvEEv, symObjAddr: 0x11010, symBinAddr: 0x100014C30, symSize: 0x20 }
  - { offsetInCU: 0x2E3B0, offset: 0x2E3B0, size: 0x8, addend: 0x0, symName: __ZNSt3__117__compressed_pairImNS_4hashINS_12basic_stringIcNS_11char_traitsIcEENS_9allocatorIcEEEEEEEC1B7v160006IiNS_18__default_init_tagEEEOT_OT0_, symObjAddr: 0x11030, symBinAddr: 0x100014C50, symSize: 0x30 }
  - { offsetInCU: 0x2E408, offset: 0x2E408, size: 0x8, addend: 0x0, symName: __ZNSt3__117__compressed_pairIfNS_8equal_toINS_12basic_stringIcNS_11char_traitsIcEENS_9allocatorIcEEEEEEEC1B7v160006IfNS_18__default_init_tagEEEOT_OT0_, symObjAddr: 0x11060, symBinAddr: 0x100014C80, symSize: 0x30 }
  - { offsetInCU: 0x2E460, offset: 0x2E460, size: 0x8, addend: 0x0, symName: __ZNSt3__110unique_ptrIA_PNS_16__hash_node_baseIPNS_11__hash_nodeINS_12basic_stringIcNS_11char_traitsIcEENS_9allocatorIcEEEEPvEEEENS_25__bucket_list_deallocatorINS6_ISD_EEEEEC2B7v160006ILb1EvEEv, symObjAddr: 0x11090, symBinAddr: 0x100014CB0, symSize: 0x30 }
  - { offsetInCU: 0x2E495, offset: 0x2E495, size: 0x8, addend: 0x0, symName: __ZNSt3__117__compressed_pairIPPNS_16__hash_node_baseIPNS_11__hash_nodeINS_12basic_stringIcNS_11char_traitsIcEENS_9allocatorIcEEEEPvEEEENS_25__bucket_list_deallocatorINS6_ISD_EEEEEC1B7v160006INS_16__value_init_tagESK_EEOT_OT0_, symObjAddr: 0x110C0, symBinAddr: 0x100014CE0, symSize: 0x30 }
  - { offsetInCU: 0x2E4ED, offset: 0x2E4ED, size: 0x8, addend: 0x0, symName: __ZNSt3__117__compressed_pairIPPNS_16__hash_node_baseIPNS_11__hash_nodeINS_12basic_stringIcNS_11char_traitsIcEENS_9allocatorIcEEEEPvEEEENS_25__bucket_list_deallocatorINS6_ISD_EEEEEC2B7v160006INS_16__value_init_tagESK_EEOT_OT0_, symObjAddr: 0x110F0, symBinAddr: 0x100014D10, symSize: 0x40 }
  - { offsetInCU: 0x2E545, offset: 0x2E545, size: 0x8, addend: 0x0, symName: __ZNSt3__122__compressed_pair_elemIPPNS_16__hash_node_baseIPNS_11__hash_nodeINS_12basic_stringIcNS_11char_traitsIcEENS_9allocatorIcEEEEPvEEEELi0ELb0EEC2B7v160006ENS_16__value_init_tagE, symObjAddr: 0x11130, symBinAddr: 0x100014D50, symSize: 0x20 }
  - { offsetInCU: 0x2E57A, offset: 0x2E57A, size: 0x8, addend: 0x0, symName: __ZNSt3__122__compressed_pair_elemINS_25__bucket_list_deallocatorINS_9allocatorIPNS_16__hash_node_baseIPNS_11__hash_nodeINS_12basic_stringIcNS_11char_traitsIcEENS2_IcEEEEPvEEEEEEEELi1ELb0EEC2B7v160006ENS_16__value_init_tagE, symObjAddr: 0x11150, symBinAddr: 0x100014D70, symSize: 0x20 }
  - { offsetInCU: 0x2E5AF, offset: 0x2E5AF, size: 0x8, addend: 0x0, symName: __ZNSt3__125__bucket_list_deallocatorINS_9allocatorIPNS_16__hash_node_baseIPNS_11__hash_nodeINS_12basic_stringIcNS_11char_traitsIcEENS1_IcEEEEPvEEEEEEEC1B7v160006Ev, symObjAddr: 0x11170, symBinAddr: 0x100014D90, symSize: 0x20 }
  - { offsetInCU: 0x2E5D9, offset: 0x2E5D9, size: 0x8, addend: 0x0, symName: __ZNSt3__125__bucket_list_deallocatorINS_9allocatorIPNS_16__hash_node_baseIPNS_11__hash_nodeINS_12basic_stringIcNS_11char_traitsIcEENS1_IcEEEEPvEEEEEEEC2B7v160006Ev, symObjAddr: 0x11190, symBinAddr: 0x100014DB0, symSize: 0x40 }
  - { offsetInCU: 0x2E603, offset: 0x2E603, size: 0x8, addend: 0x0, symName: __ZNSt3__117__compressed_pairImNS_9allocatorIPNS_16__hash_node_baseIPNS_11__hash_nodeINS_12basic_stringIcNS_11char_traitsIcEENS1_IcEEEEPvEEEEEEEC1B7v160006IiNS_18__default_init_tagEEEOT_OT0_, symObjAddr: 0x111D0, symBinAddr: 0x100014DF0, symSize: 0x30 }
  - { offsetInCU: 0x2E65B, offset: 0x2E65B, size: 0x8, addend: 0x0, symName: __ZNSt3__117__compressed_pairImNS_9allocatorIPNS_16__hash_node_baseIPNS_11__hash_nodeINS_12basic_stringIcNS_11char_traitsIcEENS1_IcEEEEPvEEEEEEEC2B7v160006IiNS_18__default_init_tagEEEOT_OT0_, symObjAddr: 0x11200, symBinAddr: 0x100014E20, symSize: 0x40 }
  - { offsetInCU: 0x2E6B3, offset: 0x2E6B3, size: 0x8, addend: 0x0, symName: __ZNSt3__122__compressed_pair_elemINS_9allocatorIPNS_16__hash_node_baseIPNS_11__hash_nodeINS_12basic_stringIcNS_11char_traitsIcEENS1_IcEEEEPvEEEEEELi1ELb1EEC2B7v160006ENS_18__default_init_tagE, symObjAddr: 0x11240, symBinAddr: 0x100014E60, symSize: 0x20 }
  - { offsetInCU: 0x2E6E8, offset: 0x2E6E8, size: 0x8, addend: 0x0, symName: __ZNSt3__19allocatorIPNS_16__hash_node_baseIPNS_11__hash_nodeINS_12basic_stringIcNS_11char_traitsIcEENS0_IcEEEEPvEEEEEC2B7v160006Ev, symObjAddr: 0x11260, symBinAddr: 0x100014E80, symSize: 0x20 }
  - { offsetInCU: 0x2E712, offset: 0x2E712, size: 0x8, addend: 0x0, symName: __ZNSt3__116__non_trivial_ifILb1ENS_9allocatorIPNS_16__hash_node_baseIPNS_11__hash_nodeINS_12basic_stringIcNS_11char_traitsIcEENS1_IcEEEEPvEEEEEEEC2B7v160006Ev, symObjAddr: 0x11280, symBinAddr: 0x100014EA0, symSize: 0x10 }
  - { offsetInCU: 0x2E73C, offset: 0x2E73C, size: 0x8, addend: 0x0, symName: __ZNSt3__117__compressed_pairINS_16__hash_node_baseIPNS_11__hash_nodeINS_12basic_stringIcNS_11char_traitsIcEENS_9allocatorIcEEEEPvEEEENS6_ISA_EEEC2B7v160006ILb1EvEEv, symObjAddr: 0x11290, symBinAddr: 0x100014EB0, symSize: 0x30 }
  - { offsetInCU: 0x2E771, offset: 0x2E771, size: 0x8, addend: 0x0, symName: __ZNSt3__122__compressed_pair_elemINS_16__hash_node_baseIPNS_11__hash_nodeINS_12basic_stringIcNS_11char_traitsIcEENS_9allocatorIcEEEEPvEEEELi0ELb0EEC2B7v160006ENS_16__value_init_tagE, symObjAddr: 0x112C0, symBinAddr: 0x100014EE0, symSize: 0x20 }
  - { offsetInCU: 0x2E7A6, offset: 0x2E7A6, size: 0x8, addend: 0x0, symName: __ZNSt3__122__compressed_pair_elemINS_9allocatorINS_11__hash_nodeINS_12basic_stringIcNS_11char_traitsIcEENS1_IcEEEEPvEEEELi1ELb1EEC2B7v160006ENS_16__value_init_tagE, symObjAddr: 0x112E0, symBinAddr: 0x100014F00, symSize: 0x20 }
  - { offsetInCU: 0x2E7DB, offset: 0x2E7DB, size: 0x8, addend: 0x0, symName: __ZNSt3__116__hash_node_baseIPNS_11__hash_nodeINS_12basic_stringIcNS_11char_traitsIcEENS_9allocatorIcEEEEPvEEEC1B7v160006Ev, symObjAddr: 0x11300, symBinAddr: 0x100014F20, symSize: 0x20 }
  - { offsetInCU: 0x2E805, offset: 0x2E805, size: 0x8, addend: 0x0, symName: __ZNSt3__116__hash_node_baseIPNS_11__hash_nodeINS_12basic_stringIcNS_11char_traitsIcEENS_9allocatorIcEEEEPvEEEC2B7v160006Ev, symObjAddr: 0x11320, symBinAddr: 0x100014F40, symSize: 0x20 }
  - { offsetInCU: 0x2E82F, offset: 0x2E82F, size: 0x8, addend: 0x0, symName: __ZNSt3__19allocatorINS_11__hash_nodeINS_12basic_stringIcNS_11char_traitsIcEENS0_IcEEEEPvEEEC2B7v160006Ev, symObjAddr: 0x11340, symBinAddr: 0x100014F60, symSize: 0x20 }
  - { offsetInCU: 0x2E859, offset: 0x2E859, size: 0x8, addend: 0x0, symName: __ZNSt3__116__non_trivial_ifILb1ENS_9allocatorINS_11__hash_nodeINS_12basic_stringIcNS_11char_traitsIcEENS1_IcEEEEPvEEEEEC2B7v160006Ev, symObjAddr: 0x11360, symBinAddr: 0x100014F80, symSize: 0x10 }
  - { offsetInCU: 0x2E883, offset: 0x2E883, size: 0x8, addend: 0x0, symName: __ZNSt3__117__compressed_pairImNS_4hashINS_12basic_stringIcNS_11char_traitsIcEENS_9allocatorIcEEEEEEEC2B7v160006IiNS_18__default_init_tagEEEOT_OT0_, symObjAddr: 0x11370, symBinAddr: 0x100014F90, symSize: 0x40 }
  - { offsetInCU: 0x2E8DB, offset: 0x2E8DB, size: 0x8, addend: 0x0, symName: __ZNSt3__122__compressed_pair_elemINS_4hashINS_12basic_stringIcNS_11char_traitsIcEENS_9allocatorIcEEEEEELi1ELb1EEC2B7v160006ENS_18__default_init_tagE, symObjAddr: 0x113B0, symBinAddr: 0x100014FD0, symSize: 0x10 }
  - { offsetInCU: 0x2E910, offset: 0x2E910, size: 0x8, addend: 0x0, symName: __ZNSt3__117__compressed_pairIfNS_8equal_toINS_12basic_stringIcNS_11char_traitsIcEENS_9allocatorIcEEEEEEEC2B7v160006IfNS_18__default_init_tagEEEOT_OT0_, symObjAddr: 0x113C0, symBinAddr: 0x100014FE0, symSize: 0x40 }
  - { offsetInCU: 0x2E968, offset: 0x2E968, size: 0x8, addend: 0x0, symName: __ZNSt3__122__compressed_pair_elemINS_8equal_toINS_12basic_stringIcNS_11char_traitsIcEENS_9allocatorIcEEEEEELi1ELb1EEC2B7v160006ENS_18__default_init_tagE, symObjAddr: 0x11400, symBinAddr: 0x100015020, symSize: 0x10 }
  - { offsetInCU: 0x2E99D, offset: 0x2E99D, size: 0x8, addend: 0x0, symName: __ZNSt3__113unordered_setINS_12basic_stringIcNS_11char_traitsIcEENS_9allocatorIcEEEENS_4hashIS6_EENS_8equal_toIS6_EENS4_IS6_EEED2B7v160006Ev, symObjAddr: 0x11410, symBinAddr: 0x100015030, symSize: 0x20 }
  - { offsetInCU: 0x2E9C7, offset: 0x2E9C7, size: 0x8, addend: 0x0, symName: __ZNSt3__112__hash_tableINS_12basic_stringIcNS_11char_traitsIcEENS_9allocatorIcEEEENS_4hashIS6_EENS_8equal_toIS6_EENS4_IS6_EEED1Ev, symObjAddr: 0x11430, symBinAddr: 0x100015050, symSize: 0x20 }
  - { offsetInCU: 0x2E9F3, offset: 0x2E9F3, size: 0x8, addend: 0x0, symName: __ZNSt3__112__hash_tableINS_12basic_stringIcNS_11char_traitsIcEENS_9allocatorIcEEEENS_4hashIS6_EENS_8equal_toIS6_EENS4_IS6_EEED2Ev, symObjAddr: 0x11450, symBinAddr: 0x100015070, symSize: 0x50 }
  - { offsetInCU: 0x2EA1F, offset: 0x2EA1F, size: 0x8, addend: 0x0, symName: __ZNSt3__112__hash_tableINS_12basic_stringIcNS_11char_traitsIcEENS_9allocatorIcEEEENS_4hashIS6_EENS_8equal_toIS6_EENS4_IS6_EEE17__deallocate_nodeEPNS_16__hash_node_baseIPNS_11__hash_nodeIS6_PvEEEE, symObjAddr: 0x114A0, symBinAddr: 0x1000150C0, symSize: 0xA0 }
  - { offsetInCU: 0x2EA89, offset: 0x2EA89, size: 0x8, addend: 0x0, symName: __ZNSt3__110unique_ptrIA_PNS_16__hash_node_baseIPNS_11__hash_nodeINS_12basic_stringIcNS_11char_traitsIcEENS_9allocatorIcEEEEPvEEEENS_25__bucket_list_deallocatorINS6_ISD_EEEEED1B7v160006Ev, symObjAddr: 0x11550, symBinAddr: 0x100015170, symSize: 0x20 }
  - { offsetInCU: 0x2EAB3, offset: 0x2EAB3, size: 0x8, addend: 0x0, symName: __ZNSt3__110unique_ptrIA_PNS_16__hash_node_baseIPNS_11__hash_nodeINS_12basic_stringIcNS_11char_traitsIcEENS_9allocatorIcEEEEPvEEEENS_25__bucket_list_deallocatorINS6_ISD_EEEEED2B7v160006Ev, symObjAddr: 0x11570, symBinAddr: 0x100015190, symSize: 0x20 }
  - { offsetInCU: 0x2EADD, offset: 0x2EADD, size: 0x8, addend: 0x0, symName: __ZNSt3__110unique_ptrIA_PNS_16__hash_node_baseIPNS_11__hash_nodeINS_12basic_stringIcNS_11char_traitsIcEENS_9allocatorIcEEEEPvEEEENS_25__bucket_list_deallocatorINS6_ISD_EEEEE5resetB7v160006EDn, symObjAddr: 0x11590, symBinAddr: 0x1000151B0, symSize: 0x60 }
  - { offsetInCU: 0x2EB1E, offset: 0x2EB1E, size: 0x8, addend: 0x0, symName: __ZNSt3__112__hash_tableINS_12basic_stringIcNS_11char_traitsIcEENS_9allocatorIcEEEENS_4hashIS6_EENS_8equal_toIS6_EENS4_IS6_EEE15__insert_uniqueB7v160006ERKS6_, symObjAddr: 0x115F0, symBinAddr: 0x100015210, symSize: 0x50 }
  - { offsetInCU: 0x2EB53, offset: 0x2EB53, size: 0x8, addend: 0x0, symName: __ZNSt3__112__hash_tableINS_12basic_stringIcNS_11char_traitsIcEENS_9allocatorIcEEEENS_4hashIS6_EENS_8equal_toIS6_EENS4_IS6_EEE25__emplace_unique_key_argsIS6_JRKS6_EEENS_4pairINS_15__hash_iteratorIPNS_11__hash_nodeIS6_PvEEEEbEERKT_DpOT0_, symObjAddr: 0x11640, symBinAddr: 0x100015260, symSize: 0x590 }
  - { offsetInCU: 0x2EC30, offset: 0x2EC30, size: 0x8, addend: 0x0, symName: __ZNSt3__112__hash_tableINS_12basic_stringIcNS_11char_traitsIcEENS_9allocatorIcEEEENS_4hashIS6_EENS_8equal_toIS6_EENS4_IS6_EEE21__construct_node_hashIRKS6_JEEENS_10unique_ptrINS_11__hash_nodeIS6_PvEENS_22__hash_node_destructorINS4_ISJ_EEEEEEmOT_DpOT0_, symObjAddr: 0x11BD0, symBinAddr: 0x1000157F0, symSize: 0x130 }
  - { offsetInCU: 0x2ECA3, offset: 0x2ECA3, size: 0x8, addend: 0x0, symName: __ZNSt3__116allocator_traitsINS_9allocatorINS_11__hash_nodeINS_12basic_stringIcNS_11char_traitsIcEENS1_IcEEEEPvEEEEE9constructB7v160006IS7_JRKS7_EvvEEvRSA_PT_DpOT0_, symObjAddr: 0x11D00, symBinAddr: 0x100015920, symSize: 0x30 }
  - { offsetInCU: 0x2ECF8, offset: 0x2ECF8, size: 0x8, addend: 0x0, symName: __ZNKSt3__112__hash_tableINS_12basic_stringIcNS_11char_traitsIcEENS_9allocatorIcEEEENS_4hashIS6_EENS_8equal_toIS6_EENS4_IS6_EEE4sizeB7v160006Ev, symObjAddr: 0x11D30, symBinAddr: 0x100015950, symSize: 0x30 }
  - { offsetInCU: 0x2ED1E, offset: 0x2ED1E, size: 0x8, addend: 0x0, symName: __ZNKSt3__117__compressed_pairImNS_4hashINS_12basic_stringIcNS_11char_traitsIcEENS_9allocatorIcEEEEEEE5firstB7v160006Ev, symObjAddr: 0x11D60, symBinAddr: 0x100015980, symSize: 0x20 }
  - { offsetInCU: 0x2ED44, offset: 0x2ED44, size: 0x8, addend: 0x0, symName: __ZNSt3__112__hash_tableINS_12basic_stringIcNS_11char_traitsIcEENS_9allocatorIcEEEENS_4hashIS6_EENS_8equal_toIS6_EENS4_IS6_EEE5beginEv, symObjAddr: 0x11D80, symBinAddr: 0x1000159A0, symSize: 0x40 }
  - { offsetInCU: 0x2ED6C, offset: 0x2ED6C, size: 0x8, addend: 0x0, symName: __ZNSt3__112__hash_tableINS_12basic_stringIcNS_11char_traitsIcEENS_9allocatorIcEEEENS_4hashIS6_EENS_8equal_toIS6_EENS4_IS6_EEE3endEv, symObjAddr: 0x11DC0, symBinAddr: 0x1000159E0, symSize: 0x30 }
  - { offsetInCU: 0x2ED94, offset: 0x2ED94, size: 0x8, addend: 0x0, symName: __ZNKSt3__112__hash_tableINS_17__hash_value_typeINS_12basic_stringIcNS_11char_traitsIcEENS_9allocatorIcEEEENS_13unordered_setIS7_NS_4hashIS7_EENS_8equal_toIS7_EENS5_IS7_EEEEEENS_22__unordered_map_hasherIS7_SF_SA_SC_Lb1EEENS_21__unordered_map_equalIS7_SF_SC_SA_Lb1EEENS5_ISF_EEE4findIS7_EENS_21__hash_const_iteratorIPNS_11__hash_nodeISF_PvEEEERKT_, symObjAddr: 0x11DF0, symBinAddr: 0x100015A10, symSize: 0x190 }
  - { offsetInCU: 0x2EE1E, offset: 0x2EE1E, size: 0x8, addend: 0x0, symName: __ZNKSt3__112__hash_tableINS_17__hash_value_typeINS_12basic_stringIcNS_11char_traitsIcEENS_9allocatorIcEEEENS_13unordered_setIS7_NS_4hashIS7_EENS_8equal_toIS7_EENS5_IS7_EEEEEENS_22__unordered_map_hasherIS7_SF_SA_SC_Lb1EEENS_21__unordered_map_equalIS7_SF_SC_SA_Lb1EEENS5_ISF_EEE13hash_functionB7v160006Ev, symObjAddr: 0x11F80, symBinAddr: 0x100015BA0, symSize: 0x20 }
  - { offsetInCU: 0x2EE44, offset: 0x2EE44, size: 0x8, addend: 0x0, symName: __ZNKSt3__112__hash_tableINS_17__hash_value_typeINS_12basic_stringIcNS_11char_traitsIcEENS_9allocatorIcEEEENS_13unordered_setIS7_NS_4hashIS7_EENS_8equal_toIS7_EENS5_IS7_EEEEEENS_22__unordered_map_hasherIS7_SF_SA_SC_Lb1EEENS_21__unordered_map_equalIS7_SF_SC_SA_Lb1EEENS5_ISF_EEE6key_eqB7v160006Ev, symObjAddr: 0x11FA0, symBinAddr: 0x100015BC0, symSize: 0x20 }
  - { offsetInCU: 0x2EE6A, offset: 0x2EE6A, size: 0x8, addend: 0x0, symName: __ZNKSt3__117__compressed_pairImNS_22__unordered_map_hasherINS_12basic_stringIcNS_11char_traitsIcEENS_9allocatorIcEEEENS_17__hash_value_typeIS7_NS_13unordered_setIS7_NS_4hashIS7_EENS_8equal_toIS7_EENS5_IS7_EEEEEESB_SD_Lb1EEEE6secondB7v160006Ev, symObjAddr: 0x11FC0, symBinAddr: 0x100015BE0, symSize: 0x20 }
  - { offsetInCU: 0x2EE90, offset: 0x2EE90, size: 0x8, addend: 0x0, symName: __ZNKSt3__122__compressed_pair_elemINS_22__unordered_map_hasherINS_12basic_stringIcNS_11char_traitsIcEENS_9allocatorIcEEEENS_17__hash_value_typeIS7_NS_13unordered_setIS7_NS_4hashIS7_EENS_8equal_toIS7_EENS5_IS7_EEEEEESB_SD_Lb1EEELi1ELb1EE5__getB7v160006Ev, symObjAddr: 0x11FE0, symBinAddr: 0x100015C00, symSize: 0x10 }
  - { offsetInCU: 0x2EEB6, offset: 0x2EEB6, size: 0x8, addend: 0x0, symName: __ZNKSt3__117__compressed_pairIfNS_21__unordered_map_equalINS_12basic_stringIcNS_11char_traitsIcEENS_9allocatorIcEEEENS_17__hash_value_typeIS7_NS_13unordered_setIS7_NS_4hashIS7_EENS_8equal_toIS7_EENS5_IS7_EEEEEESD_SB_Lb1EEEE6secondB7v160006Ev, symObjAddr: 0x11FF0, symBinAddr: 0x100015C10, symSize: 0x20 }
  - { offsetInCU: 0x2EEDC, offset: 0x2EEDC, size: 0x8, addend: 0x0, symName: __ZNKSt3__122__compressed_pair_elemINS_21__unordered_map_equalINS_12basic_stringIcNS_11char_traitsIcEENS_9allocatorIcEEEENS_17__hash_value_typeIS7_NS_13unordered_setIS7_NS_4hashIS7_EENS_8equal_toIS7_EENS5_IS7_EEEEEESD_SB_Lb1EEELi1ELb1EE5__getB7v160006Ev, symObjAddr: 0x12010, symBinAddr: 0x100015C30, symSize: 0x10 }
  - { offsetInCU: 0x2EF02, offset: 0x2EF02, size: 0x8, addend: 0x0, symName: __ZNSt3__114pointer_traitsIPKNS_4pairIKNS_12basic_stringIcNS_11char_traitsIcEENS_9allocatorIcEEEENS_13unordered_setIS7_NS_4hashIS7_EENS_8equal_toIS7_EENS5_IS7_EEEEEEE10pointer_toB7v160006ERSH_, symObjAddr: 0x12020, symBinAddr: 0x100015C40, symSize: 0xE }
  - { offsetInCU: 0x3F, offset: 0x2F3BA, size: 0x8, addend: 0x0, symName: _str_mutex, symObjAddr: 0xAD7C8, symBinAddr: 0x1000D4000, symSize: 0x0 }
  - { offsetInCU: 0x2738, offset: 0x31AB3, size: 0x8, addend: 0x0, symName: __ZNSt3__1L19piecewise_constructE, symObjAddr: 0xAF352, symBinAddr: 0x1000C3882, symSize: 0x0 }
  - { offsetInCU: 0xF52F, offset: 0x3E8AA, size: 0x8, addend: 0x0, symName: __ZNSt3__110__function10__not_nullB7v160006IZN7httplib6ServerC1EvEUlvE_EEbRKT_, symObjAddr: 0x6CD0, symBinAddr: 0x10001BCF0, symSize: 0x20 }
  - { offsetInCU: 0xF561, offset: 0x3E8DC, size: 0x8, addend: 0x0, symName: __ZNSt3__110__function10__not_nullB7v160006IFviEEEbPT_, symObjAddr: 0xD870, symBinAddr: 0x100022510, symSize: 0x20 }
  - { offsetInCU: 0xF596, offset: 0x3E911, size: 0x8, addend: 0x0, symName: __ZNSt3__110__function10__not_nullB7v160006IFlRN7httplib6StreamERKNS_8multimapINS_12basic_stringIcNS_11char_traitsIcEENS_9allocatorIcEEEESB_NS2_6detail2ciENS9_INS_4pairIKSB_SB_EEEEEEEEEbPT_, symObjAddr: 0x11350, symBinAddr: 0x100025FA0, symSize: 0x20 }
  - { offsetInCU: 0xF5CB, offset: 0x3E946, size: 0x8, addend: 0x0, symName: __ZNSt3__110__function10__not_nullB7v160006IZNK7httplib6Server12apply_rangesERKNS2_7RequestERNS2_8ResponseERNS_12basic_stringIcNS_11char_traitsIcEENS_9allocatorIcEEEESF_EUlPKcmE_EEbRKT_, symObjAddr: 0x48980, symBinAddr: 0x1000587E0, symSize: 0x20 }
  - { offsetInCU: 0xF5FD, offset: 0x3E978, size: 0x8, addend: 0x0, symName: __ZNSt3__110__function10__not_nullB7v160006IZN7httplib6detail13write_contentIZNS2_6Server27write_content_with_providerERNS2_6StreamERKNS2_7RequestERNS2_8ResponseERKNS_12basic_stringIcNS_11char_traitsIcEENS_9allocatorIcEEEESK_EUlvE_EEbS7_RKNS_8functionIFbmmRNS2_8DataSinkEEEEmmT_RNS2_5ErrorEEUlPKcmE_EEbRKST_, symObjAddr: 0x4B720, symBinAddr: 0x10005B410, symSize: 0x20 }
  - { offsetInCU: 0xF62F, offset: 0x3E9AA, size: 0x8, addend: 0x0, symName: __ZNSt3__110__function10__not_nullB7v160006IZN7httplib6detail13write_contentIZNS2_6Server27write_content_with_providerERNS2_6StreamERKNS2_7RequestERNS2_8ResponseERKNS_12basic_stringIcNS_11char_traitsIcEENS_9allocatorIcEEEESK_EUlvE_EEbS7_RKNS_8functionIFbmmRNS2_8DataSinkEEEEmmT_RNS2_5ErrorEEUlvE_EEbRKST_, symObjAddr: 0x4D190, symBinAddr: 0x10005CE80, symSize: 0x20 }
  - { offsetInCU: 0xF661, offset: 0x3E9DC, size: 0x8, addend: 0x0, symName: __ZNSt3__110__function10__not_nullB7v160006IZN7httplib6detail21write_content_chunkedIZNS2_6Server27write_content_with_providerERNS2_6StreamERKNS2_7RequestERNS2_8ResponseERKNS_12basic_stringIcNS_11char_traitsIcEENS_9allocatorIcEEEESK_EUlvE_NS3_10compressorEEEbS7_RKNS_8functionIFbmmRNS2_8DataSinkEEEERKT_RT0_RNS2_5ErrorEEUlPKcmE_EEbSW_, symObjAddr: 0x4FB90, symBinAddr: 0x10005F880, symSize: 0x20 }
  - { offsetInCU: 0xF693, offset: 0x3EA0E, size: 0x8, addend: 0x0, symName: __ZNSt3__110__function10__not_nullB7v160006IZZN7httplib6detail21write_content_chunkedIZNS2_6Server27write_content_with_providerERNS2_6StreamERKNS2_7RequestERNS2_8ResponseERKNS_12basic_stringIcNS_11char_traitsIcEENS_9allocatorIcEEEESK_EUlvE_NS3_10compressorEEEbS7_RKNS_8functionIFbmmRNS2_8DataSinkEEEERKT_RT0_RNS2_5ErrorEENKUlPKcmE_clES12_mEUlS12_mE_EEbSW_, symObjAddr: 0x51710, symBinAddr: 0x100061400, symSize: 0x20 }
  - { offsetInCU: 0xF6C5, offset: 0x3EA40, size: 0x8, addend: 0x0, symName: __ZNSt3__110__function10__not_nullB7v160006IZN7httplib6detail21write_content_chunkedIZNS2_6Server27write_content_with_providerERNS2_6StreamERKNS2_7RequestERNS2_8ResponseERKNS_12basic_stringIcNS_11char_traitsIcEENS_9allocatorIcEEEESK_EUlvE_NS3_10compressorEEEbS7_RKNS_8functionIFbmmRNS2_8DataSinkEEEERKT_RT0_RNS2_5ErrorEEUlvE_EEbSW_, symObjAddr: 0x538C0, symBinAddr: 0x100063510, symSize: 0x20 }
  - { offsetInCU: 0xF6F7, offset: 0x3EA72, size: 0x8, addend: 0x0, symName: __ZNSt3__110__function10__not_nullB7v160006IZN7httplib6detail21write_content_chunkedIZNS2_6Server27write_content_with_providerERNS2_6StreamERKNS2_7RequestERNS2_8ResponseERKNS_12basic_stringIcNS_11char_traitsIcEENS_9allocatorIcEEEESK_EUlvE_NS3_10compressorEEEbS7_RKNS_8functionIFbmmRNS2_8DataSinkEEEERKT_RT0_RNS2_5ErrorEEUlvE0_EEbSW_, symObjAddr: 0x54EF0, symBinAddr: 0x100064B40, symSize: 0x20 }
  - { offsetInCU: 0xF729, offset: 0x3EAA4, size: 0x8, addend: 0x0, symName: __ZNSt3__110__function10__not_nullB7v160006IZZN7httplib6detail21write_content_chunkedIZNS2_6Server27write_content_with_providerERNS2_6StreamERKNS2_7RequestERNS2_8ResponseERKNS_12basic_stringIcNS_11char_traitsIcEENS_9allocatorIcEEEESK_EUlvE_NS3_10compressorEEEbS7_RKNS_8functionIFbmmRNS2_8DataSinkEEEERKT_RT0_RNS2_5ErrorEENKUlPKNS_8multimapISI_SI_NS3_2ciENSG_INS_4pairISJ_SI_EEEEEEE_clES18_EUlPKcmE_EEbSW_, symObjAddr: 0x56DA0, symBinAddr: 0x1000669F0, symSize: 0x20 }
  - { offsetInCU: 0xF75B, offset: 0x3EAD6, size: 0x8, addend: 0x0, symName: __ZNSt3__110__function10__not_nullB7v160006IZN7httplib6detail21write_content_chunkedIZNS2_6Server27write_content_with_providerERNS2_6StreamERKNS2_7RequestERNS2_8ResponseERKNS_12basic_stringIcNS_11char_traitsIcEENS_9allocatorIcEEEESK_EUlvE_NS3_10compressorEEEbS7_RKNS_8functionIFbmmRNS2_8DataSinkEEEERKT_RT0_RNS2_5ErrorEEUlRKNS_8multimapISI_SI_NS3_2ciENSG_INS_4pairISJ_SI_EEEEEEE_EEbSW_, symObjAddr: 0x58700, symBinAddr: 0x100068350, symSize: 0x20 }
  - { offsetInCU: 0xF78D, offset: 0x3EB08, size: 0x8, addend: 0x0, symName: __ZNSt3__110__function10__not_nullB7v160006IZN7httplib6detail28write_content_without_lengthIZNS2_6Server27write_content_with_providerERNS2_6StreamERKNS2_7RequestERNS2_8ResponseERKNS_12basic_stringIcNS_11char_traitsIcEENS_9allocatorIcEEEESK_EUlvE_EEbS7_RKNS_8functionIFbmmRNS2_8DataSinkEEEERKT_EUlPKcmE_EEbSV_, symObjAddr: 0x5A280, symBinAddr: 0x100069ED0, symSize: 0x20 }
  - { offsetInCU: 0xF7BF, offset: 0x3EB3A, size: 0x8, addend: 0x0, symName: __ZNSt3__110__function10__not_nullB7v160006IZN7httplib6detail28write_content_without_lengthIZNS2_6Server27write_content_with_providerERNS2_6StreamERKNS2_7RequestERNS2_8ResponseERKNS_12basic_stringIcNS_11char_traitsIcEENS_9allocatorIcEEEESK_EUlvE_EEbS7_RKNS_8functionIFbmmRNS2_8DataSinkEEEERKT_EUlvE_EEbSV_, symObjAddr: 0x5B960, symBinAddr: 0x10006B5B0, symSize: 0x20 }
  - { offsetInCU: 0xF7F1, offset: 0x3EB6C, size: 0x8, addend: 0x0, symName: __ZNSt3__110__function10__not_nullB7v160006IZN7httplib6detail28write_content_without_lengthIZNS2_6Server27write_content_with_providerERNS2_6StreamERKNS2_7RequestERNS2_8ResponseERKNS_12basic_stringIcNS_11char_traitsIcEENS_9allocatorIcEEEESK_EUlvE_EEbS7_RKNS_8functionIFbmmRNS2_8DataSinkEEEERKT_EUlvE0_EEbSV_, symObjAddr: 0x5CF60, symBinAddr: 0x10006CBB0, symSize: 0x20 }
  - { offsetInCU: 0xF84F, offset: 0x3EBCA, size: 0x8, addend: 0x0, symName: __ZNSt3__110__function10__not_nullB7v160006IZNK7httplib6Server18parse_request_lineEPKcRNS2_7RequestEEUlS5_S5_E_EEbRKT_, symObjAddr: 0x5EAB0, symBinAddr: 0x10006E700, symSize: 0x20 }
  - { offsetInCU: 0xF881, offset: 0x3EBFC, size: 0x8, addend: 0x0, symName: __ZNSt3__110__function10__not_nullB7v160006IZNK7httplib6Server18parse_request_lineEPKcRNS2_7RequestEEUlS5_S5_E0_EEbRKT_, symObjAddr: 0x61E40, symBinAddr: 0x100071A70, symSize: 0x20 }
  - { offsetInCU: 0xF8B3, offset: 0x3EC2E, size: 0x8, addend: 0x0, symName: __ZNSt3__110__function10__not_nullB7v160006IZN7httplib6detail16parse_query_textERKNS_12basic_stringIcNS_11char_traitsIcEENS_9allocatorIcEEEERNS_8multimapIS9_S9_NS_4lessIS9_EENS7_INS_4pairISA_S9_EEEEEEEUlPKcSL_E_EEbRKT_, symObjAddr: 0x63740, symBinAddr: 0x100073370, symSize: 0x20 }
  - { offsetInCU: 0xF8E5, offset: 0x3EC60, size: 0x8, addend: 0x0, symName: __ZNSt3__110__function10__not_nullB7v160006IZZN7httplib6detail16parse_query_textERKNS_12basic_stringIcNS_11char_traitsIcEENS_9allocatorIcEEEERNS_8multimapIS9_S9_NS_4lessIS9_EENS7_INS_4pairISA_S9_EEEEEEENKUlPKcSL_E_clESL_SL_EUlSL_SL_E_EEbRKT_, symObjAddr: 0x65560, symBinAddr: 0x100075190, symSize: 0x20 }
  - { offsetInCU: 0xF917, offset: 0x3EC92, size: 0x8, addend: 0x0, symName: __ZNSt3__110__function10__not_nullB7v160006IZN7httplib6detail18parse_range_headerERKNS_12basic_stringIcNS_11char_traitsIcEENS_9allocatorIcEEEERNS_6vectorINS_4pairIllEENS7_ISE_EEEEEUlPKcSJ_E_EEbRKT_, symObjAddr: 0x6CA30, symBinAddr: 0x10007C660, symSize: 0x20 }
  - { offsetInCU: 0xF949, offset: 0x3ECC4, size: 0x8, addend: 0x0, symName: __ZNSt3__110__function10__not_nullB7v160006IZN7httplib6Server19handle_file_requestERKNS2_7RequestERNS2_8ResponseEbEUlmmRNS2_8DataSinkEE_EEbRKT_, symObjAddr: 0x7AE30, symBinAddr: 0x10008AA60, symSize: 0x20 }
  - { offsetInCU: 0xF97B, offset: 0x3ECF6, size: 0x8, addend: 0x0, symName: __ZNSt3__110__function10__not_nullB7v160006IZN7httplib6Server7routingERNS2_7RequestERNS2_8ResponseERNS2_6StreamEEUlNS_8functionIFbPKcmEEEE_EEbRKT_, symObjAddr: 0x7C9A0, symBinAddr: 0x10008C5D0, symSize: 0x20 }
  - { offsetInCU: 0xF9AD, offset: 0x3ED28, size: 0x8, addend: 0x0, symName: __ZNSt3__110__function10__not_nullB7v160006IZNK7httplib6Server17read_content_coreERNS2_6StreamERNS2_7RequestERNS2_8ResponseENS_8functionIFbPKcmEEENSA_IFbRKNS2_17MultipartFormDataEEEESE_EUlSC_myyE_EEbRKT_, symObjAddr: 0x7F530, symBinAddr: 0x10008F160, symSize: 0x20 }
  - { offsetInCU: 0xF9DF, offset: 0x3ED5A, size: 0x8, addend: 0x0, symName: __ZNSt3__110__function10__not_nullB7v160006IZN7httplib6detail24parse_disposition_paramsERKNS_12basic_stringIcNS_11char_traitsIcEENS_9allocatorIcEEEERNS_8multimapIS9_S9_NS_4lessIS9_EENS7_INS_4pairISA_S9_EEEEEEEUlPKcSL_E_EEbRKT_, symObjAddr: 0x82760, symBinAddr: 0x100092390, symSize: 0x20 }
  - { offsetInCU: 0xFA11, offset: 0x3ED8C, size: 0x8, addend: 0x0, symName: __ZNSt3__110__function10__not_nullB7v160006IZZN7httplib6detail24parse_disposition_paramsERKNS_12basic_stringIcNS_11char_traitsIcEENS_9allocatorIcEEEERNS_8multimapIS9_S9_NS_4lessIS9_EENS7_INS_4pairISA_S9_EEEEEEENKUlPKcSL_E_clESL_SL_EUlSL_SL_E_EEbRKT_, symObjAddr: 0x840C0, symBinAddr: 0x100093CF0, symSize: 0x20 }
  - { offsetInCU: 0xFA43, offset: 0x3EDBE, size: 0x8, addend: 0x0, symName: __ZNSt3__110__function10__not_nullB7v160006IZNK7httplib6Server17read_content_coreERNS2_6StreamERNS2_7RequestERNS2_8ResponseENS_8functionIFbPKcmEEENSA_IFbRKNS2_17MultipartFormDataEEEESE_EUlSC_myyE0_EEbRKT_, symObjAddr: 0x85E50, symBinAddr: 0x100095A80, symSize: 0x20 }
  - { offsetInCU: 0xFA75, offset: 0x3EDF0, size: 0x8, addend: 0x0, symName: __ZNSt3__110__function10__not_nullB7v160006IZN7httplib6detail24prepare_content_receiverINS2_7RequestEZNS3_12read_contentIS5_EEbRNS2_6StreamERT_mRiNS_8functionIFbyyEEENSC_IFbPKcmyyEEEbEUlRKSI_E_EEbSA_SB_SI_bT0_EUlSG_myyE_EEbRKS9_, symObjAddr: 0x88210, symBinAddr: 0x100097E40, symSize: 0x20 }
  - { offsetInCU: 0xFAA7, offset: 0x3EE22, size: 0x8, addend: 0x0, symName: __ZNSt3__110__function10__not_nullB7v160006IZZN7httplib6detail24prepare_content_receiverINS2_7RequestEZNS3_12read_contentIS5_EEbRNS2_6StreamERT_mRiNS_8functionIFbyyEEENSC_IFbPKcmyyEEEbEUlRKSI_E_EEbSA_SB_SI_bT0_ENKUlSG_myyE_clESG_myyEUlSG_mE_EEbRKS9_, symObjAddr: 0x899C0, symBinAddr: 0x1000995F0, symSize: 0x20 }
  - { offsetInCU: 0xFAD9, offset: 0x3EE54, size: 0x8, addend: 0x0, symName: __ZNSt3__110__function10__not_nullB7v160006IZN7httplib6detail24prepare_content_receiverINS2_7RequestEZNS3_12read_contentIS5_EEbRNS2_6StreamERT_mRiNS_8functionIFbyyEEENSC_IFbPKcmyyEEEbEUlRKSI_E_EEbSA_SB_SI_bT0_EUlSG_myyE0_EEbRKS9_, symObjAddr: 0x8C2C0, symBinAddr: 0x10009BEF0, symSize: 0x20 }
  - { offsetInCU: 0xFB0B, offset: 0x3EE86, size: 0x8, addend: 0x0, symName: __ZNSt3__110__function10__not_nullB7v160006IZN7httplib6Server7routingERNS2_7RequestERNS2_8ResponseERNS2_6StreamEEUlNS_8functionIFbRKNS2_17MultipartFormDataEEEENSA_IFbPKcmEEEE_EEbRKT_, symObjAddr: 0x8E1B0, symBinAddr: 0x10009DDE0, symSize: 0x20 }
  - { offsetInCU: 0xFB3D, offset: 0x3EEB8, size: 0x8, addend: 0x0, symName: __ZNSt3__110__function10__not_nullB7v160006IZN7httplib6Server12read_contentERNS2_6StreamERNS2_7RequestERNS2_8ResponseEEUlPKcmE_EEbRKT_, symObjAddr: 0x90460, symBinAddr: 0x1000A0090, symSize: 0x20 }
  - { offsetInCU: 0xFB6F, offset: 0x3EEEA, size: 0x8, addend: 0x0, symName: __ZNSt3__110__function10__not_nullB7v160006IZN7httplib6Server12read_contentERNS2_6StreamERNS2_7RequestERNS2_8ResponseEEUlRKNS2_17MultipartFormDataEE_EEbRKT_, symObjAddr: 0x91AD0, symBinAddr: 0x1000A1700, symSize: 0x20 }
  - { offsetInCU: 0xFBA1, offset: 0x3EF1C, size: 0x8, addend: 0x0, symName: __ZNSt3__110__function10__not_nullB7v160006IZN7httplib6Server12read_contentERNS2_6StreamERNS2_7RequestERNS2_8ResponseEEUlPKcmE0_EEbRKT_, symObjAddr: 0x93E50, symBinAddr: 0x1000A3A80, symSize: 0x20 }
  - { offsetInCU: 0xFBD3, offset: 0x3EF4E, size: 0x8, addend: 0x0, symName: '__ZNSt3__110__function10__not_nullB7v160006IZ26obtaining_the_desired_wordvE3$_0EEbRKT_', symObjAddr: 0x9C5C0, symBinAddr: 0x1000AB1D0, symSize: 0x20 }
  - { offsetInCU: 0xFC06, offset: 0x3EF81, size: 0x8, addend: 0x0, symName: __ZNSt3__110__function10__not_nullB7v160006IZN7httplib6Server6listenERKNS_12basic_stringIcNS_11char_traitsIcEENS_9allocatorIcEEEEiiEUlvE_EEbRKT_, symObjAddr: 0x9F930, symBinAddr: 0x1000AE250, symSize: 0x20 }
  - { offsetInCU: 0xFC38, offset: 0x3EFB3, size: 0x8, addend: 0x0, symName: __ZNSt3__110__function10__not_nullB7v160006IZN7httplib6Server15listen_internalEvEUlvE_EEbRKT_, symObjAddr: 0xA1B60, symBinAddr: 0x1000B0480, symSize: 0x20 }
  - { offsetInCU: 0xFC6A, offset: 0x3EFE5, size: 0x8, addend: 0x0, symName: __ZNSt3__110__function10__not_nullB7v160006IZN7httplib6Server15listen_internalEvEUlvE0_EEbRKT_, symObjAddr: 0xA3270, symBinAddr: 0x1000B1B90, symSize: 0x20 }
  - { offsetInCU: 0x1D2E6, offset: 0x4C661, size: 0x8, addend: 0x0, symName: __ZNSt3__115regex_constants13__get_grammarB7v160006ENS0_18syntax_option_typeE, symObjAddr: 0x17720, symBinAddr: 0x10002A420, symSize: 0x20 }
  - { offsetInCU: 0x1D314, offset: 0x4C68F, size: 0x8, addend: 0x0, symName: __ZNSt3__115regex_constantsoRB7v160006ERNS0_18syntax_option_typeES1_, symObjAddr: 0x17740, symBinAddr: 0x10002A440, symSize: 0x30 }
  - { offsetInCU: 0x1D351, offset: 0x4C6CC, size: 0x8, addend: 0x0, symName: __ZNSt3__115regex_constantsorB7v160006ENS0_18syntax_option_typeES1_, symObjAddr: 0x17B20, symBinAddr: 0x10002A820, symSize: 0x20 }
  - { offsetInCU: 0x1D38E, offset: 0x4C709, size: 0x8, addend: 0x0, symName: __ZNSt3__115regex_constantsanB7v160006ENS0_18syntax_option_typeES1_, symObjAddr: 0x1AD60, symBinAddr: 0x10002DA60, symSize: 0x20 }
  - { offsetInCU: 0x1D3CB, offset: 0x4C746, size: 0x8, addend: 0x0, symName: __ZNSt3__115regex_constantsanB7v160006ENS0_15match_flag_typeES1_, symObjAddr: 0x1AF40, symBinAddr: 0x10002DC40, symSize: 0x20 }
  - { offsetInCU: 0x1D408, offset: 0x4C783, size: 0x8, addend: 0x0, symName: __ZNSt3__115regex_constantsorB7v160006ENS0_15match_flag_typeES1_, symObjAddr: 0x1C460, symBinAddr: 0x10002F0D0, symSize: 0x20 }
  - { offsetInCU: 0x1D445, offset: 0x4C7C0, size: 0x8, addend: 0x0, symName: __ZNSt3__115regex_constantscoB7v160006ENS0_15match_flag_typeE, symObjAddr: 0x1C480, symBinAddr: 0x10002F0F0, symSize: 0x20 }
  - { offsetInCU: 0x1D473, offset: 0x4C7EE, size: 0x8, addend: 0x0, symName: __ZNSt3__115regex_constantsaNB7v160006ERNS0_15match_flag_typeES1_, symObjAddr: 0x6E780, symBinAddr: 0x10007E3B0, symSize: 0x30 }
  - { offsetInCU: 0x1D4B0, offset: 0x4C82B, size: 0x8, addend: 0x0, symName: __ZNSt3__115regex_constantsoRB7v160006ERNS0_15match_flag_typeES1_, symObjAddr: 0x6E900, symBinAddr: 0x10007E530, symSize: 0x30 }
  - { offsetInCU: 0x35D37, offset: 0x650B2, size: 0x8, addend: 0x0, symName: __ZNSt3__14__fs10filesystem12current_pathB7v160006Ev, symObjAddr: 0x1B40, symBinAddr: 0x1000176D0, symSize: 0x30 }
  - { offsetInCU: 0x35D55, offset: 0x650D0, size: 0x8, addend: 0x0, symName: __ZNSt3__14__fs10filesystem5beginB7v160006ENS1_18directory_iteratorE, symObjAddr: 0x2920, symBinAddr: 0x100018490, symSize: 0x30 }
  - { offsetInCU: 0x35D82, offset: 0x650FD, size: 0x8, addend: 0x0, symName: __ZNSt3__14__fs10filesystem3endB7v160006ENS1_18directory_iteratorE, symObjAddr: 0x29A0, symBinAddr: 0x100018510, symSize: 0x30 }
  - { offsetInCU: 0x35DAC, offset: 0x65127, size: 0x8, addend: 0x0, symName: __ZNSt3__14__fs10filesystemneB7v160006ERKNS1_18directory_iteratorES4_, symObjAddr: 0x29D0, symBinAddr: 0x100018540, symSize: 0x30 }
  - { offsetInCU: 0x35DE6, offset: 0x65161, size: 0x8, addend: 0x0, symName: __ZNSt3__14__fs10filesystemeqB7v160006ERKNS1_4pathES4_, symObjAddr: 0x2A20, symBinAddr: 0x100018590, symSize: 0x60 }
  - { offsetInCU: 0x35E23, offset: 0x6519E, size: 0x8, addend: 0x0, symName: __ZNSt3__14__fs10filesystem6removeB7v160006ERKNS1_4pathE, symObjAddr: 0x2AF0, symBinAddr: 0x100018660, symSize: 0x30 }
  - { offsetInCU: 0x35E4F, offset: 0x651CA, size: 0x8, addend: 0x0, symName: __ZNSt3__14__fs10filesystemeqB7v160006ERKNS1_18directory_iteratorES4_, symObjAddr: 0x34E70, symBinAddr: 0x100046080, symSize: 0x30 }
  - { offsetInCU: 0x3EA8A, offset: 0x6DE05, size: 0x8, addend: 0x0, symName: __ZNSt3__16chronomiB7v160006IxNS_5ratioILl1ELl1000000000EEExS3_EENS_11common_typeIJNS0_8durationIT_T0_EENS5_IT1_T2_EEEE4typeERKS8_RKSB_, symObjAddr: 0x376B0, symBinAddr: 0x100047690, symSize: 0x70 }
  - { offsetInCU: 0x3F127, offset: 0x6E4A2, size: 0x8, addend: 0x0, symName: __ZNSt3__16chrono13duration_castB7v160006INS0_8durationIxNS_5ratioILl1ELl1000EEEEExNS3_ILl1ELl1000000000EEEEENS_9enable_ifIXsr13__is_durationIT_EE5valueES8_E4typeERKNS2_IT0_T1_EE, symObjAddr: 0x37450, symBinAddr: 0x100047430, symSize: 0x30 }
  - { offsetInCU: 0x3F16E, offset: 0x6E4E9, size: 0x8, addend: 0x0, symName: __ZNSt3__16chronomiB7v160006INS0_12steady_clockENS0_8durationIxNS_5ratioILl1ELl1000000000EEEEES6_EENS_11common_typeIJT0_T1_EE4typeERKNS0_10time_pointIT_S8_EERKNSC_ISD_S9_EE, symObjAddr: 0x37480, symBinAddr: 0x100047460, symSize: 0x50 }
  - { offsetInCU: 0x3F2B7, offset: 0x6E632, size: 0x8, addend: 0x0, symName: __ZNSt3__16chronogtB7v160006IxNS_5ratioILl1ELl1000EEExS3_EEbRKNS0_8durationIT_T0_EERKNS4_IT1_T2_EE, symObjAddr: 0x37790, symBinAddr: 0x100047770, symSize: 0x30 }
  - { offsetInCU: 0x3F318, offset: 0x6E693, size: 0x8, addend: 0x0, symName: __ZNSt3__16chronoltB7v160006IxNS_5ratioILl1ELl1000EEEeNS2_ILl1ELl1EEEEEbRKNS0_8durationIT_T0_EERKNS5_IT1_T2_EE, symObjAddr: 0x37800, symBinAddr: 0x1000477E0, symSize: 0x30 }
  - { offsetInCU: 0x3F379, offset: 0x6E6F4, size: 0x8, addend: 0x0, symName: __ZNSt3__16chrono13duration_castB7v160006INS0_8durationIxNS_5ratioILl1ELl1000000000EEEEExNS3_ILl1ELl1000EEEEENS_9enable_ifIXsr13__is_durationIT_EE5valueES8_E4typeERKNS2_IT0_T1_EE, symObjAddr: 0x37830, symBinAddr: 0x100047810, symSize: 0x30 }
  - { offsetInCU: 0x3F3C0, offset: 0x6E73B, size: 0x8, addend: 0x0, symName: __ZNSt3__16chronoltB7v160006IxNS_5ratioILl1ELl1000000000EEExNS2_ILl1ELl1000EEEEEbRKNS0_8durationIT_T0_EERKNS5_IT1_T2_EE, symObjAddr: 0x37860, symBinAddr: 0x100047840, symSize: 0x30 }
  - { offsetInCU: 0x3F421, offset: 0x6E79C, size: 0x8, addend: 0x0, symName: __ZNSt3__16chronoltB7v160006IxNS_5ratioILl1ELl1000EEExS3_EEbRKNS0_8durationIT_T0_EERKNS4_IT1_T2_EE, symObjAddr: 0x378F0, symBinAddr: 0x1000478D0, symSize: 0x30 }
  - { offsetInCU: 0x3F4FF, offset: 0x6E87A, size: 0x8, addend: 0x0, symName: __ZNSt3__16chrono13duration_castB7v160006INS0_8durationIeNS_5ratioILl1ELl1000EEEEExS4_EENS_9enable_ifIXsr13__is_durationIT_EE5valueES7_E4typeERKNS2_IT0_T1_EE, symObjAddr: 0x37AA0, symBinAddr: 0x100047A80, symSize: 0x30 }
  - { offsetInCU: 0x3F591, offset: 0x6E90C, size: 0x8, addend: 0x0, symName: __ZNSt3__16chrono13duration_castB7v160006INS0_8durationIeNS_5ratioILl1ELl1000EEEEEeNS3_ILl1ELl1EEEEENS_9enable_ifIXsr13__is_durationIT_EE5valueES8_E4typeERKNS2_IT0_T1_EE, symObjAddr: 0x37BA0, symBinAddr: 0x100047B80, symSize: 0x30 }
  - { offsetInCU: 0x3F5D8, offset: 0x6E953, size: 0x8, addend: 0x0, symName: __ZNSt3__16chronogtB7v160006IxNS_5ratioILl1ELl1EEExS3_EEbRKNS0_8durationIT_T0_EERKNS4_IT1_T2_EE, symObjAddr: 0xA4A50, symBinAddr: 0x1000B3370, symSize: 0x30 }
  - { offsetInCU: 0x3F639, offset: 0x6E9B4, size: 0x8, addend: 0x0, symName: __ZNSt3__16chronoltB7v160006IxNS_5ratioILl1ELl1EEEeS3_EEbRKNS0_8durationIT_T0_EERKNS4_IT1_T2_EE, symObjAddr: 0xA4AC0, symBinAddr: 0x1000B33E0, symSize: 0x30 }
  - { offsetInCU: 0x3F69A, offset: 0x6EA15, size: 0x8, addend: 0x0, symName: __ZNSt3__16chrono13duration_castB7v160006INS0_8durationIxNS_5ratioILl1ELl1000000000EEEEExNS3_ILl1ELl1EEEEENS_9enable_ifIXsr13__is_durationIT_EE5valueES8_E4typeERKNS2_IT0_T1_EE, symObjAddr: 0xA4AF0, symBinAddr: 0x1000B3410, symSize: 0x30 }
  - { offsetInCU: 0x3F6E1, offset: 0x6EA5C, size: 0x8, addend: 0x0, symName: __ZNSt3__16chronoltB7v160006IxNS_5ratioILl1ELl1000000000EEExNS2_ILl1ELl1EEEEEbRKNS0_8durationIT_T0_EERKNS5_IT1_T2_EE, symObjAddr: 0xA4B20, symBinAddr: 0x1000B3440, symSize: 0x30 }
  - { offsetInCU: 0x3F742, offset: 0x6EABD, size: 0x8, addend: 0x0, symName: __ZNSt3__16chronoltB7v160006IxNS_5ratioILl1ELl1EEExS3_EEbRKNS0_8durationIT_T0_EERKNS4_IT1_T2_EE, symObjAddr: 0xA4B50, symBinAddr: 0x1000B3470, symSize: 0x30 }
  - { offsetInCU: 0x3F7E0, offset: 0x6EB5B, size: 0x8, addend: 0x0, symName: __ZNSt3__16chrono13duration_castB7v160006INS0_8durationIeNS_5ratioILl1ELl1EEEEExS4_EENS_9enable_ifIXsr13__is_durationIT_EE5valueES7_E4typeERKNS2_IT0_T1_EE, symObjAddr: 0xA4D10, symBinAddr: 0x1000B3630, symSize: 0x30 }
  - { offsetInCU: 0x44C56, offset: 0x73FD1, size: 0x8, addend: 0x0, symName: __ZNSt3__17advanceB7v160006IPNS_6threadEllvEEvRT_T0_, symObjAddr: 0xB680, symBinAddr: 0x100020340, symSize: 0x50 }
  - { offsetInCU: 0x44ED6, offset: 0x74251, size: 0x8, addend: 0x0, symName: __ZNSt3__17advanceB7v160006INS_16reverse_iteratorIPNS_6threadEEEllvEEvRT_T0_, symObjAddr: 0xBAE0, symBinAddr: 0x100020790, symSize: 0x50 }
  - { offsetInCU: 0x472DA, offset: 0x76655, size: 0x8, addend: 0x0, symName: __ZNSt3__17advanceB7v160006IPNS_4pairINS_10unique_ptrIN7httplib6detail11MatcherBaseENS_14default_deleteIS5_EEEENS_8functionIFvRKNS3_7RequestERNS3_8ResponseEEEEEEllvEEvRT_T0_, symObjAddr: 0x13BD0, symBinAddr: 0x100028820, symSize: 0x50 }
  - { offsetInCU: 0x4755A, offset: 0x768D5, size: 0x8, addend: 0x0, symName: __ZNSt3__17advanceB7v160006INS_16reverse_iteratorIPNS_4pairINS_10unique_ptrIN7httplib6detail11MatcherBaseENS_14default_deleteIS6_EEEENS_8functionIFvRKNS4_7RequestERNS4_8ResponseEEEEEEEEllvEEvRT_T0_, symObjAddr: 0x13FC0, symBinAddr: 0x100028C10, symSize: 0x50 }
  - { offsetInCU: 0x47E85, offset: 0x77200, size: 0x8, addend: 0x0, symName: __ZNSt3__17advanceB7v160006IPKcllvEEvRT_T0_, symObjAddr: 0x1AFF0, symBinAddr: 0x10002DCF0, symSize: 0x50 }
  - { offsetInCU: 0x47EF0, offset: 0x7726B, size: 0x8, addend: 0x0, symName: __ZNSt3__17advanceB7v160006INS_11__wrap_iterIPKcEEllvEEvRT_T0_, symObjAddr: 0x1B240, symBinAddr: 0x10002DF40, symSize: 0x50 }
  - { offsetInCU: 0x49872, offset: 0x78BED, size: 0x8, addend: 0x0, symName: __ZNSt3__17advanceB7v160006IPNS_7__stateIcEEllvEEvRT_T0_, symObjAddr: 0x1F060, symBinAddr: 0x100031CD0, symSize: 0x50 }
  - { offsetInCU: 0x49AF2, offset: 0x78E6D, size: 0x8, addend: 0x0, symName: __ZNSt3__17advanceB7v160006INS_16reverse_iteratorIPNS_7__stateIcEEEEllvEEvRT_T0_, symObjAddr: 0x1F4B0, symBinAddr: 0x100032120, symSize: 0x50 }
  - { offsetInCU: 0x49EBB, offset: 0x79236, size: 0x8, addend: 0x0, symName: __ZNSt3__17advanceB7v160006IPNS_9sub_matchIPKcEEllvEEvRT_T0_, symObjAddr: 0x20AE0, symBinAddr: 0x100033750, symSize: 0x50 }
  - { offsetInCU: 0x4A13B, offset: 0x794B6, size: 0x8, addend: 0x0, symName: __ZNSt3__17advanceB7v160006INS_16reverse_iteratorIPNS_9sub_matchIPKcEEEEllvEEvRT_T0_, symObjAddr: 0x20ED0, symBinAddr: 0x100033B40, symSize: 0x50 }
  - { offsetInCU: 0x4A504, offset: 0x7987F, size: 0x8, addend: 0x0, symName: __ZNSt3__17advanceB7v160006IPNS_4pairImPKcEEllvEEvRT_T0_, symObjAddr: 0x22270, symBinAddr: 0x100034EE0, symSize: 0x50 }
  - { offsetInCU: 0x4A784, offset: 0x79AFF, size: 0x8, addend: 0x0, symName: __ZNSt3__17advanceB7v160006INS_16reverse_iteratorIPNS_4pairImPKcEEEEllvEEvRT_T0_, symObjAddr: 0x22660, symBinAddr: 0x1000352D0, symSize: 0x50 }
  - { offsetInCU: 0x4AF6B, offset: 0x7A2E6, size: 0x8, addend: 0x0, symName: __ZNSt3__17advanceB7v160006IPNS_4pairINS_12basic_stringIcNS_11char_traitsIcEENS_9allocatorIcEEEES7_EEllvEEvRT_T0_, symObjAddr: 0x2E360, symBinAddr: 0x1000404D0, symSize: 0x50 }
  - { offsetInCU: 0x4B1EB, offset: 0x7A566, size: 0x8, addend: 0x0, symName: __ZNSt3__17advanceB7v160006INS_16reverse_iteratorIPNS_4pairINS_12basic_stringIcNS_11char_traitsIcEENS_9allocatorIcEEEES8_EEEEllvEEvRT_T0_, symObjAddr: 0x2E750, symBinAddr: 0x1000408C0, symSize: 0x50 }
  - { offsetInCU: 0x4B5B4, offset: 0x7A92F, size: 0x8, addend: 0x0, symName: __ZNSt3__17advanceB7v160006IPNS_4pairIccEEllvEEvRT_T0_, symObjAddr: 0x2F9C0, symBinAddr: 0x100041B30, symSize: 0x50 }
  - { offsetInCU: 0x4B834, offset: 0x7ABAF, size: 0x8, addend: 0x0, symName: __ZNSt3__17advanceB7v160006INS_16reverse_iteratorIPNS_4pairIccEEEEllvEEvRT_T0_, symObjAddr: 0x2FDB0, symBinAddr: 0x100041F20, symSize: 0x50 }
  - { offsetInCU: 0x4B89E, offset: 0x7AC19, size: 0x8, addend: 0x0, symName: __ZNSt3__117__cxx_atomic_loadB7v160006IbEET_PKNS_22__cxx_atomic_base_implIS1_EENS_12memory_orderE, symObjAddr: 0x337A0, symBinAddr: 0x100045910, symSize: 0x70 }
  - { offsetInCU: 0x4B8FB, offset: 0x7AC76, size: 0x8, addend: 0x0, symName: __ZNSt3__117__cxx_atomic_loadB7v160006IiEET_PKNS_22__cxx_atomic_base_implIS1_EENS_12memory_orderE, symObjAddr: 0x33840, symBinAddr: 0x1000459B0, symSize: 0x70 }
  - { offsetInCU: 0x4BFE0, offset: 0x7B35B, size: 0x8, addend: 0x0, symName: __ZNSt3__17advanceB7v160006INS_20__map_const_iteratorINS_21__tree_const_iteratorINS_12__value_typeINS_12basic_stringIcNS_11char_traitsIcEENS_9allocatorIcEEEES9_EEPNS_11__tree_nodeISA_PvEElEEEEllvEEvRT_T0_, symObjAddr: 0x473F0, symBinAddr: 0x100057300, symSize: 0x50 }
  - { offsetInCU: 0x50E1E, offset: 0x80199, size: 0x8, addend: 0x0, symName: __ZNSt3__16copy_nB7v160006IPKcmPcEENS_9enable_ifIXsr33__is_cpp17_random_access_iteratorIT_EE5valueET1_E4typeES5_T0_S6_, symObjAddr: 0x53030, symBinAddr: 0x100062C80, symSize: 0x40 }
  - { offsetInCU: 0x5849E, offset: 0x87819, size: 0x8, addend: 0x0, symName: __ZNSt3__17advanceB7v160006INS_21__tree_const_iteratorINS_12basic_stringIcNS_11char_traitsIcEENS_9allocatorIcEEEEPNS_11__tree_nodeIS7_PvEElEEllvEEvRT_T0_, symObjAddr: 0x610A0, symBinAddr: 0x100070CD0, symSize: 0x50 }
  - { offsetInCU: 0x5D220, offset: 0x8C59B, size: 0x8, addend: 0x0, symName: __ZNSt3__17advanceB7v160006IPNS_9sub_matchIPKcEEmmvEEvRT_T0_, symObjAddr: 0x73850, symBinAddr: 0x100083480, symSize: 0x50 }
  - { offsetInCU: 0x5D28B, offset: 0x8C606, size: 0x8, addend: 0x0, symName: __ZNSt3__17advanceB7v160006IPNS_4pairImPKcEEmmvEEvRT_T0_, symObjAddr: 0x73EF0, symBinAddr: 0x100083B20, symSize: 0x50 }
  - { offsetInCU: 0x5D628, offset: 0x8C9A3, size: 0x8, addend: 0x0, symName: __ZNSt3__17advanceB7v160006IPNS_4pairIllEEllvEEvRT_T0_, symObjAddr: 0x75370, symBinAddr: 0x100084FA0, symSize: 0x50 }
  - { offsetInCU: 0x5D8A8, offset: 0x8CC23, size: 0x8, addend: 0x0, symName: __ZNSt3__17advanceB7v160006INS_16reverse_iteratorIPNS_4pairIllEEEEllvEEvRT_T0_, symObjAddr: 0x75760, symBinAddr: 0x100085390, symSize: 0x50 }
  - { offsetInCU: 0x5E045, offset: 0x8D3C0, size: 0x8, addend: 0x0, symName: __ZNSt3__17advanceB7v160006IPNS_9sub_matchINS_11__wrap_iterIPKcEEEEllvEEvRT_T0_, symObjAddr: 0x7A350, symBinAddr: 0x100089F80, symSize: 0x50 }
  - { offsetInCU: 0x5E2C5, offset: 0x8D640, size: 0x8, addend: 0x0, symName: __ZNSt3__17advanceB7v160006INS_16reverse_iteratorIPNS_9sub_matchINS_11__wrap_iterIPKcEEEEEEllvEEvRT_T0_, symObjAddr: 0x7A740, symBinAddr: 0x10008A370, symSize: 0x50 }
  - { offsetInCU: 0x7446F, offset: 0xA37EA, size: 0x8, addend: 0x0, symName: __ZNSt3__111regex_matchB7v160006INS_11char_traitsIcEENS_9allocatorIcEENS3_INS_9sub_matchINS_11__wrap_iterIPKcEEEEEEcNS_12regex_traitsIcEEEEbRKNS_12basic_stringIT2_T_T0_EERNS_13match_resultsINSI_14const_iteratorET1_EERKNS_11basic_regexISF_T3_EENS_15regex_constants15match_flag_typeE, symObjAddr: 0x7D0, symBinAddr: 0x1000163B0, symSize: 0x60 }
  - { offsetInCU: 0x772C8, offset: 0xA6643, size: 0x8, addend: 0x0, symName: __ZNSt3__111this_thread9sleep_forB7v160006IxNS_5ratioILl1ELl1EEEEEvRKNS_6chrono8durationIT_T0_EE, symObjAddr: 0x1890, symBinAddr: 0x100017440, symSize: 0xD0 }
  - { offsetInCU: 0x77330, offset: 0xA66AB, size: 0x8, addend: 0x0, symName: __ZNSt3__111this_thread6get_idB7v160006Ev, symObjAddr: 0x6270, symBinAddr: 0x10001B2A0, symSize: 0x40 }
  - { offsetInCU: 0x7734F, offset: 0xA66CA, size: 0x8, addend: 0x0, symName: __ZNSt3__111this_thread9sleep_forB7v160006IxNS_5ratioILl1ELl1000EEEEEvRKNS_6chrono8durationIT_T0_EE, symObjAddr: 0x374F0, symBinAddr: 0x1000474D0, symSize: 0xD0 }
  - { offsetInCU: 0x7805C, offset: 0xA73D7, size: 0x8, addend: 0x0, symName: __ZNSt3__118__debug_db_erase_cB7v160006INS_6vectorIcNS_9allocatorIcEEEEEEvPT_, symObjAddr: 0x42F0, symBinAddr: 0x100019650, symSize: 0x10 }
  - { offsetInCU: 0x7808D, offset: 0xA7408, size: 0x8, addend: 0x0, symName: __ZNSt3__110destroy_atB7v160006IcLi0EEEvPT_, symObjAddr: 0x44B0, symBinAddr: 0x1000197D0, symSize: 0x20 }
  - { offsetInCU: 0x780C4, offset: 0xA743F, size: 0x8, addend: 0x0, symName: __ZNSt3__112__destroy_atB7v160006IcLi0EEEvPT_, symObjAddr: 0x44D0, symBinAddr: 0x1000197F0, symSize: 0x10 }
  - { offsetInCU: 0x780FB, offset: 0xA7476, size: 0x8, addend: 0x0, symName: __ZNSt3__115__debug_db_swapB7v160006INS_6vectorINS_9sub_matchINS_11__wrap_iterIPKcEEEENS_9allocatorIS7_EEEEEEvPT_SC_, symObjAddr: 0x48B0, symBinAddr: 0x100019A60, symSize: 0x10 }
  - { offsetInCU: 0x7813A, offset: 0xA74B5, size: 0x8, addend: 0x0, symName: __ZNSt3__125__debug_db_invalidate_allB7v160006INS_6vectorINS_9sub_matchINS_11__wrap_iterIPKcEEEENS_9allocatorIS7_EEEEEEvPT_, symObjAddr: 0x4A90, symBinAddr: 0x100019C40, symSize: 0x10 }
  - { offsetInCU: 0x7816A, offset: 0xA74E5, size: 0x8, addend: 0x0, symName: __ZNSt3__112__to_addressB7v160006INS_9sub_matchINS_11__wrap_iterIPKcEEEEEEPT_S8_, symObjAddr: 0x4B40, symBinAddr: 0x100019CF0, symSize: 0x10 }
  - { offsetInCU: 0x781A0, offset: 0xA751B, size: 0x8, addend: 0x0, symName: __ZNSt3__110destroy_atB7v160006INS_9sub_matchINS_11__wrap_iterIPKcEEEELi0EEEvPT_, symObjAddr: 0x4B50, symBinAddr: 0x100019D00, symSize: 0x20 }
  - { offsetInCU: 0x781D7, offset: 0xA7552, size: 0x8, addend: 0x0, symName: __ZNSt3__112__destroy_atB7v160006INS_9sub_matchINS_11__wrap_iterIPKcEEEELi0EEEvPT_, symObjAddr: 0x4B70, symBinAddr: 0x100019D20, symSize: 0x10 }
  - { offsetInCU: 0x7820E, offset: 0xA7589, size: 0x8, addend: 0x0, symName: __ZNSt3__118__debug_db_erase_cB7v160006INS_6vectorINS_9sub_matchINS_11__wrap_iterIPKcEEEENS_9allocatorIS7_EEEEEEvPT_, symObjAddr: 0x4F30, symBinAddr: 0x10001A0E0, symSize: 0x10 }
  - { offsetInCU: 0x7827D, offset: 0xA75F8, size: 0x8, addend: 0x0, symName: __ZNSt3__118__debug_db_erase_cB7v160006INS_6vectorINS_4pairINS_10unique_ptrIN7httplib6detail11MatcherBaseENS_14default_deleteIS6_EEEENS_8functionIFvRKNS4_7RequestERNS4_8ResponseEEEEEENS_9allocatorISI_EEEEEEvPT_, symObjAddr: 0x52B0, symBinAddr: 0x10001A2E0, symSize: 0x10 }
  - { offsetInCU: 0x782AD, offset: 0xA7628, size: 0x8, addend: 0x0, symName: __ZNSt3__112__to_addressB7v160006INS_4pairINS_10unique_ptrIN7httplib6detail11MatcherBaseENS_14default_deleteIS5_EEEENS_8functionIFvRKNS3_7RequestERNS3_8ResponseEEEEEEEEPT_SJ_, symObjAddr: 0x53C0, symBinAddr: 0x10001A3F0, symSize: 0x10 }
  - { offsetInCU: 0x782E3, offset: 0xA765E, size: 0x8, addend: 0x0, symName: __ZNSt3__110destroy_atB7v160006INS_4pairINS_10unique_ptrIN7httplib6detail11MatcherBaseENS_14default_deleteIS5_EEEENS_8functionIFvRKNS3_7RequestERNS3_8ResponseEEEEEELi0EEEvPT_, symObjAddr: 0x5470, symBinAddr: 0x10001A4A0, symSize: 0x20 }
  - { offsetInCU: 0x7831A, offset: 0xA7695, size: 0x8, addend: 0x0, symName: __ZNSt3__112__destroy_atB7v160006INS_4pairINS_10unique_ptrIN7httplib6detail11MatcherBaseENS_14default_deleteIS5_EEEENS_8functionIFvRKNS3_7RequestERNS3_8ResponseEEEEEELi0EEEvPT_, symObjAddr: 0x5490, symBinAddr: 0x10001A4C0, symSize: 0x20 }
  - { offsetInCU: 0x78351, offset: 0xA76CC, size: 0x8, addend: 0x0, symName: __ZNSt3__118__debug_db_erase_cB7v160006INS_6vectorINS_4pairINS_10unique_ptrIN7httplib6detail11MatcherBaseENS_14default_deleteIS6_EEEENS_8functionIFvRKNS4_7RequestERNS4_8ResponseERKNS4_13ContentReaderEEEEEENS_9allocatorISL_EEEEEEvPT_, symObjAddr: 0x58E0, symBinAddr: 0x10001A910, symSize: 0x10 }
  - { offsetInCU: 0x78381, offset: 0xA76FC, size: 0x8, addend: 0x0, symName: __ZNSt3__112__to_addressB7v160006INS_4pairINS_10unique_ptrIN7httplib6detail11MatcherBaseENS_14default_deleteIS5_EEEENS_8functionIFvRKNS3_7RequestERNS3_8ResponseERKNS3_13ContentReaderEEEEEEEEPT_SM_, symObjAddr: 0x59F0, symBinAddr: 0x10001AA20, symSize: 0x10 }
  - { offsetInCU: 0x783B7, offset: 0xA7732, size: 0x8, addend: 0x0, symName: __ZNSt3__110destroy_atB7v160006INS_4pairINS_10unique_ptrIN7httplib6detail11MatcherBaseENS_14default_deleteIS5_EEEENS_8functionIFvRKNS3_7RequestERNS3_8ResponseERKNS3_13ContentReaderEEEEEELi0EEEvPT_, symObjAddr: 0x5AA0, symBinAddr: 0x10001AAD0, symSize: 0x20 }
  - { offsetInCU: 0x783EE, offset: 0xA7769, size: 0x8, addend: 0x0, symName: __ZNSt3__112__destroy_atB7v160006INS_4pairINS_10unique_ptrIN7httplib6detail11MatcherBaseENS_14default_deleteIS5_EEEENS_8functionIFvRKNS3_7RequestERNS3_8ResponseERKNS3_13ContentReaderEEEEEELi0EEEvPT_, symObjAddr: 0x5AC0, symBinAddr: 0x10001AAF0, symSize: 0x20 }
  - { offsetInCU: 0x78425, offset: 0xA77A0, size: 0x8, addend: 0x0, symName: __ZNSt3__118__debug_db_erase_cB7v160006INS_6vectorIN7httplib6Server15MountPointEntryENS_9allocatorIS4_EEEEEEvPT_, symObjAddr: 0x5E80, symBinAddr: 0x10001AEB0, symSize: 0x10 }
  - { offsetInCU: 0x78455, offset: 0xA77D0, size: 0x8, addend: 0x0, symName: __ZNSt3__112__to_addressB7v160006IN7httplib6Server15MountPointEntryEEEPT_S5_, symObjAddr: 0x5FB0, symBinAddr: 0x10001AFE0, symSize: 0x10 }
  - { offsetInCU: 0x7848B, offset: 0xA7806, size: 0x8, addend: 0x0, symName: __ZNSt3__110destroy_atB7v160006IN7httplib6Server15MountPointEntryELi0EEEvPT_, symObjAddr: 0x6060, symBinAddr: 0x10001B090, symSize: 0x20 }
  - { offsetInCU: 0x784C2, offset: 0xA783D, size: 0x8, addend: 0x0, symName: __ZNSt3__112__destroy_atB7v160006IN7httplib6Server15MountPointEntryELi0EEEvPT_, symObjAddr: 0x6080, symBinAddr: 0x10001B0B0, symSize: 0x20 }
  - { offsetInCU: 0x784F8, offset: 0xA7873, size: 0x8, addend: 0x0, symName: __ZNSt3__1eqB7v160006ENS_11__thread_idES0_, symObjAddr: 0x61F0, symBinAddr: 0x10001B220, symSize: 0x80 }
  - { offsetInCU: 0x78535, offset: 0xA78B0, size: 0x8, addend: 0x0, symName: __ZNSt3__124__libcpp_thread_id_equalB7v160006EP17_opaque_pthread_tS1_, symObjAddr: 0x62D0, symBinAddr: 0x10001B300, symSize: 0x20 }
  - { offsetInCU: 0x78572, offset: 0xA78ED, size: 0x8, addend: 0x0, symName: __ZNSt3__130__libcpp_thread_get_current_idB7v160006Ev, symObjAddr: 0x62F0, symBinAddr: 0x10001B320, symSize: 0x20 }
  - { offsetInCU: 0x785A0, offset: 0xA791B, size: 0x8, addend: 0x0, symName: __ZNSt3__122__libcpp_thread_get_idB7v160006EPKP17_opaque_pthread_t, symObjAddr: 0x6340, symBinAddr: 0x10001B370, symSize: 0x20 }
  - { offsetInCU: 0x7867E, offset: 0xA79F9, size: 0x8, addend: 0x0, symName: __ZNSt3__116forward_as_tupleB7v160006IJZN7httplib6ServerC1EvEUlvE_EEENS_5tupleIJDpOT_EEES7_, symObjAddr: 0x71D0, symBinAddr: 0x10001C1F0, symSize: 0x30 }
  - { offsetInCU: 0x786B7, offset: 0xA7A32, size: 0x8, addend: 0x0, symName: __ZNSt3__116forward_as_tupleB7v160006IJNS_9allocatorIZN7httplib6ServerC1EvEUlvE_EEEEENS_5tupleIJDpOT_EEES9_, symObjAddr: 0x7200, symBinAddr: 0x10001C220, symSize: 0x30 }
  - { offsetInCU: 0x7871A, offset: 0xA7A95, size: 0x8, addend: 0x0, symName: __ZNSt3__13getB7v160006ILm0EJOZN7httplib6ServerC1EvEUlvE_EEERNS_13tuple_elementIXT_ENS_5tupleIJDpT0_EEEE4typeERS9_, symObjAddr: 0x74B0, symBinAddr: 0x10001C4D0, symSize: 0x20 }
  - { offsetInCU: 0x7875C, offset: 0xA7AD7, size: 0x8, addend: 0x0, symName: __ZNSt3__13getB7v160006ILm0EJONS_9allocatorIZN7httplib6ServerC1EvEUlvE_EEEEERNS_13tuple_elementIXT_ENS_5tupleIJDpT0_EEEE4typeERSB_, symObjAddr: 0x74F0, symBinAddr: 0x10001C510, symSize: 0x20 }
  - { offsetInCU: 0x78C83, offset: 0xA7FFE, size: 0x8, addend: 0x0, symName: __ZNSt3__116forward_as_tupleB7v160006IJRKZN7httplib6ServerC1EvEUlvE_EEENS_5tupleIJDpOT_EEES9_, symObjAddr: 0x7AB0, symBinAddr: 0x10001C9E0, symSize: 0x30 }
  - { offsetInCU: 0x78CD1, offset: 0xA804C, size: 0x8, addend: 0x0, symName: __ZNSt3__13getB7v160006ILm0EJRKZN7httplib6ServerC1EvEUlvE_EEERNS_13tuple_elementIXT_ENS_5tupleIJDpT0_EEEE4typeERSA_, symObjAddr: 0x7C60, symBinAddr: 0x10001CB90, symSize: 0x20 }
  - { offsetInCU: 0x78D13, offset: 0xA808E, size: 0x8, addend: 0x0, symName: __ZNSt3__116forward_as_tupleB7v160006IJRKNS_9allocatorIZN7httplib6ServerC1EvEUlvE_EEEEENS_5tupleIJDpOT_EEESB_, symObjAddr: 0x7F50, symBinAddr: 0x10001CE80, symSize: 0x30 }
  - { offsetInCU: 0x78D61, offset: 0xA80DC, size: 0x8, addend: 0x0, symName: __ZNSt3__13getB7v160006ILm0EJRKNS_9allocatorIZN7httplib6ServerC1EvEUlvE_EEEEERNS_13tuple_elementIXT_ENS_5tupleIJDpT0_EEEE4typeERSC_, symObjAddr: 0x8100, symBinAddr: 0x10001D030, symSize: 0x20 }
  - { offsetInCU: 0x78DDE, offset: 0xA8159, size: 0x8, addend: 0x0, symName: __ZNSt3__18__invokeB7v160006IRZN7httplib6ServerC1EvEUlvE_JEEEDTclclsr3stdE7declvalIT_EEspclsr3stdE7declvalIT0_EEEEOS5_DpOS6_, symObjAddr: 0x81C0, symBinAddr: 0x10001D0F0, symSize: 0x20 }
  - { offsetInCU: 0x78E1A, offset: 0xA8195, size: 0x8, addend: 0x0, symName: __ZNSt3__13maxB7v160006IjEERKT_S3_S3_, symObjAddr: 0x8290, symBinAddr: 0x10001D1C0, symSize: 0x30 }
  - { offsetInCU: 0x78E5D, offset: 0xA81D8, size: 0x8, addend: 0x0, symName: __ZNSt3__13maxB7v160006IjNS_6__lessIjjEEEERKT_S5_S5_T0_, symObjAddr: 0x82F0, symBinAddr: 0x10001D220, symSize: 0x50 }
  - { offsetInCU: 0x78EF3, offset: 0xA826E, size: 0x8, addend: 0x0, symName: __ZNSt3__119__debug_db_insert_cB7v160006INS_6vectorINS_6threadENS_9allocatorIS2_EEEEEEvPT_, symObjAddr: 0x88D0, symBinAddr: 0x10001D800, symSize: 0x10 }
  - { offsetInCU: 0x78F24, offset: 0xA829F, size: 0x8, addend: 0x0, symName: __ZNSt3__119__debug_db_insert_cB7v160006INS_4listINS_8functionIFvvEEENS_9allocatorIS4_EEEEEEvPT_, symObjAddr: 0x8A20, symBinAddr: 0x10001D950, symSize: 0x10 }
  - { offsetInCU: 0x78F87, offset: 0xA8302, size: 0x8, addend: 0x0, symName: __ZNSt3__112__to_addressB7v160006INS_6threadEEEPT_S3_, symObjAddr: 0x8E70, symBinAddr: 0x10001DD80, symSize: 0x10 }
  - { offsetInCU: 0x78FE1, offset: 0xA835C, size: 0x8, addend: 0x0, symName: __ZNSt3__112construct_atB7v160006INS_6threadEJN7httplib10ThreadPool6workerEEPS1_EEPT_S7_DpOT0_, symObjAddr: 0x8EE0, symBinAddr: 0x10001DDF0, symSize: 0x40 }
  - { offsetInCU: 0x7944E, offset: 0xA87C9, size: 0x8, addend: 0x0, symName: __ZNSt3__122__libcpp_thread_createB7v160006EPP17_opaque_pthread_tPFPvS3_ES3_, symObjAddr: 0x9120, symBinAddr: 0x10001E030, symSize: 0x30 }
  - { offsetInCU: 0x7949A, offset: 0xA8815, size: 0x8, addend: 0x0, symName: __ZNSt3__114__thread_proxyB7v160006INS_5tupleIJNS_10unique_ptrINS_15__thread_structENS_14default_deleteIS3_EEEEN7httplib10ThreadPool6workerEEEEEEPvSB_, symObjAddr: 0x9150, symBinAddr: 0x10001E060, symSize: 0xA0 }
  - { offsetInCU: 0x795E1, offset: 0xA895C, size: 0x8, addend: 0x0, symName: __ZNSt3__13getB7v160006ILm0EJNS_10unique_ptrINS_15__thread_structENS_14default_deleteIS2_EEEEN7httplib10ThreadPool6workerEEEERNS_13tuple_elementIXT_ENS_5tupleIJDpT0_EEEE4typeERSD_, symObjAddr: 0x9760, symBinAddr: 0x10001E670, symSize: 0x20 }
  - { offsetInCU: 0x7962A, offset: 0xA89A5, size: 0x8, addend: 0x0, symName: __ZNSt3__116__thread_executeB7v160006INS_10unique_ptrINS_15__thread_structENS_14default_deleteIS2_EEEEN7httplib10ThreadPool6workerEJEJEEEvRNS_5tupleIJT_T0_DpT1_EEENS_15__tuple_indicesIJXspT2_EEEE, symObjAddr: 0x9780, symBinAddr: 0x10001E690, symSize: 0x30 }
  - { offsetInCU: 0x7967B, offset: 0xA89F6, size: 0x8, addend: 0x0, symName: __ZNSt3__116__libcpp_tls_setB7v160006EmPv, symObjAddr: 0x97B0, symBinAddr: 0x10001E6C0, symSize: 0x30 }
  - { offsetInCU: 0x796B9, offset: 0xA8A34, size: 0x8, addend: 0x0, symName: __ZNSt3__18__invokeB7v160006IN7httplib10ThreadPool6workerEJEEEDTclclsr3stdE7declvalIT_EEspclsr3stdE7declvalIT0_EEEEOS4_DpOS5_, symObjAddr: 0x97F0, symBinAddr: 0x10001E700, symSize: 0x20 }
  - { offsetInCU: 0x796F0, offset: 0xA8A6B, size: 0x8, addend: 0x0, symName: __ZNSt3__13getB7v160006ILm1EJNS_10unique_ptrINS_15__thread_structENS_14default_deleteIS2_EEEEN7httplib10ThreadPool6workerEEEERNS_13tuple_elementIXT_ENS_5tupleIJDpT0_EEEE4typeERSD_, symObjAddr: 0x9810, symBinAddr: 0x10001E720, symSize: 0x20 }
  - { offsetInCU: 0x79739, offset: 0xA8AB4, size: 0x8, addend: 0x0, symName: __ZNSt3__110destroy_atB7v160006INS_8functionIFvvEEELi0EEEvPT_, symObjAddr: 0xA060, symBinAddr: 0x10001EF50, symSize: 0x20 }
  - { offsetInCU: 0x79770, offset: 0xA8AEB, size: 0x8, addend: 0x0, symName: __ZNSt3__112__destroy_atB7v160006INS_8functionIFvvEEELi0EEEvPT_, symObjAddr: 0xA080, symBinAddr: 0x10001EF70, symSize: 0x20 }
  - { offsetInCU: 0x797A7, offset: 0xA8B22, size: 0x8, addend: 0x0, symName: __ZNSt3__125__throw_bad_function_callB7v160006Ev, symObjAddr: 0xA170, symBinAddr: 0x10001F060, symSize: 0x40 }
  - { offsetInCU: 0x797F7, offset: 0xA8B72, size: 0x8, addend: 0x0, symName: __ZNSt3__119__allocate_at_leastB7v160006INS_9allocatorINS_6threadEEEEENS_19__allocation_resultINS_16allocator_traitsIT_E7pointerEEERS6_m, symObjAddr: 0xAD60, symBinAddr: 0x10001FA20, symSize: 0x40 }
  - { offsetInCU: 0x7983A, offset: 0xA8BB5, size: 0x8, addend: 0x0, symName: __ZNSt3__142__uninitialized_allocator_move_if_noexceptB7v160006INS_9allocatorINS_6threadEEENS_16reverse_iteratorIPS2_EES6_S6_EET2_RT_T0_T1_S7_, symObjAddr: 0xAFA0, symBinAddr: 0x10001FC60, symSize: 0x180 }
  - { offsetInCU: 0x798D9, offset: 0xA8C54, size: 0x8, addend: 0x0, symName: __ZNSt3__14swapB7v160006IPNS_6threadEEENS_9enable_ifIXaasr21is_move_constructibleIT_EE5valuesr18is_move_assignableIS4_EE5valueEvE4typeERS4_S7_, symObjAddr: 0xB170, symBinAddr: 0x10001FE30, symSize: 0x40 }
  - { offsetInCU: 0x7992B, offset: 0xA8CA6, size: 0x8, addend: 0x0, symName: __ZNSt3__125__debug_db_invalidate_allB7v160006INS_6vectorINS_6threadENS_9allocatorIS2_EEEEEEvPT_, symObjAddr: 0xB260, symBinAddr: 0x10001FF20, symSize: 0x10 }
  - { offsetInCU: 0x7995B, offset: 0xA8CD6, size: 0x8, addend: 0x0, symName: __ZNSt3__122__make_exception_guardB7v160006INS_29_AllocatorDestroyRangeReverseINS_9allocatorINS_6threadEEENS_16reverse_iteratorIPS3_EEEEEENS_28__exception_guard_exceptionsIT_EESA_, symObjAddr: 0xB2B0, symBinAddr: 0x10001FF70, symSize: 0x60 }
  - { offsetInCU: 0x79990, offset: 0xA8D0B, size: 0x8, addend: 0x0, symName: __ZNSt3__1neB7v160006IPNS_6threadES2_EEbRKNS_16reverse_iteratorIT_EERKNS3_IT0_EE, symObjAddr: 0xB350, symBinAddr: 0x100020010, symSize: 0x40 }
  - { offsetInCU: 0x799DC, offset: 0xA8D57, size: 0x8, addend: 0x0, symName: __ZNSt3__112__to_addressB7v160006INS_16reverse_iteratorIPNS_6threadEEEvEENS_5decayIDTclsr19__to_address_helperIT_EE6__callclsr3stdE7declvalIRKS6_EEEEE4typeES8_, symObjAddr: 0xB3C0, symBinAddr: 0x100020080, symSize: 0x20 }
  - { offsetInCU: 0x79A12, offset: 0xA8D8D, size: 0x8, addend: 0x0, symName: __ZNSt3__112construct_atB7v160006INS_6threadEJS1_EPS1_EEPT_S4_DpOT0_, symObjAddr: 0xB520, symBinAddr: 0x1000201E0, symSize: 0x40 }
  - { offsetInCU: 0x79AAC, offset: 0xA8E27, size: 0x8, addend: 0x0, symName: __ZNSt3__14prevB7v160006IPNS_6threadEEENS_9enable_ifIXsr25__is_cpp17_input_iteratorIT_EE5valueES4_E4typeES4_NS_15iterator_traitsIS4_E15difference_typeE, symObjAddr: 0xB630, symBinAddr: 0x1000202F0, symSize: 0x50 }
  - { offsetInCU: 0x79AF0, offset: 0xA8E6B, size: 0x8, addend: 0x0, symName: __ZNSt3__19__advanceB7v160006IPNS_6threadEEEvRT_NS_15iterator_traitsIS3_E15difference_typeENS_26random_access_iterator_tagE, symObjAddr: 0xB6E0, symBinAddr: 0x100020390, symSize: 0x20 }
  - { offsetInCU: 0x79B3A, offset: 0xA8EB5, size: 0x8, addend: 0x0, symName: __ZNSt3__119__allocator_destroyB7v160006INS_9allocatorINS_6threadEEENS_16reverse_iteratorINS4_IPS2_EEEES7_EEvRT_T0_T1_, symObjAddr: 0xB830, symBinAddr: 0x1000204E0, symSize: 0x70 }
  - { offsetInCU: 0x79B9C, offset: 0xA8F17, size: 0x8, addend: 0x0, symName: __ZNSt3__1neB7v160006INS_16reverse_iteratorIPNS_6threadEEES4_EEbRKNS1_IT_EERKNS1_IT0_EE, symObjAddr: 0xB8D0, symBinAddr: 0x100020580, symSize: 0x50 }
  - { offsetInCU: 0x79BE8, offset: 0xA8F63, size: 0x8, addend: 0x0, symName: __ZNSt3__112__to_addressB7v160006INS_16reverse_iteratorINS1_IPNS_6threadEEEEEvEENS_5decayIDTclsr19__to_address_helperIT_EE6__callclsr3stdE7declvalIRKS7_EEEEE4typeES9_, symObjAddr: 0xB940, symBinAddr: 0x1000205F0, symSize: 0x20 }
  - { offsetInCU: 0x79C1F, offset: 0xA8F9A, size: 0x8, addend: 0x0, symName: __ZNSt3__110destroy_atB7v160006INS_6threadELi0EEEvPT_, symObjAddr: 0xB9B0, symBinAddr: 0x100020660, symSize: 0x20 }
  - { offsetInCU: 0x79C56, offset: 0xA8FD1, size: 0x8, addend: 0x0, symName: __ZNSt3__112__destroy_atB7v160006INS_6threadELi0EEEvPT_, symObjAddr: 0xB9D0, symBinAddr: 0x100020680, symSize: 0x20 }
  - { offsetInCU: 0x79CB6, offset: 0xA9031, size: 0x8, addend: 0x0, symName: __ZNSt3__14prevB7v160006INS_16reverse_iteratorIPNS_6threadEEEEENS_9enable_ifIXsr25__is_cpp17_input_iteratorIT_EE5valueES6_E4typeES6_NS_15iterator_traitsIS6_E15difference_typeE, symObjAddr: 0xBA80, symBinAddr: 0x100020730, symSize: 0x60 }
  - { offsetInCU: 0x79CFA, offset: 0xA9075, size: 0x8, addend: 0x0, symName: __ZNSt3__19__advanceB7v160006INS_16reverse_iteratorIPNS_6threadEEEEEvRT_NS_15iterator_traitsIS5_E15difference_typeENS_26random_access_iterator_tagE, symObjAddr: 0xBB30, symBinAddr: 0x1000207E0, symSize: 0x30 }
  - { offsetInCU: 0x79D44, offset: 0xA90BF, size: 0x8, addend: 0x0, symName: __ZNSt3__118__debug_db_erase_cB7v160006INS_10__list_impINS_8functionIFvvEEENS_9allocatorIS4_EEEEEEvPT_, symObjAddr: 0xBFA0, symBinAddr: 0x100020C50, symSize: 0x10 }
  - { offsetInCU: 0x79D75, offset: 0xA90F0, size: 0x8, addend: 0x0, symName: __ZNSt3__125__debug_db_invalidate_allB7v160006INS_10__list_impINS_8functionIFvvEEENS_9allocatorIS4_EEEEEEvPT_, symObjAddr: 0xBFE0, symBinAddr: 0x100020C90, symSize: 0x10 }
  - { offsetInCU: 0x79DA6, offset: 0xA9121, size: 0x8, addend: 0x0, symName: __ZNSt3__118__debug_db_erase_cB7v160006INS_6vectorINS_6threadENS_9allocatorIS2_EEEEEEvPT_, symObjAddr: 0xC110, symBinAddr: 0x100020DC0, symSize: 0x10 }
  - { offsetInCU: 0x79E19, offset: 0xA9194, size: 0x8, addend: 0x0, symName: __ZNSt3__112construct_atB7v160006INS_8functionIFvvEEEJS3_EPS3_EEPT_S6_DpOT0_, symObjAddr: 0xC750, symBinAddr: 0x100021400, symSize: 0x40 }
  - { offsetInCU: 0x79E89, offset: 0xA9204, size: 0x8, addend: 0x0, symName: __ZNSt3__1neB7v160006IPNS_6threadEEEbRKNS_11__wrap_iterIT_EES7_, symObjAddr: 0xCA80, symBinAddr: 0x100021730, symSize: 0x30 }
  - { offsetInCU: 0x79ECC, offset: 0xA9247, size: 0x8, addend: 0x0, symName: __ZNSt3__1eqB7v160006IPNS_6threadEEEbRKNS_11__wrap_iterIT_EES7_, symObjAddr: 0xCB70, symBinAddr: 0x100021820, symSize: 0x40 }
  - { offsetInCU: 0x79F10, offset: 0xA928B, size: 0x8, addend: 0x0, symName: __ZNSt3__119__debug_db_insert_cB7v160006INS_6vectorIN7httplib6Server15MountPointEntryENS_9allocatorIS4_EEEEEEvPT_, symObjAddr: 0xCEB0, symBinAddr: 0x100021B50, symSize: 0x10 }
  - { offsetInCU: 0x79F74, offset: 0xA92EF, size: 0x8, addend: 0x0, symName: __ZNSt3__119__debug_db_insert_cB7v160006INS_6vectorINS_4pairINS_10unique_ptrIN7httplib6detail11MatcherBaseENS_14default_deleteIS6_EEEENS_8functionIFvRKNS4_7RequestERNS4_8ResponseEEEEEENS_9allocatorISI_EEEEEEvPT_, symObjAddr: 0xD370, symBinAddr: 0x100022010, symSize: 0x10 }
  - { offsetInCU: 0x79FA5, offset: 0xA9320, size: 0x8, addend: 0x0, symName: __ZNSt3__119__debug_db_insert_cB7v160006INS_6vectorINS_4pairINS_10unique_ptrIN7httplib6detail11MatcherBaseENS_14default_deleteIS6_EEEENS_8functionIFvRKNS4_7RequestERNS4_8ResponseERKNS4_13ContentReaderEEEEEENS_9allocatorISL_EEEEEEvPT_, symObjAddr: 0xD4C0, symBinAddr: 0x100022160, symSize: 0x10 }
  - { offsetInCU: 0x7A085, offset: 0xA9400, size: 0x8, addend: 0x0, symName: __ZNSt3__116forward_as_tupleB7v160006IJPFviEEEENS_5tupleIJDpOT_EEES6_, symObjAddr: 0xDD80, symBinAddr: 0x100022A20, symSize: 0x30 }
  - { offsetInCU: 0x7A0BE, offset: 0xA9439, size: 0x8, addend: 0x0, symName: __ZNSt3__116forward_as_tupleB7v160006IJNS_9allocatorIPFviEEEEEENS_5tupleIJDpOT_EEES8_, symObjAddr: 0xDDB0, symBinAddr: 0x100022A50, symSize: 0x30 }
  - { offsetInCU: 0x7A121, offset: 0xA949C, size: 0x8, addend: 0x0, symName: __ZNSt3__13getB7v160006ILm0EJOPFviEEEERNS_13tuple_elementIXT_ENS_5tupleIJDpT0_EEEE4typeERS8_, symObjAddr: 0xE080, symBinAddr: 0x100022D20, symSize: 0x20 }
  - { offsetInCU: 0x7A163, offset: 0xA94DE, size: 0x8, addend: 0x0, symName: __ZNSt3__13getB7v160006ILm0EJONS_9allocatorIPFviEEEEEERNS_13tuple_elementIXT_ENS_5tupleIJDpT0_EEEE4typeERSA_, symObjAddr: 0xE0C0, symBinAddr: 0x100022D60, symSize: 0x20 }
  - { offsetInCU: 0x7A68A, offset: 0xA9A05, size: 0x8, addend: 0x0, symName: __ZNSt3__116forward_as_tupleB7v160006IJRKPFviEEEENS_5tupleIJDpOT_EEES8_, symObjAddr: 0xE590, symBinAddr: 0x100023230, symSize: 0x30 }
  - { offsetInCU: 0x7A6D8, offset: 0xA9A53, size: 0x8, addend: 0x0, symName: __ZNSt3__13getB7v160006ILm0EJRKPFviEEEERNS_13tuple_elementIXT_ENS_5tupleIJDpT0_EEEE4typeERS9_, symObjAddr: 0xE760, symBinAddr: 0x100023400, symSize: 0x20 }
  - { offsetInCU: 0x7A71A, offset: 0xA9A95, size: 0x8, addend: 0x0, symName: __ZNSt3__116forward_as_tupleB7v160006IJRKNS_9allocatorIPFviEEEEEENS_5tupleIJDpOT_EEESA_, symObjAddr: 0xEA50, symBinAddr: 0x1000236F0, symSize: 0x30 }
  - { offsetInCU: 0x7A768, offset: 0xA9AE3, size: 0x8, addend: 0x0, symName: __ZNSt3__13getB7v160006ILm0EJRKNS_9allocatorIPFviEEEEEERNS_13tuple_elementIXT_ENS_5tupleIJDpT0_EEEE4typeERSB_, symObjAddr: 0xEC00, symBinAddr: 0x1000238A0, symSize: 0x20 }
  - { offsetInCU: 0x7AA29, offset: 0xA9DA4, size: 0x8, addend: 0x0, symName: __ZNSt3__18__invokeB7v160006IRPFviEJiEEEDTclclsr3stdE7declvalIT_EEspclsr3stdE7declvalIT0_EEEEOS4_DpOS5_, symObjAddr: 0xECD0, symBinAddr: 0x100023970, symSize: 0x30 }
  - { offsetInCU: 0x7AA75, offset: 0xA9DF0, size: 0x8, addend: 0x0, symName: __ZNSt3__1neB7v160006ERKNS_20__map_const_iteratorINS_21__tree_const_iteratorINS_12__value_typeINS_12basic_stringIcNS_11char_traitsIcEENS_9allocatorIcEEEES8_EEPNS_11__tree_nodeIS9_PvEElEEEESH_, symObjAddr: 0xEF40, symBinAddr: 0x100023BE0, symSize: 0x30 }
  - { offsetInCU: 0x7AAB2, offset: 0xA9E2D, size: 0x8, addend: 0x0, symName: __ZNSt3__1neB7v160006ERKNS_21__tree_const_iteratorINS_12__value_typeINS_12basic_stringIcNS_11char_traitsIcEENS_9allocatorIcEEEES7_EEPNS_11__tree_nodeIS8_PvEElEESF_, symObjAddr: 0xF480, symBinAddr: 0x100024120, symSize: 0x30 }
  - { offsetInCU: 0x7AAEF, offset: 0xA9E6A, size: 0x8, addend: 0x0, symName: __ZNSt3__1eqB7v160006ERKNS_21__tree_const_iteratorINS_12__value_typeINS_12basic_stringIcNS_11char_traitsIcEENS_9allocatorIcEEEES7_EEPNS_11__tree_nodeIS8_PvEElEESF_, symObjAddr: 0xF4B0, symBinAddr: 0x100024150, symSize: 0x30 }
  - { offsetInCU: 0x7AB5F, offset: 0xA9EDA, size: 0x8, addend: 0x0, symName: __ZNSt3__17launderB7v160006IKNS_4pairIKNS_12basic_stringIcNS_11char_traitsIcEENS_9allocatorIcEEEES7_EEEEPT_SC_, symObjAddr: 0xF560, symBinAddr: 0x100024200, symSize: 0x20 }
  - { offsetInCU: 0x7AB96, offset: 0xA9F11, size: 0x8, addend: 0x0, symName: __ZNSt3__19__launderB7v160006IKNS_4pairIKNS_12basic_stringIcNS_11char_traitsIcEENS_9allocatorIcEEEES7_EEEEPT_SC_, symObjAddr: 0xF580, symBinAddr: 0x100024220, symSize: 0x10 }
  - { offsetInCU: 0x7AE93, offset: 0xAA20E, size: 0x8, addend: 0x0, symName: __ZNSt3__122__make_exception_guardB7v160006INS_6vectorIcNS_9allocatorIcEEE16__destroy_vectorEEENS_28__exception_guard_exceptionsIT_EES7_, symObjAddr: 0xF780, symBinAddr: 0x100024420, symSize: 0x40 }
  - { offsetInCU: 0x7AEC9, offset: 0xAA244, size: 0x8, addend: 0x0, symName: __ZNSt3__119__debug_db_insert_cB7v160006INS_6vectorIcNS_9allocatorIcEEEEEEvPT_, symObjAddr: 0xF7C0, symBinAddr: 0x100024460, symSize: 0x10 }
  - { offsetInCU: 0x7AEF9, offset: 0xAA274, size: 0x8, addend: 0x0, symName: __ZNSt3__119__allocate_at_leastB7v160006INS_9allocatorIcEEEENS_19__allocation_resultINS_16allocator_traitsIT_E7pointerEEERS5_m, symObjAddr: 0xFAC0, symBinAddr: 0x100024740, symSize: 0x40 }
  - { offsetInCU: 0x7AF61, offset: 0xAA2DC, size: 0x8, addend: 0x0, symName: __ZNSt3__112construct_atB7v160006IcJEPcEEPT_S3_DpOT0_, symObjAddr: 0xFD60, symBinAddr: 0x1000249B0, symSize: 0x20 }
  - { offsetInCU: 0x7AFBD, offset: 0xAA338, size: 0x8, addend: 0x0, symName: __ZNSt3__142__uninitialized_allocator_move_if_noexceptB7v160006INS_9allocatorIcEENS_16reverse_iteratorIPcEES5_cvEET1_RT_T0_S9_S6_, symObjAddr: 0x104B0, symBinAddr: 0x100025100, symSize: 0x70 }
  - { offsetInCU: 0x7B03A, offset: 0xAA3B5, size: 0x8, addend: 0x0, symName: __ZNSt3__14swapB7v160006IPcEENS_9enable_ifIXaasr21is_move_constructibleIT_EE5valuesr18is_move_assignableIS3_EE5valueEvE4typeERS3_S6_, symObjAddr: 0x10570, symBinAddr: 0x1000251C0, symSize: 0x40 }
  - { offsetInCU: 0x7B08C, offset: 0xAA407, size: 0x8, addend: 0x0, symName: __ZNSt3__125__debug_db_invalidate_allB7v160006INS_6vectorIcNS_9allocatorIcEEEEEEvPT_, symObjAddr: 0x105B0, symBinAddr: 0x100025200, symSize: 0x10 }
  - { offsetInCU: 0x7B0BC, offset: 0xAA437, size: 0x8, addend: 0x0, symName: __ZNSt3__14moveB7v160006INS_16reverse_iteratorIPcEES3_EET0_T_S5_S4_, symObjAddr: 0x105C0, symBinAddr: 0x100025210, symSize: 0x80 }
  - { offsetInCU: 0x7B116, offset: 0xAA491, size: 0x8, addend: 0x0, symName: __ZNSt3__16__moveB7v160006INS_17_ClassicAlgPolicyENS_16reverse_iteratorIPcEES4_S4_EENS_4pairIT0_T2_EES6_T1_S7_, symObjAddr: 0x10640, symBinAddr: 0x100025290, symSize: 0x90 }
  - { offsetInCU: 0x7B182, offset: 0xAA4FD, size: 0x8, addend: 0x0, symName: __ZNSt3__123__dispatch_copy_or_moveB7v160006INS_17_ClassicAlgPolicyENS_11__move_loopIS1_EENS_14__move_trivialENS_16reverse_iteratorIPcEES7_S7_EENS_4pairIT2_T4_EES9_T3_SA_, symObjAddr: 0x106D0, symBinAddr: 0x100025320, symSize: 0x90 }
  - { offsetInCU: 0x7B200, offset: 0xAA57B, size: 0x8, addend: 0x0, symName: __ZNSt3__121__unwrap_and_dispatchB7v160006INS_10__overloadINS_11__move_loopINS_17_ClassicAlgPolicyEEENS_14__move_trivialEEENS_16reverse_iteratorIPcEES9_S9_Li0EEENS_4pairIT0_T2_EESB_T1_SC_, symObjAddr: 0x10760, symBinAddr: 0x1000253B0, symSize: 0x210 }
  - { offsetInCU: 0x7B28F, offset: 0xAA60A, size: 0x8, addend: 0x0, symName: __ZNSt3__114__unwrap_rangeB7v160006INS_16reverse_iteratorIPcEES3_EEDaT_T0_, symObjAddr: 0x10970, symBinAddr: 0x1000255C0, symSize: 0x60 }
  - { offsetInCU: 0x7B440, offset: 0xAA7BB, size: 0x8, addend: 0x0, symName: __ZNSt3__113__unwrap_iterB7v160006INS_16reverse_iteratorIPcEENS_18__unwrap_iter_implIS3_Lb0EEELi0EEEDTclsrT0_8__unwrapclsr3stdE7declvalIT_EEEES7_, symObjAddr: 0x10A70, symBinAddr: 0x1000256C0, symSize: 0x40 }
  - { offsetInCU: 0x7B484, offset: 0xAA7FF, size: 0x8, addend: 0x0, symName: __ZNSt3__19make_pairB7v160006INS_16reverse_iteratorIPcEES3_EENS_4pairINS_18__unwrap_ref_decayIT_E4typeENS5_IT0_E4typeEEEOS6_OS9_, symObjAddr: 0x10AB0, symBinAddr: 0x100025700, symSize: 0x30 }
  - { offsetInCU: 0x7B4D3, offset: 0xAA84E, size: 0x8, addend: 0x0, symName: __ZNSt3__114__rewrap_rangeB7v160006INS_16reverse_iteratorIPcEES3_S3_EET0_S4_T1_, symObjAddr: 0x10AE0, symBinAddr: 0x100025730, symSize: 0x60 }
  - { offsetInCU: 0x7B528, offset: 0xAA8A3, size: 0x8, addend: 0x0, symName: __ZNSt3__113__rewrap_iterB7v160006INS_16reverse_iteratorIPcEES3_NS_18__unwrap_iter_implIS3_Lb0EEEEET_S6_T0_, symObjAddr: 0x10B40, symBinAddr: 0x100025790, symSize: 0x70 }
  - { offsetInCU: 0x7B5CD, offset: 0xAA948, size: 0x8, addend: 0x0, symName: __ZNSt3__1neB7v160006IPcS1_EEbRKNS_16reverse_iteratorIT_EERKNS2_IT0_EE, symObjAddr: 0x10CB0, symBinAddr: 0x100025900, symSize: 0x40 }
  - { offsetInCU: 0x7B75F, offset: 0xAAADA, size: 0x8, addend: 0x0, symName: __ZNSt3__116__tree_next_iterB7v160006IPNS_15__tree_end_nodeIPNS_16__tree_node_baseIPvEEEES5_EET_T0_, symObjAddr: 0x110D0, symBinAddr: 0x100025D20, symSize: 0x90 }
  - { offsetInCU: 0x7B79D, offset: 0xAAB18, size: 0x8, addend: 0x0, symName: __ZNSt3__110__tree_minB7v160006IPNS_16__tree_node_baseIPvEEEET_S5_, symObjAddr: 0x11160, symBinAddr: 0x100025DB0, symSize: 0x30 }
  - { offsetInCU: 0x7B7D2, offset: 0xAAB4D, size: 0x8, addend: 0x0, symName: __ZNSt3__120__tree_is_left_childB7v160006IPNS_16__tree_node_baseIPvEEEEbT_, symObjAddr: 0x11190, symBinAddr: 0x100025DE0, symSize: 0x30 }
  - { offsetInCU: 0x7B8B7, offset: 0xAAC32, size: 0x8, addend: 0x0, symName: __ZNSt3__116forward_as_tupleB7v160006IJPFlRN7httplib6StreamERKNS_8multimapINS_12basic_stringIcNS_11char_traitsIcEENS_9allocatorIcEEEESA_NS1_6detail2ciENS8_INS_4pairIKSA_SA_EEEEEEEEEENS_5tupleIJDpOT_EEESP_, symObjAddr: 0x11860, symBinAddr: 0x1000264B0, symSize: 0x30 }
  - { offsetInCU: 0x7B8F0, offset: 0xAAC6B, size: 0x8, addend: 0x0, symName: __ZNSt3__116forward_as_tupleB7v160006IJNS_9allocatorIPFlRN7httplib6StreamERKNS_8multimapINS_12basic_stringIcNS_11char_traitsIcEENS1_IcEEEESA_NS2_6detail2ciENS1_INS_4pairIKSA_SA_EEEEEEEEEEEENS_5tupleIJDpOT_EEESQ_, symObjAddr: 0x11890, symBinAddr: 0x1000264E0, symSize: 0x30 }
  - { offsetInCU: 0x7B953, offset: 0xAACCE, size: 0x8, addend: 0x0, symName: __ZNSt3__13getB7v160006ILm0EJOPFlRN7httplib6StreamERKNS_8multimapINS_12basic_stringIcNS_11char_traitsIcEENS_9allocatorIcEEEESA_NS1_6detail2ciENS8_INS_4pairIKSA_SA_EEEEEEEEEERNS_13tuple_elementIXT_ENS_5tupleIJDpT0_EEEE4typeERSR_, symObjAddr: 0x11B60, symBinAddr: 0x1000267B0, symSize: 0x20 }
  - { offsetInCU: 0x7B995, offset: 0xAAD10, size: 0x8, addend: 0x0, symName: __ZNSt3__13getB7v160006ILm0EJONS_9allocatorIPFlRN7httplib6StreamERKNS_8multimapINS_12basic_stringIcNS_11char_traitsIcEENS1_IcEEEESA_NS2_6detail2ciENS1_INS_4pairIKSA_SA_EEEEEEEEEEEERNS_13tuple_elementIXT_ENS_5tupleIJDpT0_EEEE4typeERSS_, symObjAddr: 0x11BA0, symBinAddr: 0x1000267F0, symSize: 0x20 }
  - { offsetInCU: 0x7BEBC, offset: 0xAB237, size: 0x8, addend: 0x0, symName: __ZNSt3__116forward_as_tupleB7v160006IJRKPFlRN7httplib6StreamERKNS_8multimapINS_12basic_stringIcNS_11char_traitsIcEENS_9allocatorIcEEEESA_NS1_6detail2ciENS8_INS_4pairIKSA_SA_EEEEEEEEEENS_5tupleIJDpOT_EEESR_, symObjAddr: 0x12070, symBinAddr: 0x100026CC0, symSize: 0x30 }
  - { offsetInCU: 0x7BF0A, offset: 0xAB285, size: 0x8, addend: 0x0, symName: __ZNSt3__13getB7v160006ILm0EJRKPFlRN7httplib6StreamERKNS_8multimapINS_12basic_stringIcNS_11char_traitsIcEENS_9allocatorIcEEEESA_NS1_6detail2ciENS8_INS_4pairIKSA_SA_EEEEEEEEEERNS_13tuple_elementIXT_ENS_5tupleIJDpT0_EEEE4typeERSS_, symObjAddr: 0x12240, symBinAddr: 0x100026E90, symSize: 0x20 }
  - { offsetInCU: 0x7BF4C, offset: 0xAB2C7, size: 0x8, addend: 0x0, symName: __ZNSt3__116forward_as_tupleB7v160006IJRKNS_9allocatorIPFlRN7httplib6StreamERKNS_8multimapINS_12basic_stringIcNS_11char_traitsIcEENS1_IcEEEESA_NS2_6detail2ciENS1_INS_4pairIKSA_SA_EEEEEEEEEEEENS_5tupleIJDpOT_EEESS_, symObjAddr: 0x12530, symBinAddr: 0x100027180, symSize: 0x30 }
  - { offsetInCU: 0x7BF9A, offset: 0xAB315, size: 0x8, addend: 0x0, symName: __ZNSt3__13getB7v160006ILm0EJRKNS_9allocatorIPFlRN7httplib6StreamERKNS_8multimapINS_12basic_stringIcNS_11char_traitsIcEENS1_IcEEEESA_NS2_6detail2ciENS1_INS_4pairIKSA_SA_EEEEEEEEEEEERNS_13tuple_elementIXT_ENS_5tupleIJDpT0_EEEE4typeERST_, symObjAddr: 0x126E0, symBinAddr: 0x100027330, symSize: 0x20 }
  - { offsetInCU: 0x7C02B, offset: 0xAB3A6, size: 0x8, addend: 0x0, symName: __ZNSt3__18__invokeB7v160006IRPFlRN7httplib6StreamERKNS_8multimapINS_12basic_stringIcNS_11char_traitsIcEENS_9allocatorIcEEEESA_NS1_6detail2ciENS8_INS_4pairIKSA_SA_EEEEEEEJS3_RSH_EEEDTclclsr3stdE7declvalIT_EEspclsr3stdE7declvalIT0_EEEEOSO_DpOSP_, symObjAddr: 0x127C0, symBinAddr: 0x100027410, symSize: 0x30 }
  - { offsetInCU: 0x7C0B5, offset: 0xAB430, size: 0x8, addend: 0x0, symName: __ZNSt3__112construct_atB7v160006INS_4pairINS_10unique_ptrIN7httplib6detail11MatcherBaseENS_14default_deleteIS5_EEEENS_8functionIFvRKNS3_7RequestERNS3_8ResponseEEEEEEJS8_SG_EPSH_EEPT_SK_DpOT0_, symObjAddr: 0x12BB0, symBinAddr: 0x100027800, symSize: 0x40 }
  - { offsetInCU: 0x7C138, offset: 0xAB4B3, size: 0x8, addend: 0x0, symName: __ZNSt3__119__allocate_at_leastB7v160006INS_9allocatorINS_4pairINS_10unique_ptrIN7httplib6detail11MatcherBaseENS_14default_deleteIS6_EEEENS_8functionIFvRKNS4_7RequestERNS4_8ResponseEEEEEEEEEENS_19__allocation_resultINS_16allocator_traitsIT_E7pointerEEERSM_m, symObjAddr: 0x13390, symBinAddr: 0x100027FE0, symSize: 0x40 }
  - { offsetInCU: 0x7C17B, offset: 0xAB4F6, size: 0x8, addend: 0x0, symName: __ZNSt3__142__uninitialized_allocator_move_if_noexceptB7v160006INS_9allocatorINS_4pairINS_10unique_ptrIN7httplib6detail11MatcherBaseENS_14default_deleteIS6_EEEENS_8functionIFvRKNS4_7RequestERNS4_8ResponseEEEEEEEENS_16reverse_iteratorIPSI_EESM_SM_EET2_RT_T0_T1_SN_, symObjAddr: 0x13520, symBinAddr: 0x100028170, symSize: 0x180 }
  - { offsetInCU: 0x7C21A, offset: 0xAB595, size: 0x8, addend: 0x0, symName: __ZNSt3__14swapB7v160006IPNS_4pairINS_10unique_ptrIN7httplib6detail11MatcherBaseENS_14default_deleteIS5_EEEENS_8functionIFvRKNS3_7RequestERNS3_8ResponseEEEEEEEENS_9enable_ifIXaasr21is_move_constructibleIT_EE5valuesr18is_move_assignableISK_EE5valueEvE4typeERSK_SN_, symObjAddr: 0x136F0, symBinAddr: 0x100028340, symSize: 0x40 }
  - { offsetInCU: 0x7C26C, offset: 0xAB5E7, size: 0x8, addend: 0x0, symName: __ZNSt3__125__debug_db_invalidate_allB7v160006INS_6vectorINS_4pairINS_10unique_ptrIN7httplib6detail11MatcherBaseENS_14default_deleteIS6_EEEENS_8functionIFvRKNS4_7RequestERNS4_8ResponseEEEEEENS_9allocatorISI_EEEEEEvPT_, symObjAddr: 0x137E0, symBinAddr: 0x100028430, symSize: 0x10 }
  - { offsetInCU: 0x7C29C, offset: 0xAB617, size: 0x8, addend: 0x0, symName: __ZNSt3__122__make_exception_guardB7v160006INS_29_AllocatorDestroyRangeReverseINS_9allocatorINS_4pairINS_10unique_ptrIN7httplib6detail11MatcherBaseENS_14default_deleteIS7_EEEENS_8functionIFvRKNS5_7RequestERNS5_8ResponseEEEEEEEENS_16reverse_iteratorIPSJ_EEEEEENS_28__exception_guard_exceptionsIT_EESQ_, symObjAddr: 0x137F0, symBinAddr: 0x100028440, symSize: 0x60 }
  - { offsetInCU: 0x7C2D1, offset: 0xAB64C, size: 0x8, addend: 0x0, symName: __ZNSt3__1neB7v160006IPNS_4pairINS_10unique_ptrIN7httplib6detail11MatcherBaseENS_14default_deleteIS5_EEEENS_8functionIFvRKNS3_7RequestERNS3_8ResponseEEEEEESI_EEbRKNS_16reverse_iteratorIT_EERKNSJ_IT0_EE, symObjAddr: 0x13890, symBinAddr: 0x1000284E0, symSize: 0x40 }
  - { offsetInCU: 0x7C31D, offset: 0xAB698, size: 0x8, addend: 0x0, symName: __ZNSt3__112__to_addressB7v160006INS_16reverse_iteratorIPNS_4pairINS_10unique_ptrIN7httplib6detail11MatcherBaseENS_14default_deleteIS6_EEEENS_8functionIFvRKNS4_7RequestERNS4_8ResponseEEEEEEEEvEENS_5decayIDTclsr19__to_address_helperIT_EE6__callclsr3stdE7declvalIRKSM_EEEEE4typeESO_, symObjAddr: 0x13900, symBinAddr: 0x100028550, symSize: 0x20 }
  - { offsetInCU: 0x7C353, offset: 0xAB6CE, size: 0x8, addend: 0x0, symName: __ZNSt3__112construct_atB7v160006INS_4pairINS_10unique_ptrIN7httplib6detail11MatcherBaseENS_14default_deleteIS5_EEEENS_8functionIFvRKNS3_7RequestERNS3_8ResponseEEEEEEJSH_EPSH_EEPT_SK_DpOT0_, symObjAddr: 0x13A60, symBinAddr: 0x1000286B0, symSize: 0x40 }
  - { offsetInCU: 0x7C3ED, offset: 0xAB768, size: 0x8, addend: 0x0, symName: __ZNSt3__14prevB7v160006IPNS_4pairINS_10unique_ptrIN7httplib6detail11MatcherBaseENS_14default_deleteIS5_EEEENS_8functionIFvRKNS3_7RequestERNS3_8ResponseEEEEEEEENS_9enable_ifIXsr25__is_cpp17_input_iteratorIT_EE5valueESK_E4typeESK_NS_15iterator_traitsISK_E15difference_typeE, symObjAddr: 0x13B80, symBinAddr: 0x1000287D0, symSize: 0x50 }
  - { offsetInCU: 0x7C431, offset: 0xAB7AC, size: 0x8, addend: 0x0, symName: __ZNSt3__19__advanceB7v160006IPNS_4pairINS_10unique_ptrIN7httplib6detail11MatcherBaseENS_14default_deleteIS5_EEEENS_8functionIFvRKNS3_7RequestERNS3_8ResponseEEEEEEEEvRT_NS_15iterator_traitsISJ_E15difference_typeENS_26random_access_iterator_tagE, symObjAddr: 0x13C20, symBinAddr: 0x100028870, symSize: 0x20 }
  - { offsetInCU: 0x7C47B, offset: 0xAB7F6, size: 0x8, addend: 0x0, symName: __ZNSt3__119__allocator_destroyB7v160006INS_9allocatorINS_4pairINS_10unique_ptrIN7httplib6detail11MatcherBaseENS_14default_deleteIS6_EEEENS_8functionIFvRKNS4_7RequestERNS4_8ResponseEEEEEEEENS_16reverse_iteratorINSK_IPSI_EEEESN_EEvRT_T0_T1_, symObjAddr: 0x13D70, symBinAddr: 0x1000289C0, symSize: 0x70 }
  - { offsetInCU: 0x7C4DD, offset: 0xAB858, size: 0x8, addend: 0x0, symName: __ZNSt3__1neB7v160006INS_16reverse_iteratorIPNS_4pairINS_10unique_ptrIN7httplib6detail11MatcherBaseENS_14default_deleteIS6_EEEENS_8functionIFvRKNS4_7RequestERNS4_8ResponseEEEEEEEESK_EEbRKNS1_IT_EERKNS1_IT0_EE, symObjAddr: 0x13E10, symBinAddr: 0x100028A60, symSize: 0x50 }
  - { offsetInCU: 0x7C529, offset: 0xAB8A4, size: 0x8, addend: 0x0, symName: __ZNSt3__112__to_addressB7v160006INS_16reverse_iteratorINS1_IPNS_4pairINS_10unique_ptrIN7httplib6detail11MatcherBaseENS_14default_deleteIS6_EEEENS_8functionIFvRKNS4_7RequestERNS4_8ResponseEEEEEEEEEEvEENS_5decayIDTclsr19__to_address_helperIT_EE6__callclsr3stdE7declvalIRKSN_EEEEE4typeESP_, symObjAddr: 0x13E60, symBinAddr: 0x100028AB0, symSize: 0x20 }
  - { offsetInCU: 0x7C589, offset: 0xAB904, size: 0x8, addend: 0x0, symName: __ZNSt3__14prevB7v160006INS_16reverse_iteratorIPNS_4pairINS_10unique_ptrIN7httplib6detail11MatcherBaseENS_14default_deleteIS6_EEEENS_8functionIFvRKNS4_7RequestERNS4_8ResponseEEEEEEEEEENS_9enable_ifIXsr25__is_cpp17_input_iteratorIT_EE5valueESM_E4typeESM_NS_15iterator_traitsISM_E15difference_typeE, symObjAddr: 0x13F60, symBinAddr: 0x100028BB0, symSize: 0x60 }
  - { offsetInCU: 0x7C5CD, offset: 0xAB948, size: 0x8, addend: 0x0, symName: __ZNSt3__19__advanceB7v160006INS_16reverse_iteratorIPNS_4pairINS_10unique_ptrIN7httplib6detail11MatcherBaseENS_14default_deleteIS6_EEEENS_8functionIFvRKNS4_7RequestERNS4_8ResponseEEEEEEEEEEvRT_NS_15iterator_traitsISL_E15difference_typeENS_26random_access_iterator_tagE, symObjAddr: 0x14010, symBinAddr: 0x100028C60, symSize: 0x30 }
  - { offsetInCU: 0x7C616, offset: 0xAB991, size: 0x8, addend: 0x0, symName: __ZNSt3__110__str_findB7v160006IcmNS_11char_traitsIcEELm18446744073709551615EEET0_PKT_S3_S6_S3_S3_, symObjAddr: 0x144C0, symBinAddr: 0x100029110, symSize: 0xB0 }
  - { offsetInCU: 0x7C6BD, offset: 0xABA38, size: 0x8, addend: 0x0, symName: __ZNSt3__118__search_substringB7v160006IcNS_11char_traitsIcEEEEPKT_S5_S5_S5_S5_, symObjAddr: 0x145A0, symBinAddr: 0x1000291C0, symSize: 0x120 }
  - { offsetInCU: 0x7C757, offset: 0xABAD2, size: 0x8, addend: 0x0, symName: __ZNSt3__123__constexpr_char_memchrB7v160006EPKcim, symObjAddr: 0x14790, symBinAddr: 0x100029350, symSize: 0x30 }
  - { offsetInCU: 0x7C79F, offset: 0xABB1A, size: 0x8, addend: 0x0, symName: __ZNSt3__1plB7v160006IcNS_11char_traitsIcEENS_9allocatorIcEEEENS_12basic_stringIT_T0_T1_EEOS9_PKS6_, symObjAddr: 0x14DF0, symBinAddr: 0x100029910, symSize: 0x50 }
  - { offsetInCU: 0x7C7F7, offset: 0xABB72, size: 0x8, addend: 0x0, symName: __ZNSt3__1plB7v160006IcNS_11char_traitsIcEENS_9allocatorIcEEEENS_12basic_stringIT_T0_T1_EEOS9_RKS9_, symObjAddr: 0x14E40, symBinAddr: 0x100029960, symSize: 0x50 }
  - { offsetInCU: 0x7C84F, offset: 0xABBCA, size: 0x8, addend: 0x0, symName: __ZNSt3__19use_facetB7v160006INS_7collateIcEEEERKT_RKNS_6localeE, symObjAddr: 0x176D0, symBinAddr: 0x10002A3D0, symSize: 0x30 }
  - { offsetInCU: 0x7C886, offset: 0xABC01, size: 0x8, addend: 0x0, symName: __ZNSt3__1neB7v160006IPKcEEbRKNS_11__wrap_iterIT_EES7_, symObjAddr: 0x17A90, symBinAddr: 0x10002A790, symSize: 0x30 }
  - { offsetInCU: 0x7C8CA, offset: 0xABC45, size: 0x8, addend: 0x0, symName: __ZNSt3__119__throw_regex_errorB7v160006ILNS_15regex_constants10error_typeE17EEEvv, symObjAddr: 0x17AC0, symBinAddr: 0x10002A7C0, symSize: 0x60 }
  - { offsetInCU: 0x7CD5C, offset: 0xAC0D7, size: 0x8, addend: 0x0, symName: __ZNSt3__119__throw_regex_errorB7v160006ILNS_15regex_constants10error_typeE14EEEvv, symObjAddr: 0x184B0, symBinAddr: 0x10002B1B0, symSize: 0x60 }
  - { offsetInCU: 0x7D7A4, offset: 0xACB1F, size: 0x8, addend: 0x0, symName: __ZNSt3__14swapB7v160006IPNS_13__empty_stateIcEEEENS_9enable_ifIXaasr21is_move_constructibleIT_EE5valuesr18is_move_assignableIS5_EE5valueEvE4typeERS5_S8_, symObjAddr: 0x19190, symBinAddr: 0x10002BE90, symSize: 0x40 }
  - { offsetInCU: 0x7D7F5, offset: 0xACB70, size: 0x8, addend: 0x0, symName: __ZNSt3__14swapB7v160006IPNS_19__shared_weak_countEEENS_9enable_ifIXaasr21is_move_constructibleIT_EE5valuesr18is_move_assignableIS4_EE5valueEvE4typeERS4_S7_, symObjAddr: 0x191D0, symBinAddr: 0x10002BED0, symSize: 0x40 }
  - { offsetInCU: 0x7D846, offset: 0xACBC1, size: 0x8, addend: 0x0, symName: __ZNSt3__1eqB7v160006IPKcEEbRKNS_11__wrap_iterIT_EES7_, symObjAddr: 0x196D0, symBinAddr: 0x10002C3D0, symSize: 0x40 }
  - { offsetInCU: 0x7D889, offset: 0xACC04, size: 0x8, addend: 0x0, symName: __ZNSt3__14nextB7v160006INS_11__wrap_iterIPKcEEEENS_9enable_ifIXsr25__is_cpp17_input_iteratorIT_EE5valueES6_E4typeES6_NS_15iterator_traitsIS6_E15difference_typeE, symObjAddr: 0x1AA40, symBinAddr: 0x10002D740, symSize: 0x50 }
  - { offsetInCU: 0x7D8CD, offset: 0xACC48, size: 0x8, addend: 0x0, symName: __ZNSt3__119__throw_regex_errorB7v160006ILNS_15regex_constants10error_typeE6EEEvv, symObjAddr: 0x1AC40, symBinAddr: 0x10002D940, symSize: 0x60 }
  - { offsetInCU: 0x7D978, offset: 0xACCF3, size: 0x8, addend: 0x0, symName: __ZNSt3__18__is_eolB7v160006IcEEbT_, symObjAddr: 0x1AF60, symBinAddr: 0x10002DC60, symSize: 0x40 }
  - { offsetInCU: 0x7D9AF, offset: 0xACD2A, size: 0x8, addend: 0x0, symName: __ZNSt3__14prevB7v160006IPKcEENS_9enable_ifIXsr25__is_cpp17_input_iteratorIT_EE5valueES4_E4typeES4_NS_15iterator_traitsIS4_E15difference_typeE, symObjAddr: 0x1AFA0, symBinAddr: 0x10002DCA0, symSize: 0x50 }
  - { offsetInCU: 0x7D9F3, offset: 0xACD6E, size: 0x8, addend: 0x0, symName: __ZNSt3__19__advanceB7v160006IPKcEEvRT_NS_15iterator_traitsIS3_E15difference_typeENS_26random_access_iterator_tagE, symObjAddr: 0x1B040, symBinAddr: 0x10002DD40, symSize: 0x20 }
  - { offsetInCU: 0x7DAC3, offset: 0xACE3E, size: 0x8, addend: 0x0, symName: __ZNSt3__19__advanceB7v160006INS_11__wrap_iterIPKcEEEEvRT_NS_15iterator_traitsIS5_E15difference_typeENS_26random_access_iterator_tagE, symObjAddr: 0x1B290, symBinAddr: 0x10002DF90, symSize: 0x30 }
  - { offsetInCU: 0x7DC8E, offset: 0xAD009, size: 0x8, addend: 0x0, symName: __ZNSt3__134__libcpp_atomic_refcount_incrementB7v160006IlEET_RS1_, symObjAddr: 0x1BD20, symBinAddr: 0x10002E990, symSize: 0x30 }
  - { offsetInCU: 0x7DFAB, offset: 0xAD326, size: 0x8, addend: 0x0, symName: __ZNSt3__119__debug_db_insert_cB7v160006INS_6vectorINS_9sub_matchIPKcEENS_9allocatorIS5_EEEEEEvPT_, symObjAddr: 0x1C770, symBinAddr: 0x10002F3E0, symSize: 0x10 }
  - { offsetInCU: 0x7DFDC, offset: 0xAD357, size: 0x8, addend: 0x0, symName: __ZNSt3__118__debug_db_erase_cB7v160006INS_6vectorINS_9sub_matchIPKcEENS_9allocatorIS5_EEEEEEvPT_, symObjAddr: 0x1CA10, symBinAddr: 0x10002F680, symSize: 0x10 }
  - { offsetInCU: 0x7E00C, offset: 0xAD387, size: 0x8, addend: 0x0, symName: __ZNSt3__112__to_addressB7v160006INS_9sub_matchIPKcEEEEPT_S6_, symObjAddr: 0x1CB40, symBinAddr: 0x10002F7B0, symSize: 0x10 }
  - { offsetInCU: 0x7E042, offset: 0xAD3BD, size: 0x8, addend: 0x0, symName: __ZNSt3__110destroy_atB7v160006INS_9sub_matchIPKcEELi0EEEvPT_, symObjAddr: 0x1CBF0, symBinAddr: 0x10002F860, symSize: 0x20 }
  - { offsetInCU: 0x7E079, offset: 0xAD3F4, size: 0x8, addend: 0x0, symName: __ZNSt3__112__destroy_atB7v160006INS_9sub_matchIPKcEELi0EEEvPT_, symObjAddr: 0x1CC10, symBinAddr: 0x10002F880, symSize: 0x10 }
  - { offsetInCU: 0x7E0AF, offset: 0xAD42A, size: 0x8, addend: 0x0, symName: __ZNSt3__16fill_nB7v160006IPNS_9sub_matchIPKcEEmS4_EET_S6_T0_RKT1_, symObjAddr: 0x1CDF0, symBinAddr: 0x10002FA60, symSize: 0x40 }
  - { offsetInCU: 0x7E113, offset: 0xAD48E, size: 0x8, addend: 0x0, symName: __ZNSt3__125__debug_db_invalidate_allB7v160006INS_6vectorINS_9sub_matchIPKcEENS_9allocatorIS5_EEEEEEvPT_, symObjAddr: 0x1D110, symBinAddr: 0x10002FD80, symSize: 0x10 }
  - { offsetInCU: 0x7E143, offset: 0xAD4BE, size: 0x8, addend: 0x0, symName: __ZNSt3__18__fill_nB7v160006IPNS_9sub_matchIPKcEEmS4_EET_S6_T0_RKT1_, symObjAddr: 0x1D120, symBinAddr: 0x10002FD90, symSize: 0x60 }
  - { offsetInCU: 0x7E1A6, offset: 0xAD521, size: 0x8, addend: 0x0, symName: __ZNSt3__121__convert_to_integralB7v160006Em, symObjAddr: 0x1D180, symBinAddr: 0x10002FDF0, symSize: 0x10 }
  - { offsetInCU: 0x7E1F7, offset: 0xAD572, size: 0x8, addend: 0x0, symName: __ZNSt3__112construct_atB7v160006INS_9sub_matchIPKcEEJRKS4_EPS4_EEPT_S9_DpOT0_, symObjAddr: 0x1D250, symBinAddr: 0x10002FEC0, symSize: 0x40 }
  - { offsetInCU: 0x7E267, offset: 0xAD5E2, size: 0x8, addend: 0x0, symName: __ZNSt3__119__allocate_at_leastB7v160006INS_9allocatorINS_9sub_matchIPKcEEEEEENS_19__allocation_resultINS_16allocator_traitsIT_E7pointerEEERS9_m, symObjAddr: 0x1D480, symBinAddr: 0x1000300F0, symSize: 0x40 }
  - { offsetInCU: 0x7E2AB, offset: 0xAD626, size: 0x8, addend: 0x0, symName: __ZNSt3__119__throw_regex_errorB7v160006ILNS_15regex_constants10error_typeE12EEEvv, symObjAddr: 0x1D830, symBinAddr: 0x1000304A0, symSize: 0x60 }
  - { offsetInCU: 0x7E2D0, offset: 0xAD64B, size: 0x8, addend: 0x0, symName: __ZNSt3__14nextB7v160006IPKcEENS_9enable_ifIXsr25__is_cpp17_input_iteratorIT_EE5valueES4_E4typeES4_NS_15iterator_traitsIS4_E15difference_typeE, symObjAddr: 0x1D8C0, symBinAddr: 0x100030530, symSize: 0x50 }
  - { offsetInCU: 0x7E314, offset: 0xAD68F, size: 0x8, addend: 0x0, symName: __ZNSt3__119__throw_regex_errorB7v160006ILNS_15regex_constants10error_typeE16EEEvv, symObjAddr: 0x1D940, symBinAddr: 0x1000305B0, symSize: 0x60 }
  - { offsetInCU: 0x7E33A, offset: 0xAD6B5, size: 0x8, addend: 0x0, symName: __ZNSt3__119__debug_db_insert_cB7v160006INS_6vectorINS_7__stateIcEENS_9allocatorIS3_EEEEEEvPT_, symObjAddr: 0x1DA70, symBinAddr: 0x1000306E0, symSize: 0x10 }
  - { offsetInCU: 0x7E36A, offset: 0xAD6E5, size: 0x8, addend: 0x0, symName: __ZNSt3__112__to_addressB7v160006INS_7__stateIcEEEEPT_S4_, symObjAddr: 0x1DD60, symBinAddr: 0x1000309D0, symSize: 0x10 }
  - { offsetInCU: 0x7E3C4, offset: 0xAD73F, size: 0x8, addend: 0x0, symName: __ZNSt3__112construct_atB7v160006INS_7__stateIcEEJS2_EPS2_EEPT_S5_DpOT0_, symObjAddr: 0x1DDD0, symBinAddr: 0x100030A40, symSize: 0x40 }
  - { offsetInCU: 0x7E435, offset: 0xAD7B0, size: 0x8, addend: 0x0, symName: __ZNSt3__115__debug_db_swapB7v160006INS_6vectorINS_9sub_matchIPKcEENS_9allocatorIS5_EEEEEEvPT_SA_, symObjAddr: 0x1E040, symBinAddr: 0x100030CB0, symSize: 0x10 }
  - { offsetInCU: 0x7E474, offset: 0xAD7EF, size: 0x8, addend: 0x0, symName: __ZNSt3__119__debug_db_insert_cB7v160006INS_6vectorINS_4pairImPKcEENS_9allocatorIS5_EEEEEEvPT_, symObjAddr: 0x1E1E0, symBinAddr: 0x100030E50, symSize: 0x10 }
  - { offsetInCU: 0x7E4A5, offset: 0xAD820, size: 0x8, addend: 0x0, symName: __ZNSt3__115__debug_db_swapB7v160006INS_6vectorINS_4pairImPKcEENS_9allocatorIS5_EEEEEEvPT_SA_, symObjAddr: 0x1E1F0, symBinAddr: 0x100030E60, symSize: 0x10 }
  - { offsetInCU: 0x7E4E3, offset: 0xAD85E, size: 0x8, addend: 0x0, symName: __ZNSt3__119__allocate_at_leastB7v160006INS_9allocatorINS_7__stateIcEEEEEENS_19__allocation_resultINS_16allocator_traitsIT_E7pointerEEERS7_m, symObjAddr: 0x1E820, symBinAddr: 0x100031490, symSize: 0x40 }
  - { offsetInCU: 0x7E526, offset: 0xAD8A1, size: 0x8, addend: 0x0, symName: __ZNSt3__142__uninitialized_allocator_move_if_noexceptB7v160006INS_9allocatorINS_7__stateIcEEEENS_16reverse_iteratorIPS3_EES7_S7_EET2_RT_T0_T1_S8_, symObjAddr: 0x1EA60, symBinAddr: 0x1000316D0, symSize: 0x180 }
  - { offsetInCU: 0x7E5C5, offset: 0xAD940, size: 0x8, addend: 0x0, symName: __ZNSt3__14swapB7v160006IPNS_7__stateIcEEEENS_9enable_ifIXaasr21is_move_constructibleIT_EE5valuesr18is_move_assignableIS5_EE5valueEvE4typeERS5_S8_, symObjAddr: 0x1EC30, symBinAddr: 0x1000318A0, symSize: 0x40 }
  - { offsetInCU: 0x7E617, offset: 0xAD992, size: 0x8, addend: 0x0, symName: __ZNSt3__125__debug_db_invalidate_allB7v160006INS_6vectorINS_7__stateIcEENS_9allocatorIS3_EEEEEEvPT_, symObjAddr: 0x1ED10, symBinAddr: 0x100031980, symSize: 0x10 }
  - { offsetInCU: 0x7E647, offset: 0xAD9C2, size: 0x8, addend: 0x0, symName: __ZNSt3__122__make_exception_guardB7v160006INS_29_AllocatorDestroyRangeReverseINS_9allocatorINS_7__stateIcEEEENS_16reverse_iteratorIPS4_EEEEEENS_28__exception_guard_exceptionsIT_EESB_, symObjAddr: 0x1ED60, symBinAddr: 0x1000319D0, symSize: 0x60 }
  - { offsetInCU: 0x7E67C, offset: 0xAD9F7, size: 0x8, addend: 0x0, symName: __ZNSt3__1neB7v160006IPNS_7__stateIcEES3_EEbRKNS_16reverse_iteratorIT_EERKNS4_IT0_EE, symObjAddr: 0x1EE00, symBinAddr: 0x100031A70, symSize: 0x40 }
  - { offsetInCU: 0x7E6C8, offset: 0xADA43, size: 0x8, addend: 0x0, symName: __ZNSt3__112__to_addressB7v160006INS_16reverse_iteratorIPNS_7__stateIcEEEEvEENS_5decayIDTclsr19__to_address_helperIT_EE6__callclsr3stdE7declvalIRKS7_EEEEE4typeES9_, symObjAddr: 0x1EE40, symBinAddr: 0x100031AB0, symSize: 0x20 }
  - { offsetInCU: 0x7E728, offset: 0xADAA3, size: 0x8, addend: 0x0, symName: __ZNSt3__14prevB7v160006IPNS_7__stateIcEEEENS_9enable_ifIXsr25__is_cpp17_input_iteratorIT_EE5valueES5_E4typeES5_NS_15iterator_traitsIS5_E15difference_typeE, symObjAddr: 0x1F010, symBinAddr: 0x100031C80, symSize: 0x50 }
  - { offsetInCU: 0x7E76C, offset: 0xADAE7, size: 0x8, addend: 0x0, symName: __ZNSt3__19__advanceB7v160006IPNS_7__stateIcEEEEvRT_NS_15iterator_traitsIS4_E15difference_typeENS_26random_access_iterator_tagE, symObjAddr: 0x1F0B0, symBinAddr: 0x100031D20, symSize: 0x20 }
  - { offsetInCU: 0x7E7B6, offset: 0xADB31, size: 0x8, addend: 0x0, symName: __ZNSt3__119__allocator_destroyB7v160006INS_9allocatorINS_7__stateIcEEEENS_16reverse_iteratorINS5_IPS3_EEEES8_EEvRT_T0_T1_, symObjAddr: 0x1F200, symBinAddr: 0x100031E70, symSize: 0x70 }
  - { offsetInCU: 0x7E818, offset: 0xADB93, size: 0x8, addend: 0x0, symName: __ZNSt3__1neB7v160006INS_16reverse_iteratorIPNS_7__stateIcEEEES5_EEbRKNS1_IT_EERKNS1_IT0_EE, symObjAddr: 0x1F2A0, symBinAddr: 0x100031F10, symSize: 0x50 }
  - { offsetInCU: 0x7E864, offset: 0xADBDF, size: 0x8, addend: 0x0, symName: __ZNSt3__112__to_addressB7v160006INS_16reverse_iteratorINS1_IPNS_7__stateIcEEEEEEvEENS_5decayIDTclsr19__to_address_helperIT_EE6__callclsr3stdE7declvalIRKS8_EEEEE4typeESA_, symObjAddr: 0x1F310, symBinAddr: 0x100031F80, symSize: 0x20 }
  - { offsetInCU: 0x7E89B, offset: 0xADC16, size: 0x8, addend: 0x0, symName: __ZNSt3__110destroy_atB7v160006INS_7__stateIcEELi0EEEvPT_, symObjAddr: 0x1F380, symBinAddr: 0x100031FF0, symSize: 0x20 }
  - { offsetInCU: 0x7E8D2, offset: 0xADC4D, size: 0x8, addend: 0x0, symName: __ZNSt3__112__destroy_atB7v160006INS_7__stateIcEELi0EEEvPT_, symObjAddr: 0x1F3A0, symBinAddr: 0x100032010, symSize: 0x20 }
  - { offsetInCU: 0x7E932, offset: 0xADCAD, size: 0x8, addend: 0x0, symName: __ZNSt3__14prevB7v160006INS_16reverse_iteratorIPNS_7__stateIcEEEEEENS_9enable_ifIXsr25__is_cpp17_input_iteratorIT_EE5valueES7_E4typeES7_NS_15iterator_traitsIS7_E15difference_typeE, symObjAddr: 0x1F450, symBinAddr: 0x1000320C0, symSize: 0x60 }
  - { offsetInCU: 0x7E976, offset: 0xADCF1, size: 0x8, addend: 0x0, symName: __ZNSt3__19__advanceB7v160006INS_16reverse_iteratorIPNS_7__stateIcEEEEEEvRT_NS_15iterator_traitsIS6_E15difference_typeENS_26random_access_iterator_tagE, symObjAddr: 0x1F500, symBinAddr: 0x100032170, symSize: 0x30 }
  - { offsetInCU: 0x7E9C0, offset: 0xADD3B, size: 0x8, addend: 0x0, symName: __ZNSt3__118__debug_db_erase_cB7v160006INS_6vectorINS_4pairImPKcEENS_9allocatorIS5_EEEEEEvPT_, symObjAddr: 0x1FD10, symBinAddr: 0x100032980, symSize: 0x10 }
  - { offsetInCU: 0x7E9F0, offset: 0xADD6B, size: 0x8, addend: 0x0, symName: __ZNSt3__112__to_addressB7v160006INS_4pairImPKcEEEEPT_S6_, symObjAddr: 0x1FE00, symBinAddr: 0x100032A70, symSize: 0x10 }
  - { offsetInCU: 0x7EA26, offset: 0xADDA1, size: 0x8, addend: 0x0, symName: __ZNSt3__110destroy_atB7v160006INS_4pairImPKcEELi0EEEvPT_, symObjAddr: 0x1FEB0, symBinAddr: 0x100032B20, symSize: 0x20 }
  - { offsetInCU: 0x7EA5D, offset: 0xADDD8, size: 0x8, addend: 0x0, symName: __ZNSt3__112__destroy_atB7v160006INS_4pairImPKcEELi0EEEvPT_, symObjAddr: 0x1FED0, symBinAddr: 0x100032B40, symSize: 0x10 }
  - { offsetInCU: 0x7EA93, offset: 0xADE0E, size: 0x8, addend: 0x0, symName: __ZNSt3__142__uninitialized_allocator_move_if_noexceptB7v160006INS_9allocatorINS_9sub_matchIPKcEEEENS_16reverse_iteratorIPS5_EES9_S9_EET2_RT_T0_T1_SA_, symObjAddr: 0x20560, symBinAddr: 0x1000331D0, symSize: 0x180 }
  - { offsetInCU: 0x7EB32, offset: 0xADEAD, size: 0x8, addend: 0x0, symName: __ZNSt3__14swapB7v160006IPNS_9sub_matchIPKcEEEENS_9enable_ifIXaasr21is_move_constructibleIT_EE5valuesr18is_move_assignableIS7_EE5valueEvE4typeERS7_SA_, symObjAddr: 0x20730, symBinAddr: 0x1000333A0, symSize: 0x40 }
  - { offsetInCU: 0x7EB83, offset: 0xADEFE, size: 0x8, addend: 0x0, symName: __ZNSt3__122__make_exception_guardB7v160006INS_29_AllocatorDestroyRangeReverseINS_9allocatorINS_9sub_matchIPKcEEEENS_16reverse_iteratorIPS6_EEEEEENS_28__exception_guard_exceptionsIT_EESD_, symObjAddr: 0x20770, symBinAddr: 0x1000333E0, symSize: 0x60 }
  - { offsetInCU: 0x7EBB8, offset: 0xADF33, size: 0x8, addend: 0x0, symName: __ZNSt3__1neB7v160006IPNS_9sub_matchIPKcEES5_EEbRKNS_16reverse_iteratorIT_EERKNS6_IT0_EE, symObjAddr: 0x20810, symBinAddr: 0x100033480, symSize: 0x40 }
  - { offsetInCU: 0x7EC04, offset: 0xADF7F, size: 0x8, addend: 0x0, symName: __ZNSt3__112__to_addressB7v160006INS_16reverse_iteratorIPNS_9sub_matchIPKcEEEEvEENS_5decayIDTclsr19__to_address_helperIT_EE6__callclsr3stdE7declvalIRKS9_EEEEE4typeESB_, symObjAddr: 0x20880, symBinAddr: 0x1000334F0, symSize: 0x20 }
  - { offsetInCU: 0x7EC3A, offset: 0xADFB5, size: 0x8, addend: 0x0, symName: __ZNSt3__112construct_atB7v160006INS_9sub_matchIPKcEEJS4_EPS4_EEPT_S7_DpOT0_, symObjAddr: 0x209E0, symBinAddr: 0x100033650, symSize: 0x40 }
  - { offsetInCU: 0x7ECD4, offset: 0xAE04F, size: 0x8, addend: 0x0, symName: __ZNSt3__14prevB7v160006IPNS_9sub_matchIPKcEEEENS_9enable_ifIXsr25__is_cpp17_input_iteratorIT_EE5valueES7_E4typeES7_NS_15iterator_traitsIS7_E15difference_typeE, symObjAddr: 0x20A90, symBinAddr: 0x100033700, symSize: 0x50 }
  - { offsetInCU: 0x7ED18, offset: 0xAE093, size: 0x8, addend: 0x0, symName: __ZNSt3__19__advanceB7v160006IPNS_9sub_matchIPKcEEEEvRT_NS_15iterator_traitsIS6_E15difference_typeENS_26random_access_iterator_tagE, symObjAddr: 0x20B30, symBinAddr: 0x1000337A0, symSize: 0x20 }
  - { offsetInCU: 0x7ED62, offset: 0xAE0DD, size: 0x8, addend: 0x0, symName: __ZNSt3__119__allocator_destroyB7v160006INS_9allocatorINS_9sub_matchIPKcEEEENS_16reverse_iteratorINS7_IPS5_EEEESA_EEvRT_T0_T1_, symObjAddr: 0x20C80, symBinAddr: 0x1000338F0, symSize: 0x70 }
  - { offsetInCU: 0x7EDC4, offset: 0xAE13F, size: 0x8, addend: 0x0, symName: __ZNSt3__1neB7v160006INS_16reverse_iteratorIPNS_9sub_matchIPKcEEEES7_EEbRKNS1_IT_EERKNS1_IT0_EE, symObjAddr: 0x20D20, symBinAddr: 0x100033990, symSize: 0x50 }
  - { offsetInCU: 0x7EE10, offset: 0xAE18B, size: 0x8, addend: 0x0, symName: __ZNSt3__112__to_addressB7v160006INS_16reverse_iteratorINS1_IPNS_9sub_matchIPKcEEEEEEvEENS_5decayIDTclsr19__to_address_helperIT_EE6__callclsr3stdE7declvalIRKSA_EEEEE4typeESC_, symObjAddr: 0x20D70, symBinAddr: 0x1000339E0, symSize: 0x20 }
  - { offsetInCU: 0x7EE70, offset: 0xAE1EB, size: 0x8, addend: 0x0, symName: __ZNSt3__14prevB7v160006INS_16reverse_iteratorIPNS_9sub_matchIPKcEEEEEENS_9enable_ifIXsr25__is_cpp17_input_iteratorIT_EE5valueES9_E4typeES9_NS_15iterator_traitsIS9_E15difference_typeE, symObjAddr: 0x20E70, symBinAddr: 0x100033AE0, symSize: 0x60 }
  - { offsetInCU: 0x7EEB4, offset: 0xAE22F, size: 0x8, addend: 0x0, symName: __ZNSt3__19__advanceB7v160006INS_16reverse_iteratorIPNS_9sub_matchIPKcEEEEEEvRT_NS_15iterator_traitsIS8_E15difference_typeENS_26random_access_iterator_tagE, symObjAddr: 0x20F20, symBinAddr: 0x100033B90, symSize: 0x30 }
  - { offsetInCU: 0x7EF22, offset: 0xAE29D, size: 0x8, addend: 0x0, symName: __ZNSt3__112construct_atB7v160006INS_4pairImPKcEEJEPS4_EEPT_S7_DpOT0_, symObjAddr: 0x21780, symBinAddr: 0x1000343F0, symSize: 0x30 }
  - { offsetInCU: 0x7EF7E, offset: 0xAE2F9, size: 0x8, addend: 0x0, symName: __ZNSt3__119__allocate_at_leastB7v160006INS_9allocatorINS_4pairImPKcEEEEEENS_19__allocation_resultINS_16allocator_traitsIT_E7pointerEEERS9_m, symObjAddr: 0x21A00, symBinAddr: 0x100034670, symSize: 0x40 }
  - { offsetInCU: 0x7EFC1, offset: 0xAE33C, size: 0x8, addend: 0x0, symName: __ZNSt3__142__uninitialized_allocator_move_if_noexceptB7v160006INS_9allocatorINS_4pairImPKcEEEENS_16reverse_iteratorIPS5_EES9_S9_EET2_RT_T0_T1_SA_, symObjAddr: 0x21C40, symBinAddr: 0x1000348B0, symSize: 0x180 }
  - { offsetInCU: 0x7F060, offset: 0xAE3DB, size: 0x8, addend: 0x0, symName: __ZNSt3__14swapB7v160006IPNS_4pairImPKcEEEENS_9enable_ifIXaasr21is_move_constructibleIT_EE5valuesr18is_move_assignableIS7_EE5valueEvE4typeERS7_SA_, symObjAddr: 0x21E10, symBinAddr: 0x100034A80, symSize: 0x40 }
  - { offsetInCU: 0x7F0B2, offset: 0xAE42D, size: 0x8, addend: 0x0, symName: __ZNSt3__125__debug_db_invalidate_allB7v160006INS_6vectorINS_4pairImPKcEENS_9allocatorIS5_EEEEEEvPT_, symObjAddr: 0x21F00, symBinAddr: 0x100034B70, symSize: 0x10 }
  - { offsetInCU: 0x7F0E2, offset: 0xAE45D, size: 0x8, addend: 0x0, symName: __ZNSt3__122__make_exception_guardB7v160006INS_29_AllocatorDestroyRangeReverseINS_9allocatorINS_4pairImPKcEEEENS_16reverse_iteratorIPS6_EEEEEENS_28__exception_guard_exceptionsIT_EESD_, symObjAddr: 0x21F10, symBinAddr: 0x100034B80, symSize: 0x60 }
  - { offsetInCU: 0x7F117, offset: 0xAE492, size: 0x8, addend: 0x0, symName: __ZNSt3__1neB7v160006IPNS_4pairImPKcEES5_EEbRKNS_16reverse_iteratorIT_EERKNS6_IT0_EE, symObjAddr: 0x21FB0, symBinAddr: 0x100034C20, symSize: 0x40 }
  - { offsetInCU: 0x7F163, offset: 0xAE4DE, size: 0x8, addend: 0x0, symName: __ZNSt3__112__to_addressB7v160006INS_16reverse_iteratorIPNS_4pairImPKcEEEEvEENS_5decayIDTclsr19__to_address_helperIT_EE6__callclsr3stdE7declvalIRKS9_EEEEE4typeESB_, symObjAddr: 0x22020, symBinAddr: 0x100034C90, symSize: 0x20 }
  - { offsetInCU: 0x7F199, offset: 0xAE514, size: 0x8, addend: 0x0, symName: __ZNSt3__112construct_atB7v160006INS_4pairImPKcEEJS4_EPS4_EEPT_S7_DpOT0_, symObjAddr: 0x22180, symBinAddr: 0x100034DF0, symSize: 0x30 }
  - { offsetInCU: 0x7F233, offset: 0xAE5AE, size: 0x8, addend: 0x0, symName: __ZNSt3__14prevB7v160006IPNS_4pairImPKcEEEENS_9enable_ifIXsr25__is_cpp17_input_iteratorIT_EE5valueES7_E4typeES7_NS_15iterator_traitsIS7_E15difference_typeE, symObjAddr: 0x22220, symBinAddr: 0x100034E90, symSize: 0x50 }
  - { offsetInCU: 0x7F277, offset: 0xAE5F2, size: 0x8, addend: 0x0, symName: __ZNSt3__19__advanceB7v160006IPNS_4pairImPKcEEEEvRT_NS_15iterator_traitsIS6_E15difference_typeENS_26random_access_iterator_tagE, symObjAddr: 0x222C0, symBinAddr: 0x100034F30, symSize: 0x20 }
  - { offsetInCU: 0x7F2C1, offset: 0xAE63C, size: 0x8, addend: 0x0, symName: __ZNSt3__119__allocator_destroyB7v160006INS_9allocatorINS_4pairImPKcEEEENS_16reverse_iteratorINS7_IPS5_EEEESA_EEvRT_T0_T1_, symObjAddr: 0x22410, symBinAddr: 0x100035080, symSize: 0x70 }
  - { offsetInCU: 0x7F323, offset: 0xAE69E, size: 0x8, addend: 0x0, symName: __ZNSt3__1neB7v160006INS_16reverse_iteratorIPNS_4pairImPKcEEEES7_EEbRKNS1_IT_EERKNS1_IT0_EE, symObjAddr: 0x224B0, symBinAddr: 0x100035120, symSize: 0x50 }
  - { offsetInCU: 0x7F36F, offset: 0xAE6EA, size: 0x8, addend: 0x0, symName: __ZNSt3__112__to_addressB7v160006INS_16reverse_iteratorINS1_IPNS_4pairImPKcEEEEEEvEENS_5decayIDTclsr19__to_address_helperIT_EE6__callclsr3stdE7declvalIRKSA_EEEEE4typeESC_, symObjAddr: 0x22500, symBinAddr: 0x100035170, symSize: 0x20 }
  - { offsetInCU: 0x7F3CF, offset: 0xAE74A, size: 0x8, addend: 0x0, symName: __ZNSt3__14prevB7v160006INS_16reverse_iteratorIPNS_4pairImPKcEEEEEENS_9enable_ifIXsr25__is_cpp17_input_iteratorIT_EE5valueES9_E4typeES9_NS_15iterator_traitsIS9_E15difference_typeE, symObjAddr: 0x22600, symBinAddr: 0x100035270, symSize: 0x60 }
  - { offsetInCU: 0x7F413, offset: 0xAE78E, size: 0x8, addend: 0x0, symName: __ZNSt3__19__advanceB7v160006INS_16reverse_iteratorIPNS_4pairImPKcEEEEEEvRT_NS_15iterator_traitsIS8_E15difference_typeENS_26random_access_iterator_tagE, symObjAddr: 0x226B0, symBinAddr: 0x100035320, symSize: 0x30 }
  - { offsetInCU: 0x7F45C, offset: 0xAE7D7, size: 0x8, addend: 0x0, symName: __ZNSt3__122__make_exception_guardB7v160006INS_6vectorINS_9sub_matchIPKcEENS_9allocatorIS5_EEE16__destroy_vectorEEENS_28__exception_guard_exceptionsIT_EESB_, symObjAddr: 0x22DB0, symBinAddr: 0x100035A20, symSize: 0x40 }
  - { offsetInCU: 0x7F491, offset: 0xAE80C, size: 0x8, addend: 0x0, symName: __ZNSt3__130__uninitialized_allocator_copyB7v160006INS_9allocatorINS_9sub_matchIPKcEEEEPS5_S7_S7_EET2_RT_T0_T1_S8_, symObjAddr: 0x22F10, symBinAddr: 0x100035B80, symSize: 0x100 }
  - { offsetInCU: 0x7F52F, offset: 0xAE8AA, size: 0x8, addend: 0x0, symName: __ZNSt3__122__make_exception_guardB7v160006INS_29_AllocatorDestroyRangeReverseINS_9allocatorINS_9sub_matchIPKcEEEEPS6_EEEENS_28__exception_guard_exceptionsIT_EESB_, symObjAddr: 0x23010, symBinAddr: 0x100035C80, symSize: 0x60 }
  - { offsetInCU: 0x7F564, offset: 0xAE8DF, size: 0x8, addend: 0x0, symName: __ZNSt3__112construct_atB7v160006INS_9sub_matchIPKcEEJRS4_EPS4_EEPT_S8_DpOT0_, symObjAddr: 0x231D0, symBinAddr: 0x100035E40, symSize: 0x40 }
  - { offsetInCU: 0x7F5D5, offset: 0xAE950, size: 0x8, addend: 0x0, symName: __ZNSt3__119__allocator_destroyB7v160006INS_9allocatorINS_9sub_matchIPKcEEEENS_16reverse_iteratorIPS5_EES9_EEvRT_T0_T1_, symObjAddr: 0x232B0, symBinAddr: 0x100035F20, symSize: 0x70 }
  - { offsetInCU: 0x7F637, offset: 0xAE9B2, size: 0x8, addend: 0x0, symName: __ZNSt3__122__make_exception_guardB7v160006INS_6vectorINS_4pairImPKcEENS_9allocatorIS5_EEE16__destroy_vectorEEENS_28__exception_guard_exceptionsIT_EESB_, symObjAddr: 0x23480, symBinAddr: 0x1000360F0, symSize: 0x40 }
  - { offsetInCU: 0x7F66C, offset: 0xAE9E7, size: 0x8, addend: 0x0, symName: __ZNSt3__130__uninitialized_allocator_copyB7v160006INS_9allocatorINS_4pairImPKcEEEEPS5_S7_S7_EET2_RT_T0_T1_S8_, symObjAddr: 0x23680, symBinAddr: 0x1000362F0, symSize: 0x100 }
  - { offsetInCU: 0x7F70A, offset: 0xAEA85, size: 0x8, addend: 0x0, symName: __ZNSt3__122__make_exception_guardB7v160006INS_29_AllocatorDestroyRangeReverseINS_9allocatorINS_4pairImPKcEEEEPS6_EEEENS_28__exception_guard_exceptionsIT_EESB_, symObjAddr: 0x23780, symBinAddr: 0x1000363F0, symSize: 0x60 }
  - { offsetInCU: 0x7F73F, offset: 0xAEABA, size: 0x8, addend: 0x0, symName: __ZNSt3__112construct_atB7v160006INS_4pairImPKcEEJRS4_EPS4_EEPT_S8_DpOT0_, symObjAddr: 0x23940, symBinAddr: 0x1000365B0, symSize: 0x30 }
  - { offsetInCU: 0x7F7B0, offset: 0xAEB2B, size: 0x8, addend: 0x0, symName: __ZNSt3__119__allocator_destroyB7v160006INS_9allocatorINS_4pairImPKcEEEENS_16reverse_iteratorIPS5_EES9_EEvRT_T0_T1_, symObjAddr: 0x23A10, symBinAddr: 0x100036680, symSize: 0x70 }
  - { offsetInCU: 0x7F813, offset: 0xAEB8E, size: 0x8, addend: 0x0, symName: __ZNSt3__118__debug_db_erase_cB7v160006INS_6vectorINS_7__stateIcEENS_9allocatorIS3_EEEEEEvPT_, symObjAddr: 0x23BE0, symBinAddr: 0x100036850, symSize: 0x10 }
  - { offsetInCU: 0x7F844, offset: 0xAEBBF, size: 0x8, addend: 0x0, symName: __ZNSt3__119__throw_regex_errorB7v160006ILNS_15regex_constants10error_typeE11EEEvv, symObjAddr: 0x24250, symBinAddr: 0x100036EC0, symSize: 0x60 }
  - { offsetInCU: 0x7F8DE, offset: 0xAEC59, size: 0x8, addend: 0x0, symName: __ZNSt3__119__throw_regex_errorB7v160006ILNS_15regex_constants10error_typeE3EEEvv, symObjAddr: 0x245A0, symBinAddr: 0x100037210, symSize: 0x60 }
  - { offsetInCU: 0x7FAEF, offset: 0xAEE6A, size: 0x8, addend: 0x0, symName: __ZNSt3__119__throw_regex_errorB7v160006ILNS_15regex_constants10error_typeE4EEEvv, symObjAddr: 0x252A0, symBinAddr: 0x100037F10, symSize: 0x60 }
  - { offsetInCU: 0x7FF2E, offset: 0xAF2A9, size: 0x8, addend: 0x0, symName: __ZNSt3__15equalB7v160006IPKcS2_EEbT_S3_T0_, symObjAddr: 0x262F0, symBinAddr: 0x100038F60, symSize: 0x30 }
  - { offsetInCU: 0x7FF88, offset: 0xAF303, size: 0x8, addend: 0x0, symName: __ZNSt3__15equalB7v160006IPKcS2_NS_10__equal_toEEEbT_S4_T0_T1_, symObjAddr: 0x26320, symBinAddr: 0x100038F90, symSize: 0x80 }
  - { offsetInCU: 0x80034, offset: 0xAF3AF, size: 0x8, addend: 0x0, symName: __ZNSt3__1eqB7v160006IcNS_11char_traitsIcEENS_9allocatorIcEEEEbRKNS_12basic_stringIT_T0_T1_EEPKS6_, symObjAddr: 0x268D0, symBinAddr: 0x100039540, symSize: 0x60 }
  - { offsetInCU: 0x8008D, offset: 0xAF408, size: 0x8, addend: 0x0, symName: __ZNSt3__119__debug_db_insert_cB7v160006INS_6vectorINS_4pairINS_12basic_stringIcNS_11char_traitsIcEENS_9allocatorIcEEEES8_EENS6_IS9_EEEEEEvPT_, symObjAddr: 0x27600, symBinAddr: 0x10003A270, symSize: 0x10 }
  - { offsetInCU: 0x800BE, offset: 0xAF439, size: 0x8, addend: 0x0, symName: __ZNSt3__119__debug_db_insert_cB7v160006INS_6vectorINS_4pairIccEENS_9allocatorIS3_EEEEEEvPT_, symObjAddr: 0x27750, symBinAddr: 0x10003A3C0, symSize: 0x10 }
  - { offsetInCU: 0x800EE, offset: 0xAF469, size: 0x8, addend: 0x0, symName: __ZNSt3__1eqB7v160006IcNS_11char_traitsIcEEEEbNS_17basic_string_viewIT_T0_EES6_, symObjAddr: 0x27810, symBinAddr: 0x10003A480, symSize: 0x90 }
  - { offsetInCU: 0x8013D, offset: 0xAF4B8, size: 0x8, addend: 0x0, symName: __ZNSt3__128__char_traits_length_checkedB7v160006INS_11char_traitsIcEEEEmPKNT_9char_typeE, symObjAddr: 0x27B20, symBinAddr: 0x10003A580, symSize: 0x20 }
  - { offsetInCU: 0x80173, offset: 0xAF4EE, size: 0x8, addend: 0x0, symName: __ZNSt3__118__debug_db_erase_cB7v160006INS_6vectorINS_4pairIccEENS_9allocatorIS3_EEEEEEvPT_, symObjAddr: 0x27D10, symBinAddr: 0x10003A770, symSize: 0x10 }
  - { offsetInCU: 0x801A3, offset: 0xAF51E, size: 0x8, addend: 0x0, symName: __ZNSt3__112__to_addressB7v160006INS_4pairIccEEEEPT_S4_, symObjAddr: 0x27E20, symBinAddr: 0x10003A880, symSize: 0x10 }
  - { offsetInCU: 0x801D9, offset: 0xAF554, size: 0x8, addend: 0x0, symName: __ZNSt3__110destroy_atB7v160006INS_4pairIccEELi0EEEvPT_, symObjAddr: 0x27ED0, symBinAddr: 0x10003A930, symSize: 0x20 }
  - { offsetInCU: 0x80210, offset: 0xAF58B, size: 0x8, addend: 0x0, symName: __ZNSt3__112__destroy_atB7v160006INS_4pairIccEELi0EEEvPT_, symObjAddr: 0x27EF0, symBinAddr: 0x10003A950, symSize: 0x10 }
  - { offsetInCU: 0x80247, offset: 0xAF5C2, size: 0x8, addend: 0x0, symName: __ZNSt3__118__debug_db_erase_cB7v160006INS_6vectorINS_4pairINS_12basic_stringIcNS_11char_traitsIcEENS_9allocatorIcEEEES8_EENS6_IS9_EEEEEEvPT_, symObjAddr: 0x28190, symBinAddr: 0x10003ABF0, symSize: 0x10 }
  - { offsetInCU: 0x80277, offset: 0xAF5F2, size: 0x8, addend: 0x0, symName: __ZNSt3__112__to_addressB7v160006INS_4pairINS_12basic_stringIcNS_11char_traitsIcEENS_9allocatorIcEEEES7_EEEEPT_SA_, symObjAddr: 0x282C0, symBinAddr: 0x10003AD20, symSize: 0x10 }
  - { offsetInCU: 0x802AD, offset: 0xAF628, size: 0x8, addend: 0x0, symName: __ZNSt3__110destroy_atB7v160006INS_4pairINS_12basic_stringIcNS_11char_traitsIcEENS_9allocatorIcEEEES7_EELi0EEEvPT_, symObjAddr: 0x28370, symBinAddr: 0x10003ADD0, symSize: 0x20 }
  - { offsetInCU: 0x802E4, offset: 0xAF65F, size: 0x8, addend: 0x0, symName: __ZNSt3__112__destroy_atB7v160006INS_4pairINS_12basic_stringIcNS_11char_traitsIcEENS_9allocatorIcEEEES7_EELi0EEEvPT_, symObjAddr: 0x28390, symBinAddr: 0x10003ADF0, symSize: 0x20 }
  - { offsetInCU: 0x8031A, offset: 0xAF695, size: 0x8, addend: 0x0, symName: __ZNSt3__1eqB7v160006IccEEbRKNS_4pairIT_T0_EES6_, symObjAddr: 0x285C0, symBinAddr: 0x10003B020, symSize: 0x50 }
  - { offsetInCU: 0x80369, offset: 0xAF6E4, size: 0x8, addend: 0x0, symName: __ZNSt3__1leB7v160006ENS_15strong_orderingENS_20_CmpUnspecifiedParamE, symObjAddr: 0x28760, symBinAddr: 0x10003B1C0, symSize: 0x20 }
  - { offsetInCU: 0x803A3, offset: 0xAF71E, size: 0x8, addend: 0x0, symName: __ZNSt3__14findB7v160006INS_11__wrap_iterIPKcEEcEET_S5_S5_RKT0_, symObjAddr: 0x288D0, symBinAddr: 0x10003B2A0, symSize: 0x80 }
  - { offsetInCU: 0x803FD, offset: 0xAF778, size: 0x8, addend: 0x0, symName: __ZNSt3__18distanceB7v160006IPcEENS_15iterator_traitsIT_E15difference_typeES3_S3_, symObjAddr: 0x28FA0, symBinAddr: 0x10003B7D0, symSize: 0x30 }
  - { offsetInCU: 0x80440, offset: 0xAF7BB, size: 0x8, addend: 0x0, symName: __ZNSt3__110__distanceB7v160006IPcEENS_15iterator_traitsIT_E15difference_typeES3_S3_NS_26random_access_iterator_tagE, symObjAddr: 0x292C0, symBinAddr: 0x10003B960, symSize: 0x20 }
  - { offsetInCU: 0x8048E, offset: 0xAF809, size: 0x8, addend: 0x0, symName: __ZNSt3__112construct_atB7v160006IcJcEPcEEPT_S3_DpOT0_, symObjAddr: 0x29AE0, symBinAddr: 0x10003BE40, symSize: 0x30 }
  - { offsetInCU: 0x804FE, offset: 0xAF879, size: 0x8, addend: 0x0, symName: __ZNSt3__112construct_atB7v160006IcJRKcEPcEEPT_S5_DpOT0_, symObjAddr: 0x29CA0, symBinAddr: 0x10003C000, symSize: 0x30 }
  - { offsetInCU: 0x8056F, offset: 0xAF8EA, size: 0x8, addend: 0x0, symName: __ZNSt3__119__debug_db_insert_iB7v160006INS_11__wrap_iterIPKcEEEEvPT_, symObjAddr: 0x29D50, symBinAddr: 0x10003C0B0, symSize: 0x10 }
  - { offsetInCU: 0x8059F, offset: 0xAF91A, size: 0x8, addend: 0x0, symName: __ZNSt3__17__is_07B7v160006Eh, symObjAddr: 0x29E60, symBinAddr: 0x10003C1C0, symSize: 0x20 }
  - { offsetInCU: 0x805CD, offset: 0xAF948, size: 0x8, addend: 0x0, symName: __ZNSt3__17__is_89B7v160006Eh, symObjAddr: 0x29E80, symBinAddr: 0x10003C1E0, symSize: 0x20 }
  - { offsetInCU: 0x805FB, offset: 0xAF976, size: 0x8, addend: 0x0, symName: __ZNSt3__110__to_lowerB7v160006Eh, symObjAddr: 0x29EA0, symBinAddr: 0x10003C200, symSize: 0x20 }
  - { offsetInCU: 0x8062A, offset: 0xAF9A5, size: 0x8, addend: 0x0, symName: __ZNSt3__119__throw_regex_errorB7v160006ILNS_15regex_constants10error_typeE5EEEvv, symObjAddr: 0x29EC0, symBinAddr: 0x10003C220, symSize: 0x60 }
  - { offsetInCU: 0x8064F, offset: 0xAF9CA, size: 0x8, addend: 0x0, symName: __ZNSt3__16searchB7v160006INS_11__wrap_iterIPKcEEPcEET_S6_S6_T0_S7_, symObjAddr: 0x2BC20, symBinAddr: 0x10003DF80, symSize: 0x50 }
  - { offsetInCU: 0x806B8, offset: 0xAFA33, size: 0x8, addend: 0x0, symName: __ZNSt3__119__throw_regex_errorB7v160006ILNS_15regex_constants10error_typeE1EEEvv, symObjAddr: 0x2BCC0, symBinAddr: 0x10003E020, symSize: 0x60 }
  - { offsetInCU: 0x806DD, offset: 0xAFA58, size: 0x8, addend: 0x0, symName: __ZNSt3__16searchB7v160006INS_11__wrap_iterIPKcEEPcNS_10__equal_toEEET_S7_S7_T0_S8_T1_, symObjAddr: 0x2BE40, symBinAddr: 0x10003E100, symSize: 0x80 }
  - { offsetInCU: 0x8076A, offset: 0xAFAE5, size: 0x8, addend: 0x0, symName: __ZNSt3__113__search_implB7v160006INS_11__wrap_iterIPKcEES4_PcS5_NS_10__equal_toENS_10__identityES7_EENS_4pairIT_S9_EES9_T0_T1_T2_RT3_RT4_RT5_PNS_9enable_ifIXaasr33__is_cpp17_random_access_iteratorIS9_EE5valuesr33__is_cpp17_random_access_iteratorISC_EE5valueEvE4typeE, symObjAddr: 0x2BEC0, symBinAddr: 0x10003E180, symSize: 0x100 }
  - { offsetInCU: 0x80852, offset: 0xAFBCD, size: 0x8, addend: 0x0, symName: __ZNSt3__19make_pairB7v160006IRNS_11__wrap_iterIPKcEES5_EENS_4pairINS_18__unwrap_ref_decayIT_E4typeENS7_IT0_E4typeEEEOS8_OSB_, symObjAddr: 0x2BFC0, symBinAddr: 0x10003E280, symSize: 0x30 }
  - { offsetInCU: 0x808A1, offset: 0xAFC1C, size: 0x8, addend: 0x0, symName: __ZNSt3__1miB7v160006IPKcS2_EEDTmicldtfp_4baseEcldtfp0_4baseEERKNS_11__wrap_iterIT_EERKNS4_IT0_EE, symObjAddr: 0x2BFF0, symBinAddr: 0x10003E2B0, symSize: 0x40 }
  - { offsetInCU: 0x808ED, offset: 0xAFC68, size: 0x8, addend: 0x0, symName: __ZNSt3__127__search_random_access_implB7v160006INS_17_ClassicAlgPolicyENS_11__wrap_iterIPKcEES5_PcS6_NS_10__equal_toENS_10__identityES8_llEENS_4pairIT0_SA_EESA_T1_T2_T3_RT4_RT5_RT6_T7_T8_, symObjAddr: 0x2C030, symBinAddr: 0x10003E2F0, symSize: 0x200 }
  - { offsetInCU: 0x80A1E, offset: 0xAFD99, size: 0x8, addend: 0x0, symName: __ZNSt3__18__invokeB7v160006IRNS_10__equal_toEJRKcRcEEEDTclclsr3stdE7declvalIT_EEspclsr3stdE7declvalIT0_EEEEOS6_DpOS7_, symObjAddr: 0x2C340, symBinAddr: 0x10003E600, symSize: 0x30 }
  - { offsetInCU: 0x80A83, offset: 0xAFDFE, size: 0x8, addend: 0x0, symName: __ZNSt3__18__invokeB7v160006IRNS_10__identityEJRKcEEEDTclclsr3stdE7declvalIT_EEspclsr3stdE7declvalIT0_EEEEOS5_DpOS6_, symObjAddr: 0x2C370, symBinAddr: 0x10003E630, symSize: 0x30 }
  - { offsetInCU: 0x80AD4, offset: 0xAFE4F, size: 0x8, addend: 0x0, symName: __ZNSt3__18__invokeB7v160006IRNS_10__identityEJRcEEEDTclclsr3stdE7declvalIT_EEspclsr3stdE7declvalIT0_EEEEOS4_DpOS5_, symObjAddr: 0x2C3A0, symBinAddr: 0x10003E660, symSize: 0x30 }
  - { offsetInCU: 0x80B25, offset: 0xAFEA0, size: 0x8, addend: 0x0, symName: __ZNSt3__19make_pairB7v160006IRNS_11__wrap_iterIPKcEES4_EENS_4pairINS_18__unwrap_ref_decayIT_E4typeENS7_IT0_E4typeEEEOS8_OSB_, symObjAddr: 0x2C3D0, symBinAddr: 0x10003E690, symSize: 0x30 }
  - { offsetInCU: 0x80BC4, offset: 0xAFF3F, size: 0x8, addend: 0x0, symName: __ZNSt3__18distanceB7v160006INS_11__wrap_iterIPKcEEEENS_15iterator_traitsIT_E15difference_typeES6_S6_, symObjAddr: 0x2C920, symBinAddr: 0x10003EBE0, symSize: 0x40 }
  - { offsetInCU: 0x80C07, offset: 0xAFF82, size: 0x8, addend: 0x0, symName: __ZNSt3__110__distanceB7v160006INS_11__wrap_iterIPKcEEEENS_15iterator_traitsIT_E15difference_typeES6_S6_NS_26random_access_iterator_tagE, symObjAddr: 0x2C960, symBinAddr: 0x10003EC20, symSize: 0x30 }
  - { offsetInCU: 0x80C55, offset: 0xAFFD0, size: 0x8, addend: 0x0, symName: __ZNSt3__18distanceB7v160006INS_11__wrap_iterIPcEEEENS_15iterator_traitsIT_E15difference_typeES5_S5_, symObjAddr: 0x2CD80, symBinAddr: 0x10003F040, symSize: 0x40 }
  - { offsetInCU: 0x80C98, offset: 0xB0013, size: 0x8, addend: 0x0, symName: __ZNSt3__110__distanceB7v160006INS_11__wrap_iterIPcEEEENS_15iterator_traitsIT_E15difference_typeES5_S5_NS_26random_access_iterator_tagE, symObjAddr: 0x2CE30, symBinAddr: 0x10003F080, symSize: 0x30 }
  - { offsetInCU: 0x80CE6, offset: 0xB0061, size: 0x8, addend: 0x0, symName: __ZNSt3__1miB7v160006IPcS1_EEDTmicldtfp_4baseEcldtfp0_4baseEERKNS_11__wrap_iterIT_EERKNS3_IT0_EE, symObjAddr: 0x2CE60, symBinAddr: 0x10003F0B0, symSize: 0x40 }
  - { offsetInCU: 0x80D33, offset: 0xB00AE, size: 0x8, addend: 0x0, symName: __ZNSt3__119__throw_regex_errorB7v160006ILNS_15regex_constants10error_typeE2EEEvv, symObjAddr: 0x2CFD0, symBinAddr: 0x10003F140, symSize: 0x60 }
  - { offsetInCU: 0x80D58, offset: 0xB00D3, size: 0x8, addend: 0x0, symName: __ZNSt3__19make_pairB7v160006INS_12basic_stringIcNS_11char_traitsIcEENS_9allocatorIcEEEES6_EENS_4pairINS_18__unwrap_ref_decayIT_E4typeENS8_IT0_E4typeEEEOS9_OSC_, symObjAddr: 0x2D2E0, symBinAddr: 0x10003F450, symSize: 0x40 }
  - { offsetInCU: 0x80DA8, offset: 0xB0123, size: 0x8, addend: 0x0, symName: __ZNSt3__119__throw_regex_errorB7v160006ILNS_15regex_constants10error_typeE9EEEvv, symObjAddr: 0x2D450, symBinAddr: 0x10003F5C0, symSize: 0x60 }
  - { offsetInCU: 0x80DF2, offset: 0xB016D, size: 0x8, addend: 0x0, symName: __ZNSt3__112construct_atB7v160006INS_4pairINS_12basic_stringIcNS_11char_traitsIcEENS_9allocatorIcEEEES7_EEJS8_EPS8_EEPT_SB_DpOT0_, symObjAddr: 0x2D720, symBinAddr: 0x10003F890, symSize: 0x40 }
  - { offsetInCU: 0x80E62, offset: 0xB01DD, size: 0x8, addend: 0x0, symName: __ZNSt3__119__allocate_at_leastB7v160006INS_9allocatorINS_4pairINS_12basic_stringIcNS_11char_traitsIcEENS1_IcEEEES7_EEEEEENS_19__allocation_resultINS_16allocator_traitsIT_E7pointerEEERSC_m, symObjAddr: 0x2DC10, symBinAddr: 0x10003FD80, symSize: 0x40 }
  - { offsetInCU: 0x80EA5, offset: 0xB0220, size: 0x8, addend: 0x0, symName: __ZNSt3__142__uninitialized_allocator_move_if_noexceptB7v160006INS_9allocatorINS_4pairINS_12basic_stringIcNS_11char_traitsIcEENS1_IcEEEES7_EEEENS_16reverse_iteratorIPS8_EESC_SC_EET2_RT_T0_T1_SD_, symObjAddr: 0x2DDA0, symBinAddr: 0x10003FF10, symSize: 0x180 }
  - { offsetInCU: 0x80F44, offset: 0xB02BF, size: 0x8, addend: 0x0, symName: __ZNSt3__14swapB7v160006IPNS_4pairINS_12basic_stringIcNS_11char_traitsIcEENS_9allocatorIcEEEES7_EEEENS_9enable_ifIXaasr21is_move_constructibleIT_EE5valuesr18is_move_assignableISB_EE5valueEvE4typeERSB_SE_, symObjAddr: 0x2DF70, symBinAddr: 0x1000400E0, symSize: 0x40 }
  - { offsetInCU: 0x80F96, offset: 0xB0311, size: 0x8, addend: 0x0, symName: __ZNSt3__125__debug_db_invalidate_allB7v160006INS_6vectorINS_4pairINS_12basic_stringIcNS_11char_traitsIcEENS_9allocatorIcEEEES8_EENS6_IS9_EEEEEEvPT_, symObjAddr: 0x2E050, symBinAddr: 0x1000401C0, symSize: 0x10 }
  - { offsetInCU: 0x80FC6, offset: 0xB0341, size: 0x8, addend: 0x0, symName: __ZNSt3__122__make_exception_guardB7v160006INS_29_AllocatorDestroyRangeReverseINS_9allocatorINS_4pairINS_12basic_stringIcNS_11char_traitsIcEENS2_IcEEEES8_EEEENS_16reverse_iteratorIPS9_EEEEEENS_28__exception_guard_exceptionsIT_EESG_, symObjAddr: 0x2E060, symBinAddr: 0x1000401D0, symSize: 0x60 }
  - { offsetInCU: 0x80FFB, offset: 0xB0376, size: 0x8, addend: 0x0, symName: __ZNSt3__1neB7v160006IPNS_4pairINS_12basic_stringIcNS_11char_traitsIcEENS_9allocatorIcEEEES7_EES9_EEbRKNS_16reverse_iteratorIT_EERKNSA_IT0_EE, symObjAddr: 0x2E100, symBinAddr: 0x100040270, symSize: 0x40 }
  - { offsetInCU: 0x81047, offset: 0xB03C2, size: 0x8, addend: 0x0, symName: __ZNSt3__112__to_addressB7v160006INS_16reverse_iteratorIPNS_4pairINS_12basic_stringIcNS_11char_traitsIcEENS_9allocatorIcEEEES8_EEEEvEENS_5decayIDTclsr19__to_address_helperIT_EE6__callclsr3stdE7declvalIRKSD_EEEEE4typeESF_, symObjAddr: 0x2E140, symBinAddr: 0x1000402B0, symSize: 0x20 }
  - { offsetInCU: 0x810A7, offset: 0xB0422, size: 0x8, addend: 0x0, symName: __ZNSt3__14prevB7v160006IPNS_4pairINS_12basic_stringIcNS_11char_traitsIcEENS_9allocatorIcEEEES7_EEEENS_9enable_ifIXsr25__is_cpp17_input_iteratorIT_EE5valueESB_E4typeESB_NS_15iterator_traitsISB_E15difference_typeE, symObjAddr: 0x2E310, symBinAddr: 0x100040480, symSize: 0x50 }
  - { offsetInCU: 0x810EB, offset: 0xB0466, size: 0x8, addend: 0x0, symName: __ZNSt3__19__advanceB7v160006IPNS_4pairINS_12basic_stringIcNS_11char_traitsIcEENS_9allocatorIcEEEES7_EEEEvRT_NS_15iterator_traitsISA_E15difference_typeENS_26random_access_iterator_tagE, symObjAddr: 0x2E3B0, symBinAddr: 0x100040520, symSize: 0x20 }
  - { offsetInCU: 0x81135, offset: 0xB04B0, size: 0x8, addend: 0x0, symName: __ZNSt3__119__allocator_destroyB7v160006INS_9allocatorINS_4pairINS_12basic_stringIcNS_11char_traitsIcEENS1_IcEEEES7_EEEENS_16reverse_iteratorINSA_IPS8_EEEESD_EEvRT_T0_T1_, symObjAddr: 0x2E500, symBinAddr: 0x100040670, symSize: 0x70 }
  - { offsetInCU: 0x81197, offset: 0xB0512, size: 0x8, addend: 0x0, symName: __ZNSt3__1neB7v160006INS_16reverse_iteratorIPNS_4pairINS_12basic_stringIcNS_11char_traitsIcEENS_9allocatorIcEEEES8_EEEESB_EEbRKNS1_IT_EERKNS1_IT0_EE, symObjAddr: 0x2E5A0, symBinAddr: 0x100040710, symSize: 0x50 }
  - { offsetInCU: 0x811E3, offset: 0xB055E, size: 0x8, addend: 0x0, symName: __ZNSt3__112__to_addressB7v160006INS_16reverse_iteratorINS1_IPNS_4pairINS_12basic_stringIcNS_11char_traitsIcEENS_9allocatorIcEEEES8_EEEEEEvEENS_5decayIDTclsr19__to_address_helperIT_EE6__callclsr3stdE7declvalIRKSE_EEEEE4typeESG_, symObjAddr: 0x2E5F0, symBinAddr: 0x100040760, symSize: 0x20 }
  - { offsetInCU: 0x81243, offset: 0xB05BE, size: 0x8, addend: 0x0, symName: __ZNSt3__14prevB7v160006INS_16reverse_iteratorIPNS_4pairINS_12basic_stringIcNS_11char_traitsIcEENS_9allocatorIcEEEES8_EEEEEENS_9enable_ifIXsr25__is_cpp17_input_iteratorIT_EE5valueESD_E4typeESD_NS_15iterator_traitsISD_E15difference_typeE, symObjAddr: 0x2E6F0, symBinAddr: 0x100040860, symSize: 0x60 }
  - { offsetInCU: 0x81287, offset: 0xB0602, size: 0x8, addend: 0x0, symName: __ZNSt3__19__advanceB7v160006INS_16reverse_iteratorIPNS_4pairINS_12basic_stringIcNS_11char_traitsIcEENS_9allocatorIcEEEES8_EEEEEEvRT_NS_15iterator_traitsISC_E15difference_typeENS_26random_access_iterator_tagE, symObjAddr: 0x2E7A0, symBinAddr: 0x100040910, symSize: 0x30 }
  - { offsetInCU: 0x812D0, offset: 0xB064B, size: 0x8, addend: 0x0, symName: __ZNSt3__19make_pairB7v160006IccEENS_4pairINS_18__unwrap_ref_decayIT_E4typeENS2_IT0_E4typeEEEOS3_OS6_, symObjAddr: 0x2EB20, symBinAddr: 0x100040C90, symSize: 0x30 }
  - { offsetInCU: 0x8131F, offset: 0xB069A, size: 0x8, addend: 0x0, symName: __ZNSt3__19make_pairB7v160006IRcS1_EENS_4pairINS_18__unwrap_ref_decayIT_E4typeENS3_IT0_E4typeEEEOS4_OS7_, symObjAddr: 0x2EB50, symBinAddr: 0x100040CC0, symSize: 0x30 }
  - { offsetInCU: 0x81393, offset: 0xB070E, size: 0x8, addend: 0x0, symName: __ZNSt3__112construct_atB7v160006INS_4pairIccEEJS2_EPS2_EEPT_S5_DpOT0_, symObjAddr: 0x2EDF0, symBinAddr: 0x100040F60, symSize: 0x30 }
  - { offsetInCU: 0x81403, offset: 0xB077E, size: 0x8, addend: 0x0, symName: __ZNSt3__119__allocate_at_leastB7v160006INS_9allocatorINS_4pairIccEEEEEENS_19__allocation_resultINS_16allocator_traitsIT_E7pointerEEERS7_m, symObjAddr: 0x2F260, symBinAddr: 0x1000413D0, symSize: 0x40 }
  - { offsetInCU: 0x81446, offset: 0xB07C1, size: 0x8, addend: 0x0, symName: __ZNSt3__142__uninitialized_allocator_move_if_noexceptB7v160006INS_9allocatorINS_4pairIccEEEENS_16reverse_iteratorIPS3_EES7_S7_EET2_RT_T0_T1_S8_, symObjAddr: 0x2F3F0, symBinAddr: 0x100041560, symSize: 0x180 }
  - { offsetInCU: 0x814E5, offset: 0xB0860, size: 0x8, addend: 0x0, symName: __ZNSt3__14swapB7v160006IPNS_4pairIccEEEENS_9enable_ifIXaasr21is_move_constructibleIT_EE5valuesr18is_move_assignableIS5_EE5valueEvE4typeERS5_S8_, symObjAddr: 0x2F5C0, symBinAddr: 0x100041730, symSize: 0x40 }
  - { offsetInCU: 0x81537, offset: 0xB08B2, size: 0x8, addend: 0x0, symName: __ZNSt3__125__debug_db_invalidate_allB7v160006INS_6vectorINS_4pairIccEENS_9allocatorIS3_EEEEEEvPT_, symObjAddr: 0x2F6B0, symBinAddr: 0x100041820, symSize: 0x10 }
  - { offsetInCU: 0x81567, offset: 0xB08E2, size: 0x8, addend: 0x0, symName: __ZNSt3__122__make_exception_guardB7v160006INS_29_AllocatorDestroyRangeReverseINS_9allocatorINS_4pairIccEEEENS_16reverse_iteratorIPS4_EEEEEENS_28__exception_guard_exceptionsIT_EESB_, symObjAddr: 0x2F6C0, symBinAddr: 0x100041830, symSize: 0x60 }
  - { offsetInCU: 0x8159C, offset: 0xB0917, size: 0x8, addend: 0x0, symName: __ZNSt3__1neB7v160006IPNS_4pairIccEES3_EEbRKNS_16reverse_iteratorIT_EERKNS4_IT0_EE, symObjAddr: 0x2F760, symBinAddr: 0x1000418D0, symSize: 0x40 }
  - { offsetInCU: 0x815E8, offset: 0xB0963, size: 0x8, addend: 0x0, symName: __ZNSt3__112__to_addressB7v160006INS_16reverse_iteratorIPNS_4pairIccEEEEvEENS_5decayIDTclsr19__to_address_helperIT_EE6__callclsr3stdE7declvalIRKS7_EEEEE4typeES9_, symObjAddr: 0x2F7A0, symBinAddr: 0x100041910, symSize: 0x20 }
  - { offsetInCU: 0x81648, offset: 0xB09C3, size: 0x8, addend: 0x0, symName: __ZNSt3__14prevB7v160006IPNS_4pairIccEEEENS_9enable_ifIXsr25__is_cpp17_input_iteratorIT_EE5valueES5_E4typeES5_NS_15iterator_traitsIS5_E15difference_typeE, symObjAddr: 0x2F970, symBinAddr: 0x100041AE0, symSize: 0x50 }
  - { offsetInCU: 0x8168C, offset: 0xB0A07, size: 0x8, addend: 0x0, symName: __ZNSt3__19__advanceB7v160006IPNS_4pairIccEEEEvRT_NS_15iterator_traitsIS4_E15difference_typeENS_26random_access_iterator_tagE, symObjAddr: 0x2FA10, symBinAddr: 0x100041B80, symSize: 0x20 }
  - { offsetInCU: 0x816D6, offset: 0xB0A51, size: 0x8, addend: 0x0, symName: __ZNSt3__119__allocator_destroyB7v160006INS_9allocatorINS_4pairIccEEEENS_16reverse_iteratorINS5_IPS3_EEEES8_EEvRT_T0_T1_, symObjAddr: 0x2FB60, symBinAddr: 0x100041CD0, symSize: 0x70 }
  - { offsetInCU: 0x81738, offset: 0xB0AB3, size: 0x8, addend: 0x0, symName: __ZNSt3__1neB7v160006INS_16reverse_iteratorIPNS_4pairIccEEEES5_EEbRKNS1_IT_EERKNS1_IT0_EE, symObjAddr: 0x2FC00, symBinAddr: 0x100041D70, symSize: 0x50 }
  - { offsetInCU: 0x81784, offset: 0xB0AFF, size: 0x8, addend: 0x0, symName: __ZNSt3__112__to_addressB7v160006INS_16reverse_iteratorINS1_IPNS_4pairIccEEEEEEvEENS_5decayIDTclsr19__to_address_helperIT_EE6__callclsr3stdE7declvalIRKS8_EEEEE4typeESA_, symObjAddr: 0x2FC50, symBinAddr: 0x100041DC0, symSize: 0x20 }
  - { offsetInCU: 0x817E4, offset: 0xB0B5F, size: 0x8, addend: 0x0, symName: __ZNSt3__14prevB7v160006INS_16reverse_iteratorIPNS_4pairIccEEEEEENS_9enable_ifIXsr25__is_cpp17_input_iteratorIT_EE5valueES7_E4typeES7_NS_15iterator_traitsIS7_E15difference_typeE, symObjAddr: 0x2FD50, symBinAddr: 0x100041EC0, symSize: 0x60 }
  - { offsetInCU: 0x81828, offset: 0xB0BA3, size: 0x8, addend: 0x0, symName: __ZNSt3__19__advanceB7v160006INS_16reverse_iteratorIPNS_4pairIccEEEEEEvRT_NS_15iterator_traitsIS6_E15difference_typeENS_26random_access_iterator_tagE, symObjAddr: 0x2FE00, symBinAddr: 0x100041F70, symSize: 0x30 }
  - { offsetInCU: 0x8197E, offset: 0xB0CF9, size: 0x8, addend: 0x0, symName: __ZNSt3__119__throw_regex_errorB7v160006ILNS_15regex_constants10error_typeE8EEEvv, symObjAddr: 0x308C0, symBinAddr: 0x100042A30, symSize: 0x60 }
  - { offsetInCU: 0x819A4, offset: 0xB0D1F, size: 0x8, addend: 0x0, symName: __ZNSt3__119__throw_regex_errorB7v160006ILNS_15regex_constants10error_typeE7EEEvv, symObjAddr: 0x30920, symBinAddr: 0x100042A90, symSize: 0x60 }
  - { offsetInCU: 0x822EE, offset: 0xB1669, size: 0x8, addend: 0x0, symName: __ZNSt3__119__throw_regex_errorB7v160006ILNS_15regex_constants10error_typeE15EEEvv, symObjAddr: 0x31790, symBinAddr: 0x100043900, symSize: 0x60 }
  - { offsetInCU: 0x82387, offset: 0xB1702, size: 0x8, addend: 0x0, symName: __ZNSt3__134__libcpp_atomic_refcount_decrementB7v160006IlEET_RS1_, symObjAddr: 0x33270, symBinAddr: 0x1000453E0, symSize: 0x30 }
  - { offsetInCU: 0x823BC, offset: 0xB1737, size: 0x8, addend: 0x0, symName: __ZNSt3__121__cxx_atomic_exchangeB7v160006IiEET_PNS_22__cxx_atomic_base_implIS1_EES1_NS_12memory_orderE, symObjAddr: 0x338B0, symBinAddr: 0x100045A20, symSize: 0xB0 }
  - { offsetInCU: 0x82411, offset: 0xB178C, size: 0x8, addend: 0x0, symName: __ZNSt3__130__uninitialized_allocator_copyB7v160006INS_9allocatorINS_12basic_stringIcNS_11char_traitsIcEENS1_IcEEEEEEPKS6_S9_PS6_EET2_RT_T0_T1_SB_, symObjAddr: 0x34200, symBinAddr: 0x100045CE0, symSize: 0x100 }
  - { offsetInCU: 0x824AF, offset: 0xB182A, size: 0x8, addend: 0x0, symName: __ZNSt3__1eqB7v160006INS_4__fs10filesystem12__dir_streamES3_EEbRKNS_10shared_ptrIT_EERKNS4_IT0_EE, symObjAddr: 0x34EA0, symBinAddr: 0x1000460B0, symSize: 0x40 }
  - { offsetInCU: 0x829AF, offset: 0xB1D2A, size: 0x8, addend: 0x0, symName: __ZNSt3__119__debug_db_insert_cB7v160006INS_6vectorINS_4pairIllEENS_9allocatorIS3_EEEEEEvPT_, symObjAddr: 0x3CA00, symBinAddr: 0x10004C9E0, symSize: 0x10 }
  - { offsetInCU: 0x829E0, offset: 0xB1D5B, size: 0x8, addend: 0x0, symName: __ZNSt3__119__debug_db_insert_cB7v160006INS_13unordered_mapINS_12basic_stringIcNS_11char_traitsIcEENS_9allocatorIcEEEES7_NS_4hashIS7_EENS_8equal_toIS7_EENS5_INS_4pairIKS7_S7_EEEEEEEEvPT_, symObjAddr: 0x3CB20, symBinAddr: 0x10004CB00, symSize: 0x10 }
  - { offsetInCU: 0x82A11, offset: 0xB1D8C, size: 0x8, addend: 0x0, symName: __ZNSt3__118__debug_db_erase_cB7v160006INS_6vectorINS_4pairIllEENS_9allocatorIS3_EEEEEEvPT_, symObjAddr: 0x3D360, symBinAddr: 0x10004D340, symSize: 0x10 }
  - { offsetInCU: 0x82A41, offset: 0xB1DBC, size: 0x8, addend: 0x0, symName: __ZNSt3__112__to_addressB7v160006INS_4pairIllEEEEPT_S4_, symObjAddr: 0x3D470, symBinAddr: 0x10004D450, symSize: 0x10 }
  - { offsetInCU: 0x82A77, offset: 0xB1DF2, size: 0x8, addend: 0x0, symName: __ZNSt3__110destroy_atB7v160006INS_4pairIllEELi0EEEvPT_, symObjAddr: 0x3D520, symBinAddr: 0x10004D500, symSize: 0x20 }
  - { offsetInCU: 0x82AAE, offset: 0xB1E29, size: 0x8, addend: 0x0, symName: __ZNSt3__112__destroy_atB7v160006INS_4pairIllEELi0EEEvPT_, symObjAddr: 0x3D540, symBinAddr: 0x10004D520, symSize: 0x10 }
  - { offsetInCU: 0x82AE5, offset: 0xB1E60, size: 0x8, addend: 0x0, symName: __ZNSt3__110destroy_atB7v160006INS_4pairIKNS_12basic_stringIcNS_11char_traitsIcEENS_9allocatorIcEEEEN7httplib17MultipartFormDataEEELi0EEEvPT_, symObjAddr: 0x3D810, symBinAddr: 0x10004D7F0, symSize: 0x20 }
  - { offsetInCU: 0x82B1C, offset: 0xB1E97, size: 0x8, addend: 0x0, symName: __ZNSt3__112__destroy_atB7v160006INS_4pairIKNS_12basic_stringIcNS_11char_traitsIcEENS_9allocatorIcEEEEN7httplib17MultipartFormDataEEELi0EEEvPT_, symObjAddr: 0x3D830, symBinAddr: 0x10004D810, symSize: 0x20 }
  - { offsetInCU: 0x82B52, offset: 0xB1ECD, size: 0x8, addend: 0x0, symName: __ZNSt3__17launderB7v160006INS_4pairIKNS_12basic_stringIcNS_11char_traitsIcEENS_9allocatorIcEEEEN7httplib17MultipartFormDataEEEEEPT_SD_, symObjAddr: 0x3D930, symBinAddr: 0x10004D910, symSize: 0x20 }
  - { offsetInCU: 0x82B89, offset: 0xB1F04, size: 0x8, addend: 0x0, symName: __ZNSt3__19__launderB7v160006INS_4pairIKNS_12basic_stringIcNS_11char_traitsIcEENS_9allocatorIcEEEEN7httplib17MultipartFormDataEEEEEPT_SD_, symObjAddr: 0x3D950, symBinAddr: 0x10004D930, symSize: 0x10 }
  - { offsetInCU: 0x82BC1, offset: 0xB1F3C, size: 0x8, addend: 0x0, symName: __ZNSt3__110destroy_atB7v160006INS_4pairIKNS_12basic_stringIcNS_11char_traitsIcEENS_9allocatorIcEEEES7_EELi0EEEvPT_, symObjAddr: 0x3DBF0, symBinAddr: 0x10004DBD0, symSize: 0x20 }
  - { offsetInCU: 0x82BF8, offset: 0xB1F73, size: 0x8, addend: 0x0, symName: __ZNSt3__112__destroy_atB7v160006INS_4pairIKNS_12basic_stringIcNS_11char_traitsIcEENS_9allocatorIcEEEES7_EELi0EEEvPT_, symObjAddr: 0x3DC10, symBinAddr: 0x10004DBF0, symSize: 0x20 }
  - { offsetInCU: 0x82C2E, offset: 0xB1FA9, size: 0x8, addend: 0x0, symName: __ZNSt3__17launderB7v160006INS_4pairIKNS_12basic_stringIcNS_11char_traitsIcEENS_9allocatorIcEEEES7_EEEEPT_SB_, symObjAddr: 0x3DCA0, symBinAddr: 0x10004DC80, symSize: 0x20 }
  - { offsetInCU: 0x82C65, offset: 0xB1FE0, size: 0x8, addend: 0x0, symName: __ZNSt3__19__launderB7v160006INS_4pairIKNS_12basic_stringIcNS_11char_traitsIcEENS_9allocatorIcEEEES7_EEEEPT_SB_, symObjAddr: 0x3DCC0, symBinAddr: 0x10004DCA0, symSize: 0x10 }
  - { offsetInCU: 0x82C9C, offset: 0xB2017, size: 0x8, addend: 0x0, symName: __ZNSt3__13getB7v160006ILm0EKNS_12basic_stringIcNS_11char_traitsIcEENS_9allocatorIcEEEES6_EERKNS_13tuple_elementIXT_ENS_4pairIT0_T1_EEE4typeERKSC_, symObjAddr: 0x3E550, symBinAddr: 0x10004E530, symSize: 0x20 }
  - { offsetInCU: 0x82CE5, offset: 0xB2060, size: 0x8, addend: 0x0, symName: __ZNSt3__13getB7v160006ILm1EKNS_12basic_stringIcNS_11char_traitsIcEENS_9allocatorIcEEEES6_EERKNS_13tuple_elementIXT_ENS_4pairIT0_T1_EEE4typeERKSC_, symObjAddr: 0x3E570, symBinAddr: 0x10004E550, symSize: 0x20 }
  - { offsetInCU: 0x82DA8, offset: 0xB2123, size: 0x8, addend: 0x0, symName: __ZNSt3__123lexicographical_compareB7v160006INS_11__wrap_iterIPKcEES4_ZNK7httplib6detail2ciclERKNS_12basic_stringIcNS_11char_traitsIcEENS_9allocatorIcEEEESF_EUlhhE_EEbT_SH_T0_SI_T1_, symObjAddr: 0x3E8C0, symBinAddr: 0x10004E8A0, symSize: 0x60 }
  - { offsetInCU: 0x82E27, offset: 0xB21A2, size: 0x8, addend: 0x0, symName: __ZNSt3__125__lexicographical_compareB7v160006IRZNK7httplib6detail2ciclERKNS_12basic_stringIcNS_11char_traitsIcEENS_9allocatorIcEEEESB_EUlhhE_NS_11__wrap_iterIPKcEESH_EEbT0_SI_T1_SJ_T_, symObjAddr: 0x3E920, symBinAddr: 0x10004E900, symSize: 0x110 }
  - { offsetInCU: 0x82EA7, offset: 0xB2222, size: 0x8, addend: 0x0, symName: __ZNSt3__127__tree_balance_after_insertB7v160006IPNS_16__tree_node_baseIPvEEEEvT_S5_, symObjAddr: 0x3EA80, symBinAddr: 0x10004EA60, symSize: 0x240 }
  - { offsetInCU: 0x82F23, offset: 0xB229E, size: 0x8, addend: 0x0, symName: __ZNSt3__118__tree_left_rotateB7v160006IPNS_16__tree_node_baseIPvEEEEvT_, symObjAddr: 0x3ECC0, symBinAddr: 0x10004ECA0, symSize: 0xD0 }
  - { offsetInCU: 0x82F65, offset: 0xB22E0, size: 0x8, addend: 0x0, symName: __ZNSt3__119__tree_right_rotateB7v160006IPNS_16__tree_node_baseIPvEEEEvT_, symObjAddr: 0x3ED90, symBinAddr: 0x10004ED70, symSize: 0xC0 }
  - { offsetInCU: 0x82FA6, offset: 0xB2321, size: 0x8, addend: 0x0, symName: __ZNSt3__111__tree_leafB7v160006IPNS_16__tree_node_baseIPvEEEET_S5_, symObjAddr: 0x3EF70, symBinAddr: 0x10004EF50, symSize: 0x60 }
  - { offsetInCU: 0x8301E, offset: 0xB2399, size: 0x8, addend: 0x0, symName: __ZNSt3__112construct_atB7v160006INS_4pairIKNS_12basic_stringIcNS_11char_traitsIcEENS_9allocatorIcEEEES7_EEJRKS9_EPS9_EEPT_SE_DpOT0_, symObjAddr: 0x3F640, symBinAddr: 0x10004F620, symSize: 0x40 }
  - { offsetInCU: 0x8308E, offset: 0xB2409, size: 0x8, addend: 0x0, symName: __ZNSt3__18distanceB7v160006IPKcEENS_15iterator_traitsIT_E15difference_typeES4_S4_, symObjAddr: 0x40270, symBinAddr: 0x100050250, symSize: 0x30 }
  - { offsetInCU: 0x830D1, offset: 0xB244C, size: 0x8, addend: 0x0, symName: __ZNSt3__110__distanceB7v160006IPKcEENS_15iterator_traitsIT_E15difference_typeES4_S4_NS_26random_access_iterator_tagE, symObjAddr: 0x402A0, symBinAddr: 0x100050280, symSize: 0x20 }
  - { offsetInCU: 0x8311F, offset: 0xB249A, size: 0x8, addend: 0x0, symName: __ZNSt3__112construct_atB7v160006INS_4pairIKNS_12basic_stringIcNS_11char_traitsIcEENS_9allocatorIcEEEES7_EEJS7_S7_EPS9_EEPT_SC_DpOT0_, symObjAddr: 0x409C0, symBinAddr: 0x1000509A0, symSize: 0x40 }
  - { offsetInCU: 0x831A3, offset: 0xB251E, size: 0x8, addend: 0x0, symName: __ZNSt3__125__debug_db_invalidate_allB7v160006INS_6vectorINS_4pairIllEENS_9allocatorIS3_EEEEEEvPT_, symObjAddr: 0x41850, symBinAddr: 0x100051830, symSize: 0x10 }
  - { offsetInCU: 0x835CE, offset: 0xB2949, size: 0x8, addend: 0x0, symName: __ZNSt3__1neB7v160006ERKNS_14__map_iteratorINS_15__tree_iteratorINS_12__value_typeINS_12basic_stringIcNS_11char_traitsIcEENS_9allocatorIcEEEES8_EEPNS_11__tree_nodeIS9_PvEElEEEESH_, symObjAddr: 0x42D10, symBinAddr: 0x100052CF0, symSize: 0x30 }
  - { offsetInCU: 0x83A36, offset: 0xB2DB1, size: 0x8, addend: 0x0, symName: __ZNSt3__1neB7v160006ERKNS_15__tree_iteratorINS_12__value_typeINS_12basic_stringIcNS_11char_traitsIcEENS_9allocatorIcEEEES7_EEPNS_11__tree_nodeIS8_PvEElEESF_, symObjAddr: 0x43730, symBinAddr: 0x100053670, symSize: 0x30 }
  - { offsetInCU: 0x83A73, offset: 0xB2DEE, size: 0x8, addend: 0x0, symName: __ZNSt3__1eqB7v160006ERKNS_15__tree_iteratorINS_12__value_typeINS_12basic_stringIcNS_11char_traitsIcEENS_9allocatorIcEEEES7_EEPNS_11__tree_nodeIS8_PvEElEESF_, symObjAddr: 0x43840, symBinAddr: 0x100053780, symSize: 0x30 }
  - { offsetInCU: 0x83B17, offset: 0xB2E92, size: 0x8, addend: 0x0, symName: __ZNSt3__113__tree_removeB7v160006IPNS_16__tree_node_baseIPvEEEEvT_S5_, symObjAddr: 0x43A70, symBinAddr: 0x1000539B0, symSize: 0x5E0 }
  - { offsetInCU: 0x83B94, offset: 0xB2F0F, size: 0x8, addend: 0x0, symName: __ZNSt3__111__tree_nextB7v160006IPNS_16__tree_node_baseIPvEEEET_S5_, symObjAddr: 0x44050, symBinAddr: 0x100053F90, symSize: 0x80 }
  - { offsetInCU: 0x83BC9, offset: 0xB2F44, size: 0x8, addend: 0x0, symName: __ZNSt3__1plB7v160006IcNS_11char_traitsIcEENS_9allocatorIcEEEENS_12basic_stringIT_T0_T1_EEPKS6_OS9_, symObjAddr: 0x440F0, symBinAddr: 0x100054030, symSize: 0x50 }
  - { offsetInCU: 0x83C22, offset: 0xB2F9D, size: 0x8, addend: 0x0, symName: __ZNSt3__119__debug_db_insert_cB7v160006INS_6vectorIjNS_9allocatorIjEEEEEEvPT_, symObjAddr: 0x448C0, symBinAddr: 0x100054800, symSize: 0x10 }
  - { offsetInCU: 0x83C52, offset: 0xB2FCD, size: 0x8, addend: 0x0, symName: __ZNSt3__112__to_addressB7v160006IjEEPT_S2_, symObjAddr: 0x44C10, symBinAddr: 0x100054B50, symSize: 0x10 }
  - { offsetInCU: 0x83CAC, offset: 0xB3027, size: 0x8, addend: 0x0, symName: __ZNSt3__112construct_atB7v160006IjJjEPjEEPT_S3_DpOT0_, symObjAddr: 0x44C80, symBinAddr: 0x100054BC0, symSize: 0x30 }
  - { offsetInCU: 0x83D1C, offset: 0xB3097, size: 0x8, addend: 0x0, symName: __ZNSt3__119__allocate_at_leastB7v160006INS_9allocatorIjEEEENS_19__allocation_resultINS_16allocator_traitsIT_E7pointerEEERS5_m, symObjAddr: 0x451C0, symBinAddr: 0x100055100, symSize: 0x40 }
  - { offsetInCU: 0x83D5F, offset: 0xB30DA, size: 0x8, addend: 0x0, symName: __ZNSt3__142__uninitialized_allocator_move_if_noexceptB7v160006INS_9allocatorIjEENS_16reverse_iteratorIPjEES5_jvEET1_RT_T0_S9_S6_, symObjAddr: 0x45400, symBinAddr: 0x100055340, symSize: 0x70 }
  - { offsetInCU: 0x83DDC, offset: 0xB3157, size: 0x8, addend: 0x0, symName: __ZNSt3__14swapB7v160006IPjEENS_9enable_ifIXaasr21is_move_constructibleIT_EE5valuesr18is_move_assignableIS3_EE5valueEvE4typeERS3_S6_, symObjAddr: 0x454C0, symBinAddr: 0x100055400, symSize: 0x40 }
  - { offsetInCU: 0x83E2E, offset: 0xB31A9, size: 0x8, addend: 0x0, symName: __ZNSt3__125__debug_db_invalidate_allB7v160006INS_6vectorIjNS_9allocatorIjEEEEEEvPT_, symObjAddr: 0x455B0, symBinAddr: 0x1000554F0, symSize: 0x10 }
  - { offsetInCU: 0x83E5E, offset: 0xB31D9, size: 0x8, addend: 0x0, symName: __ZNSt3__14moveB7v160006INS_16reverse_iteratorIPjEES3_EET0_T_S5_S4_, symObjAddr: 0x45600, symBinAddr: 0x100055540, symSize: 0x80 }
  - { offsetInCU: 0x83EB8, offset: 0xB3233, size: 0x8, addend: 0x0, symName: __ZNSt3__16__moveB7v160006INS_17_ClassicAlgPolicyENS_16reverse_iteratorIPjEES4_S4_EENS_4pairIT0_T2_EES6_T1_S7_, symObjAddr: 0x45680, symBinAddr: 0x1000555C0, symSize: 0x90 }
  - { offsetInCU: 0x83F24, offset: 0xB329F, size: 0x8, addend: 0x0, symName: __ZNSt3__123__dispatch_copy_or_moveB7v160006INS_17_ClassicAlgPolicyENS_11__move_loopIS1_EENS_14__move_trivialENS_16reverse_iteratorIPjEES7_S7_EENS_4pairIT2_T4_EES9_T3_SA_, symObjAddr: 0x45710, symBinAddr: 0x100055650, symSize: 0x90 }
  - { offsetInCU: 0x83FA2, offset: 0xB331D, size: 0x8, addend: 0x0, symName: __ZNSt3__121__unwrap_and_dispatchB7v160006INS_10__overloadINS_11__move_loopINS_17_ClassicAlgPolicyEEENS_14__move_trivialEEENS_16reverse_iteratorIPjEES9_S9_Li0EEENS_4pairIT0_T2_EESB_T1_SC_, symObjAddr: 0x457A0, symBinAddr: 0x1000556E0, symSize: 0x210 }
  - { offsetInCU: 0x84031, offset: 0xB33AC, size: 0x8, addend: 0x0, symName: __ZNSt3__114__unwrap_rangeB7v160006INS_16reverse_iteratorIPjEES3_EEDaT_T0_, symObjAddr: 0x459B0, symBinAddr: 0x1000558F0, symSize: 0x60 }
  - { offsetInCU: 0x84151, offset: 0xB34CC, size: 0x8, addend: 0x0, symName: __ZNSt3__113__unwrap_iterB7v160006INS_16reverse_iteratorIPjEENS_18__unwrap_iter_implIS3_Lb0EEELi0EEEDTclsrT0_8__unwrapclsr3stdE7declvalIT_EEEES7_, symObjAddr: 0x45AB0, symBinAddr: 0x1000559F0, symSize: 0x40 }
  - { offsetInCU: 0x84195, offset: 0xB3510, size: 0x8, addend: 0x0, symName: __ZNSt3__19make_pairB7v160006INS_16reverse_iteratorIPjEES3_EENS_4pairINS_18__unwrap_ref_decayIT_E4typeENS5_IT0_E4typeEEEOS6_OS9_, symObjAddr: 0x45AF0, symBinAddr: 0x100055A30, symSize: 0x30 }
  - { offsetInCU: 0x841E4, offset: 0xB355F, size: 0x8, addend: 0x0, symName: __ZNSt3__114__rewrap_rangeB7v160006INS_16reverse_iteratorIPjEES3_S3_EET0_S4_T1_, symObjAddr: 0x45B20, symBinAddr: 0x100055A60, symSize: 0x60 }
  - { offsetInCU: 0x84239, offset: 0xB35B4, size: 0x8, addend: 0x0, symName: __ZNSt3__113__rewrap_iterB7v160006INS_16reverse_iteratorIPjEES3_NS_18__unwrap_iter_implIS3_Lb0EEEEET_S6_T0_, symObjAddr: 0x45B80, symBinAddr: 0x100055AC0, symSize: 0x70 }
  - { offsetInCU: 0x842DE, offset: 0xB3659, size: 0x8, addend: 0x0, symName: __ZNSt3__1neB7v160006IPjS1_EEbRKNS_16reverse_iteratorIT_EERKNS2_IT0_EE, symObjAddr: 0x45CF0, symBinAddr: 0x100055C30, symSize: 0x40 }
  - { offsetInCU: 0x84397, offset: 0xB3712, size: 0x8, addend: 0x0, symName: __ZNSt3__110destroy_atB7v160006IjLi0EEEvPT_, symObjAddr: 0x46050, symBinAddr: 0x100055F90, symSize: 0x20 }
  - { offsetInCU: 0x843CE, offset: 0xB3749, size: 0x8, addend: 0x0, symName: __ZNSt3__112__destroy_atB7v160006IjLi0EEEvPT_, symObjAddr: 0x46070, symBinAddr: 0x100055FB0, symSize: 0x10 }
  - { offsetInCU: 0x84405, offset: 0xB3780, size: 0x8, addend: 0x0, symName: __ZNSt3__118__debug_db_erase_cB7v160006INS_6vectorIjNS_9allocatorIjEEEEEEvPT_, symObjAddr: 0x46220, symBinAddr: 0x100056160, symSize: 0x10 }
  - { offsetInCU: 0x84493, offset: 0xB380E, size: 0x8, addend: 0x0, symName: __ZNSt3__14fillB7v160006IPjjEEvT_S2_RKT0_, symObjAddr: 0x46A80, symBinAddr: 0x1000569C0, symSize: 0x30 }
  - { offsetInCU: 0x844E9, offset: 0xB3864, size: 0x8, addend: 0x0, symName: __ZNSt3__16__fillB7v160006IPjjEEvT_S2_RKT0_NS_26random_access_iterator_tagE, symObjAddr: 0x46AF0, symBinAddr: 0x100056A30, symSize: 0x40 }
  - { offsetInCU: 0x84549, offset: 0xB38C4, size: 0x8, addend: 0x0, symName: __ZNSt3__16fill_nB7v160006IPjljEET_S2_T0_RKT1_, symObjAddr: 0x46B30, symBinAddr: 0x100056A70, symSize: 0x40 }
  - { offsetInCU: 0x845AC, offset: 0xB3927, size: 0x8, addend: 0x0, symName: __ZNSt3__18__fill_nB7v160006IPjljEET_S2_T0_RKT1_, symObjAddr: 0x46B70, symBinAddr: 0x100056AB0, symSize: 0x50 }
  - { offsetInCU: 0x84633, offset: 0xB39AE, size: 0x8, addend: 0x0, symName: __ZNSt3__111__str_rfindB7v160006IcmNS_11char_traitsIcEELm18446744073709551615EEET0_PKT_S3_S6_S3_S3_, symObjAddr: 0x46EF0, symBinAddr: 0x100056E30, symSize: 0x100 }
  - { offsetInCU: 0x846DA, offset: 0xB3A55, size: 0x8, addend: 0x0, symName: __ZNSt3__118__find_end_classicB7v160006IPKcS2_DoFbccEEET_S4_S4_T0_S5_RT1_, symObjAddr: 0x46FF0, symBinAddr: 0x100056F30, symSize: 0x60 }
  - { offsetInCU: 0x84767, offset: 0xB3AE2, size: 0x8, addend: 0x0, symName: __ZNSt3__115__find_end_implB7v160006INS_17_ClassicAlgPolicyEPKcS3_S3_S3_DoFbccENS_10__identityES5_EENS_4pairIT0_S7_EES7_T1_T2_T3_RT4_RT5_RT6_NS_20forward_iterator_tagESI_, symObjAddr: 0x47080, symBinAddr: 0x100056F90, symSize: 0x1E0 }
  - { offsetInCU: 0x84891, offset: 0xB3C0C, size: 0x8, addend: 0x0, symName: __ZNSt3__18__invokeB7v160006IRDoFbccEJRKcS4_EEEDTclclsr3stdE7declvalIT_EEspclsr3stdE7declvalIT0_EEEEOS5_DpOS6_, symObjAddr: 0x472B0, symBinAddr: 0x1000571C0, symSize: 0x40 }
  - { offsetInCU: 0x849CB, offset: 0xB3D46, size: 0x8, addend: 0x0, symName: __ZNSt3__19__advanceB7v160006INS_20__map_const_iteratorINS_21__tree_const_iteratorINS_12__value_typeINS_12basic_stringIcNS_11char_traitsIcEENS_9allocatorIcEEEES9_EEPNS_11__tree_nodeISA_PvEElEEEEEEvRT_NS_15iterator_traitsISH_E15difference_typeENS_26bidirectional_iterator_tagE, symObjAddr: 0x477D0, symBinAddr: 0x1000576E0, symSize: 0x80 }
  - { offsetInCU: 0x84A14, offset: 0xB3D8F, size: 0x8, addend: 0x0, symName: __ZNSt3__116__tree_prev_iterB7v160006IPNS_16__tree_node_baseIPvEEPNS_15__tree_end_nodeIS4_EEEET_T0_, symObjAddr: 0x478B0, symBinAddr: 0x1000577C0, symSize: 0x80 }
  - { offsetInCU: 0x84A60, offset: 0xB3DDB, size: 0x8, addend: 0x0, symName: __ZNSt3__110__tree_maxB7v160006IPNS_16__tree_node_baseIPvEEEET_S5_, symObjAddr: 0x47930, symBinAddr: 0x100057840, symSize: 0x30 }
  - { offsetInCU: 0x84AC8, offset: 0xB3E43, size: 0x8, addend: 0x0, symName: __ZNSt3__19make_pairB7v160006IRlmEENS_4pairINS_18__unwrap_ref_decayIT_E4typeENS3_IT0_E4typeEEEOS4_OS7_, symObjAddr: 0x47970, symBinAddr: 0x100057880, symSize: 0x30 }
  - { offsetInCU: 0x84C9B, offset: 0xB4016, size: 0x8, addend: 0x0, symName: __ZNSt3__116forward_as_tupleB7v160006IJZNK7httplib6Server12apply_rangesERKNS1_7RequestERNS1_8ResponseERNS_12basic_stringIcNS_11char_traitsIcEENS_9allocatorIcEEEESE_EUlPKcmE_EEENS_5tupleIJDpOT_EEESL_, symObjAddr: 0x48EA0, symBinAddr: 0x100058D00, symSize: 0x30 }
  - { offsetInCU: 0x84CD4, offset: 0xB404F, size: 0x8, addend: 0x0, symName: __ZNSt3__116forward_as_tupleB7v160006IJNS_9allocatorIZNK7httplib6Server12apply_rangesERKNS2_7RequestERNS2_8ResponseERNS_12basic_stringIcNS_11char_traitsIcEENS1_IcEEEESE_EUlPKcmE_EEEEENS_5tupleIJDpOT_EEESM_, symObjAddr: 0x48ED0, symBinAddr: 0x100058D30, symSize: 0x30 }
  - { offsetInCU: 0x84D37, offset: 0xB40B2, size: 0x8, addend: 0x0, symName: __ZNSt3__13getB7v160006ILm0EJOZNK7httplib6Server12apply_rangesERKNS1_7RequestERNS1_8ResponseERNS_12basic_stringIcNS_11char_traitsIcEENS_9allocatorIcEEEESE_EUlPKcmE_EEERNS_13tuple_elementIXT_ENS_5tupleIJDpT0_EEEE4typeERSN_, symObjAddr: 0x491A0, symBinAddr: 0x100059000, symSize: 0x20 }
  - { offsetInCU: 0x84D79, offset: 0xB40F4, size: 0x8, addend: 0x0, symName: __ZNSt3__13getB7v160006ILm0EJONS_9allocatorIZNK7httplib6Server12apply_rangesERKNS2_7RequestERNS2_8ResponseERNS_12basic_stringIcNS_11char_traitsIcEENS1_IcEEEESE_EUlPKcmE_EEEEERNS_13tuple_elementIXT_ENS_5tupleIJDpT0_EEEE4typeERSO_, symObjAddr: 0x491E0, symBinAddr: 0x100059040, symSize: 0x20 }
  - { offsetInCU: 0x852A0, offset: 0xB461B, size: 0x8, addend: 0x0, symName: __ZNSt3__116forward_as_tupleB7v160006IJRKZNK7httplib6Server12apply_rangesERKNS1_7RequestERNS1_8ResponseERNS_12basic_stringIcNS_11char_traitsIcEENS_9allocatorIcEEEESE_EUlPKcmE_EEENS_5tupleIJDpOT_EEESN_, symObjAddr: 0x496B0, symBinAddr: 0x100059510, symSize: 0x30 }
  - { offsetInCU: 0x852EE, offset: 0xB4669, size: 0x8, addend: 0x0, symName: __ZNSt3__13getB7v160006ILm0EJRKZNK7httplib6Server12apply_rangesERKNS1_7RequestERNS1_8ResponseERNS_12basic_stringIcNS_11char_traitsIcEENS_9allocatorIcEEEESE_EUlPKcmE_EEERNS_13tuple_elementIXT_ENS_5tupleIJDpT0_EEEE4typeERSO_, symObjAddr: 0x49880, symBinAddr: 0x1000596E0, symSize: 0x20 }
  - { offsetInCU: 0x85330, offset: 0xB46AB, size: 0x8, addend: 0x0, symName: __ZNSt3__116forward_as_tupleB7v160006IJRKNS_9allocatorIZNK7httplib6Server12apply_rangesERKNS2_7RequestERNS2_8ResponseERNS_12basic_stringIcNS_11char_traitsIcEENS1_IcEEEESE_EUlPKcmE_EEEEENS_5tupleIJDpOT_EEESO_, symObjAddr: 0x49B70, symBinAddr: 0x1000599D0, symSize: 0x30 }
  - { offsetInCU: 0x8537E, offset: 0xB46F9, size: 0x8, addend: 0x0, symName: __ZNSt3__13getB7v160006ILm0EJRKNS_9allocatorIZNK7httplib6Server12apply_rangesERKNS2_7RequestERNS2_8ResponseERNS_12basic_stringIcNS_11char_traitsIcEENS1_IcEEEESE_EUlPKcmE_EEEEERNS_13tuple_elementIXT_ENS_5tupleIJDpT0_EEEE4typeERSP_, symObjAddr: 0x49D20, symBinAddr: 0x100059B80, symSize: 0x20 }
  - { offsetInCU: 0x85808, offset: 0xB4B83, size: 0x8, addend: 0x0, symName: __ZNSt3__18__invokeB7v160006IRZNK7httplib6Server12apply_rangesERKNS1_7RequestERNS1_8ResponseERNS_12basic_stringIcNS_11char_traitsIcEENS_9allocatorIcEEEESE_EUlPKcmE_JSG_mEEEDTclclsr3stdE7declvalIT_EEspclsr3stdE7declvalIT0_EEEEOSJ_DpOSK_, symObjAddr: 0x49E00, symBinAddr: 0x100059C60, symSize: 0x40 }
  - { offsetInCU: 0x8586D, offset: 0xB4BE8, size: 0x8, addend: 0x0, symName: __ZNSt3__1eqB7v160006IN7httplib6detail10compressorENS_14default_deleteIS3_EEEEbRKNS_10unique_ptrIT_T0_EEDn, symObjAddr: 0x4A7F0, symBinAddr: 0x10005A4E0, symSize: 0x30 }
  - { offsetInCU: 0x85969, offset: 0xB4CE4, size: 0x8, addend: 0x0, symName: __ZNSt3__116forward_as_tupleB7v160006IJZN7httplib6detail13write_contentIZNS1_6Server27write_content_with_providerERNS1_6StreamERKNS1_7RequestERNS1_8ResponseERKNS_12basic_stringIcNS_11char_traitsIcEENS_9allocatorIcEEEESJ_EUlvE_EEbS6_RKNS_8functionIFbmmRNS1_8DataSinkEEEEmmT_RNS1_5ErrorEEUlPKcmE_EEENS_5tupleIJDpOT_EEES11_, symObjAddr: 0x4BBF0, symBinAddr: 0x10005B8E0, symSize: 0x30 }
  - { offsetInCU: 0x859A2, offset: 0xB4D1D, size: 0x8, addend: 0x0, symName: __ZNSt3__116forward_as_tupleB7v160006IJNS_9allocatorIZN7httplib6detail13write_contentIZNS2_6Server27write_content_with_providerERNS2_6StreamERKNS2_7RequestERNS2_8ResponseERKNS_12basic_stringIcNS_11char_traitsIcEENS1_IcEEEESJ_EUlvE_EEbS7_RKNS_8functionIFbmmRNS2_8DataSinkEEEEmmT_RNS2_5ErrorEEUlPKcmE_EEEEENS_5tupleIJDpOT_EEES12_, symObjAddr: 0x4BC20, symBinAddr: 0x10005B910, symSize: 0x30 }
  - { offsetInCU: 0x85A05, offset: 0xB4D80, size: 0x8, addend: 0x0, symName: __ZNSt3__13getB7v160006ILm0EJOZN7httplib6detail13write_contentIZNS1_6Server27write_content_with_providerERNS1_6StreamERKNS1_7RequestERNS1_8ResponseERKNS_12basic_stringIcNS_11char_traitsIcEENS_9allocatorIcEEEESJ_EUlvE_EEbS6_RKNS_8functionIFbmmRNS1_8DataSinkEEEEmmT_RNS1_5ErrorEEUlPKcmE_EEERNS_13tuple_elementIXT_ENS_5tupleIJDpT0_EEEE4typeERS13_, symObjAddr: 0x4BF00, symBinAddr: 0x10005BBF0, symSize: 0x20 }
  - { offsetInCU: 0x85A47, offset: 0xB4DC2, size: 0x8, addend: 0x0, symName: __ZNSt3__13getB7v160006ILm0EJONS_9allocatorIZN7httplib6detail13write_contentIZNS2_6Server27write_content_with_providerERNS2_6StreamERKNS2_7RequestERNS2_8ResponseERKNS_12basic_stringIcNS_11char_traitsIcEENS1_IcEEEESJ_EUlvE_EEbS7_RKNS_8functionIFbmmRNS2_8DataSinkEEEEmmT_RNS2_5ErrorEEUlPKcmE_EEEEERNS_13tuple_elementIXT_ENS_5tupleIJDpT0_EEEE4typeERS14_, symObjAddr: 0x4BF40, symBinAddr: 0x10005BC30, symSize: 0x20 }
  - { offsetInCU: 0x85F6E, offset: 0xB52E9, size: 0x8, addend: 0x0, symName: __ZNSt3__116forward_as_tupleB7v160006IJRKZN7httplib6detail13write_contentIZNS1_6Server27write_content_with_providerERNS1_6StreamERKNS1_7RequestERNS1_8ResponseERKNS_12basic_stringIcNS_11char_traitsIcEENS_9allocatorIcEEEESJ_EUlvE_EEbS6_RKNS_8functionIFbmmRNS1_8DataSinkEEEEmmT_RNS1_5ErrorEEUlPKcmE_EEENS_5tupleIJDpOT_EEES13_, symObjAddr: 0x4C410, symBinAddr: 0x10005C100, symSize: 0x30 }
  - { offsetInCU: 0x85FBC, offset: 0xB5337, size: 0x8, addend: 0x0, symName: __ZNSt3__13getB7v160006ILm0EJRKZN7httplib6detail13write_contentIZNS1_6Server27write_content_with_providerERNS1_6StreamERKNS1_7RequestERNS1_8ResponseERKNS_12basic_stringIcNS_11char_traitsIcEENS_9allocatorIcEEEESJ_EUlvE_EEbS6_RKNS_8functionIFbmmRNS1_8DataSinkEEEEmmT_RNS1_5ErrorEEUlPKcmE_EEERNS_13tuple_elementIXT_ENS_5tupleIJDpT0_EEEE4typeERS14_, symObjAddr: 0x4C5F0, symBinAddr: 0x10005C2E0, symSize: 0x20 }
  - { offsetInCU: 0x85FFE, offset: 0xB5379, size: 0x8, addend: 0x0, symName: __ZNSt3__116forward_as_tupleB7v160006IJRKNS_9allocatorIZN7httplib6detail13write_contentIZNS2_6Server27write_content_with_providerERNS2_6StreamERKNS2_7RequestERNS2_8ResponseERKNS_12basic_stringIcNS_11char_traitsIcEENS1_IcEEEESJ_EUlvE_EEbS7_RKNS_8functionIFbmmRNS2_8DataSinkEEEEmmT_RNS2_5ErrorEEUlPKcmE_EEEEENS_5tupleIJDpOT_EEES14_, symObjAddr: 0x4C8E0, symBinAddr: 0x10005C5D0, symSize: 0x30 }
  - { offsetInCU: 0x8604C, offset: 0xB53C7, size: 0x8, addend: 0x0, symName: __ZNSt3__13getB7v160006ILm0EJRKNS_9allocatorIZN7httplib6detail13write_contentIZNS2_6Server27write_content_with_providerERNS2_6StreamERKNS2_7RequestERNS2_8ResponseERKNS_12basic_stringIcNS_11char_traitsIcEENS1_IcEEEESJ_EUlvE_EEbS7_RKNS_8functionIFbmmRNS2_8DataSinkEEEEmmT_RNS2_5ErrorEEUlPKcmE_EEEEERNS_13tuple_elementIXT_ENS_5tupleIJDpT0_EEEE4typeERS15_, symObjAddr: 0x4CA90, symBinAddr: 0x10005C780, symSize: 0x20 }
  - { offsetInCU: 0x8608E, offset: 0xB5409, size: 0x8, addend: 0x0, symName: __ZNSt3__18__invokeB7v160006IRZN7httplib6detail13write_contentIZNS1_6Server27write_content_with_providerERNS1_6StreamERKNS1_7RequestERNS1_8ResponseERKNS_12basic_stringIcNS_11char_traitsIcEENS_9allocatorIcEEEESJ_EUlvE_EEbS6_RKNS_8functionIFbmmRNS1_8DataSinkEEEEmmT_RNS1_5ErrorEEUlPKcmE_JSW_mEEEDTclclsr3stdE7declvalISS_EEspclsr3stdE7declvalIT0_EEEEOSS_DpOSZ_, symObjAddr: 0x4CB70, symBinAddr: 0x10005C860, symSize: 0x40 }
  - { offsetInCU: 0x860F3, offset: 0xB546E, size: 0x8, addend: 0x0, symName: __ZNSt3__14swapB7v160006IPNS_10__function6__baseIFbPKcmEEEEENS_9enable_ifIXaasr21is_move_constructibleIT_EE5valuesr18is_move_assignableIS9_EE5valueEvE4typeERS9_SC_, symObjAddr: 0x4CF80, symBinAddr: 0x10005CC70, symSize: 0x40 }
  - { offsetInCU: 0x861F4, offset: 0xB556F, size: 0x8, addend: 0x0, symName: __ZNSt3__116forward_as_tupleB7v160006IJZN7httplib6detail13write_contentIZNS1_6Server27write_content_with_providerERNS1_6StreamERKNS1_7RequestERNS1_8ResponseERKNS_12basic_stringIcNS_11char_traitsIcEENS_9allocatorIcEEEESJ_EUlvE_EEbS6_RKNS_8functionIFbmmRNS1_8DataSinkEEEEmmT_RNS1_5ErrorEEUlvE_EEENS_5tupleIJDpOT_EEESZ_, symObjAddr: 0x4D6A0, symBinAddr: 0x10005D390, symSize: 0x30 }
  - { offsetInCU: 0x8622D, offset: 0xB55A8, size: 0x8, addend: 0x0, symName: __ZNSt3__116forward_as_tupleB7v160006IJNS_9allocatorIZN7httplib6detail13write_contentIZNS2_6Server27write_content_with_providerERNS2_6StreamERKNS2_7RequestERNS2_8ResponseERKNS_12basic_stringIcNS_11char_traitsIcEENS1_IcEEEESJ_EUlvE_EEbS7_RKNS_8functionIFbmmRNS2_8DataSinkEEEEmmT_RNS2_5ErrorEEUlvE_EEEEENS_5tupleIJDpOT_EEES10_, symObjAddr: 0x4D6D0, symBinAddr: 0x10005D3C0, symSize: 0x30 }
  - { offsetInCU: 0x86290, offset: 0xB560B, size: 0x8, addend: 0x0, symName: __ZNSt3__13getB7v160006ILm0EJOZN7httplib6detail13write_contentIZNS1_6Server27write_content_with_providerERNS1_6StreamERKNS1_7RequestERNS1_8ResponseERKNS_12basic_stringIcNS_11char_traitsIcEENS_9allocatorIcEEEESJ_EUlvE_EEbS6_RKNS_8functionIFbmmRNS1_8DataSinkEEEEmmT_RNS1_5ErrorEEUlvE_EEERNS_13tuple_elementIXT_ENS_5tupleIJDpT0_EEEE4typeERS11_, symObjAddr: 0x4D9A0, symBinAddr: 0x10005D690, symSize: 0x20 }
  - { offsetInCU: 0x862D2, offset: 0xB564D, size: 0x8, addend: 0x0, symName: __ZNSt3__13getB7v160006ILm0EJONS_9allocatorIZN7httplib6detail13write_contentIZNS2_6Server27write_content_with_providerERNS2_6StreamERKNS2_7RequestERNS2_8ResponseERKNS_12basic_stringIcNS_11char_traitsIcEENS1_IcEEEESJ_EUlvE_EEbS7_RKNS_8functionIFbmmRNS2_8DataSinkEEEEmmT_RNS2_5ErrorEEUlvE_EEEEERNS_13tuple_elementIXT_ENS_5tupleIJDpT0_EEEE4typeERS12_, symObjAddr: 0x4D9E0, symBinAddr: 0x10005D6D0, symSize: 0x20 }
  - { offsetInCU: 0x867F9, offset: 0xB5B74, size: 0x8, addend: 0x0, symName: __ZNSt3__116forward_as_tupleB7v160006IJRKZN7httplib6detail13write_contentIZNS1_6Server27write_content_with_providerERNS1_6StreamERKNS1_7RequestERNS1_8ResponseERKNS_12basic_stringIcNS_11char_traitsIcEENS_9allocatorIcEEEESJ_EUlvE_EEbS6_RKNS_8functionIFbmmRNS1_8DataSinkEEEEmmT_RNS1_5ErrorEEUlvE_EEENS_5tupleIJDpOT_EEES11_, symObjAddr: 0x4DEB0, symBinAddr: 0x10005DBA0, symSize: 0x30 }
  - { offsetInCU: 0x86847, offset: 0xB5BC2, size: 0x8, addend: 0x0, symName: __ZNSt3__13getB7v160006ILm0EJRKZN7httplib6detail13write_contentIZNS1_6Server27write_content_with_providerERNS1_6StreamERKNS1_7RequestERNS1_8ResponseERKNS_12basic_stringIcNS_11char_traitsIcEENS_9allocatorIcEEEESJ_EUlvE_EEbS6_RKNS_8functionIFbmmRNS1_8DataSinkEEEEmmT_RNS1_5ErrorEEUlvE_EEERNS_13tuple_elementIXT_ENS_5tupleIJDpT0_EEEE4typeERS12_, symObjAddr: 0x4E080, symBinAddr: 0x10005DD70, symSize: 0x20 }
  - { offsetInCU: 0x86889, offset: 0xB5C04, size: 0x8, addend: 0x0, symName: __ZNSt3__116forward_as_tupleB7v160006IJRKNS_9allocatorIZN7httplib6detail13write_contentIZNS2_6Server27write_content_with_providerERNS2_6StreamERKNS2_7RequestERNS2_8ResponseERKNS_12basic_stringIcNS_11char_traitsIcEENS1_IcEEEESJ_EUlvE_EEbS7_RKNS_8functionIFbmmRNS2_8DataSinkEEEEmmT_RNS2_5ErrorEEUlvE_EEEEENS_5tupleIJDpOT_EEES12_, symObjAddr: 0x4E370, symBinAddr: 0x10005E060, symSize: 0x30 }
  - { offsetInCU: 0x868D7, offset: 0xB5C52, size: 0x8, addend: 0x0, symName: __ZNSt3__13getB7v160006ILm0EJRKNS_9allocatorIZN7httplib6detail13write_contentIZNS2_6Server27write_content_with_providerERNS2_6StreamERKNS2_7RequestERNS2_8ResponseERKNS_12basic_stringIcNS_11char_traitsIcEENS1_IcEEEESJ_EUlvE_EEbS7_RKNS_8functionIFbmmRNS2_8DataSinkEEEEmmT_RNS2_5ErrorEEUlvE_EEEEERNS_13tuple_elementIXT_ENS_5tupleIJDpT0_EEEE4typeERS13_, symObjAddr: 0x4E520, symBinAddr: 0x10005E210, symSize: 0x20 }
  - { offsetInCU: 0x86919, offset: 0xB5C94, size: 0x8, addend: 0x0, symName: __ZNSt3__18__invokeB7v160006IRZN7httplib6detail13write_contentIZNS1_6Server27write_content_with_providerERNS1_6StreamERKNS1_7RequestERNS1_8ResponseERKNS_12basic_stringIcNS_11char_traitsIcEENS_9allocatorIcEEEESJ_EUlvE_EEbS6_RKNS_8functionIFbmmRNS1_8DataSinkEEEEmmT_RNS1_5ErrorEEUlvE_JEEEDTclclsr3stdE7declvalISS_EEspclsr3stdE7declvalIT0_EEEEOSS_DpOSX_, symObjAddr: 0x4E5E0, symBinAddr: 0x10005E2D0, symSize: 0x20 }
  - { offsetInCU: 0x86955, offset: 0xB5CD0, size: 0x8, addend: 0x0, symName: __ZNSt3__14swapB7v160006IPNS_10__function6__baseIFbvEEEEENS_9enable_ifIXaasr21is_move_constructibleIT_EE5valuesr18is_move_assignableIS7_EE5valueEvE4typeERS7_SA_, symObjAddr: 0x4E960, symBinAddr: 0x10005E650, symSize: 0x40 }
  - { offsetInCU: 0x86F3B, offset: 0xB62B6, size: 0x8, addend: 0x0, symName: __ZNSt3__116forward_as_tupleB7v160006IJZN7httplib6detail21write_content_chunkedIZNS1_6Server27write_content_with_providerERNS1_6StreamERKNS1_7RequestERNS1_8ResponseERKNS_12basic_stringIcNS_11char_traitsIcEENS_9allocatorIcEEEESJ_EUlvE_NS2_10compressorEEEbS6_RKNS_8functionIFbmmRNS1_8DataSinkEEEERKT_RT0_RNS1_5ErrorEEUlPKcmE_EEENS_5tupleIJDpOT_EEES16_, symObjAddr: 0x502D0, symBinAddr: 0x10005FFC0, symSize: 0x30 }
  - { offsetInCU: 0x86F74, offset: 0xB62EF, size: 0x8, addend: 0x0, symName: __ZNSt3__116forward_as_tupleB7v160006IJNS_9allocatorIZN7httplib6detail21write_content_chunkedIZNS2_6Server27write_content_with_providerERNS2_6StreamERKNS2_7RequestERNS2_8ResponseERKNS_12basic_stringIcNS_11char_traitsIcEENS1_IcEEEESJ_EUlvE_NS3_10compressorEEEbS7_RKNS_8functionIFbmmRNS2_8DataSinkEEEERKT_RT0_RNS2_5ErrorEEUlPKcmE_EEEEENS_5tupleIJDpOT_EEES17_, symObjAddr: 0x50300, symBinAddr: 0x10005FFF0, symSize: 0x30 }
  - { offsetInCU: 0x86FD7, offset: 0xB6352, size: 0x8, addend: 0x0, symName: __ZNSt3__13getB7v160006ILm0EJOZN7httplib6detail21write_content_chunkedIZNS1_6Server27write_content_with_providerERNS1_6StreamERKNS1_7RequestERNS1_8ResponseERKNS_12basic_stringIcNS_11char_traitsIcEENS_9allocatorIcEEEESJ_EUlvE_NS2_10compressorEEEbS6_RKNS_8functionIFbmmRNS1_8DataSinkEEEERKT_RT0_RNS1_5ErrorEEUlPKcmE_EEERNS_13tuple_elementIXT_ENS_5tupleIJDpT0_EEEE4typeERS18_, symObjAddr: 0x505D0, symBinAddr: 0x1000602C0, symSize: 0x20 }
  - { offsetInCU: 0x87019, offset: 0xB6394, size: 0x8, addend: 0x0, symName: __ZNSt3__13getB7v160006ILm0EJONS_9allocatorIZN7httplib6detail21write_content_chunkedIZNS2_6Server27write_content_with_providerERNS2_6StreamERKNS2_7RequestERNS2_8ResponseERKNS_12basic_stringIcNS_11char_traitsIcEENS1_IcEEEESJ_EUlvE_NS3_10compressorEEEbS7_RKNS_8functionIFbmmRNS2_8DataSinkEEEERKT_RT0_RNS2_5ErrorEEUlPKcmE_EEEEERNS_13tuple_elementIXT_ENS_5tupleIJDpT0_EEEE4typeERS19_, symObjAddr: 0x50610, symBinAddr: 0x100060300, symSize: 0x20 }
  - { offsetInCU: 0x871E7, offset: 0xB6562, size: 0x8, addend: 0x0, symName: __ZNSt3__116forward_as_tupleB7v160006IJRKZN7httplib6detail21write_content_chunkedIZNS1_6Server27write_content_with_providerERNS1_6StreamERKNS1_7RequestERNS1_8ResponseERKNS_12basic_stringIcNS_11char_traitsIcEENS_9allocatorIcEEEESJ_EUlvE_NS2_10compressorEEEbS6_RKNS_8functionIFbmmRNS1_8DataSinkEEEERKT_RT0_RNS1_5ErrorEEUlPKcmE_EEENS_5tupleIJDpOT_EEES18_, symObjAddr: 0x50970, symBinAddr: 0x100060660, symSize: 0x30 }
  - { offsetInCU: 0x87235, offset: 0xB65B0, size: 0x8, addend: 0x0, symName: __ZNSt3__13getB7v160006ILm0EJRKZN7httplib6detail21write_content_chunkedIZNS1_6Server27write_content_with_providerERNS1_6StreamERKNS1_7RequestERNS1_8ResponseERKNS_12basic_stringIcNS_11char_traitsIcEENS_9allocatorIcEEEESJ_EUlvE_NS2_10compressorEEEbS6_RKNS_8functionIFbmmRNS1_8DataSinkEEEERKT_RT0_RNS1_5ErrorEEUlPKcmE_EEERNS_13tuple_elementIXT_ENS_5tupleIJDpT0_EEEE4typeERS19_, symObjAddr: 0x50B40, symBinAddr: 0x100060830, symSize: 0x20 }
  - { offsetInCU: 0x87277, offset: 0xB65F2, size: 0x8, addend: 0x0, symName: __ZNSt3__116forward_as_tupleB7v160006IJRKNS_9allocatorIZN7httplib6detail21write_content_chunkedIZNS2_6Server27write_content_with_providerERNS2_6StreamERKNS2_7RequestERNS2_8ResponseERKNS_12basic_stringIcNS_11char_traitsIcEENS1_IcEEEESJ_EUlvE_NS3_10compressorEEEbS7_RKNS_8functionIFbmmRNS2_8DataSinkEEEERKT_RT0_RNS2_5ErrorEEUlPKcmE_EEEEENS_5tupleIJDpOT_EEES19_, symObjAddr: 0x50E40, symBinAddr: 0x100060B30, symSize: 0x30 }
  - { offsetInCU: 0x872C5, offset: 0xB6640, size: 0x8, addend: 0x0, symName: __ZNSt3__13getB7v160006ILm0EJRKNS_9allocatorIZN7httplib6detail21write_content_chunkedIZNS2_6Server27write_content_with_providerERNS2_6StreamERKNS2_7RequestERNS2_8ResponseERKNS_12basic_stringIcNS_11char_traitsIcEENS1_IcEEEESJ_EUlvE_NS3_10compressorEEEbS7_RKNS_8functionIFbmmRNS2_8DataSinkEEEERKT_RT0_RNS2_5ErrorEEUlPKcmE_EEEEERNS_13tuple_elementIXT_ENS_5tupleIJDpT0_EEEE4typeERS1A_, symObjAddr: 0x50FF0, symBinAddr: 0x100060CE0, symSize: 0x20 }
  - { offsetInCU: 0x87307, offset: 0xB6682, size: 0x8, addend: 0x0, symName: __ZNSt3__18__invokeB7v160006IRZN7httplib6detail21write_content_chunkedIZNS1_6Server27write_content_with_providerERNS1_6StreamERKNS1_7RequestERNS1_8ResponseERKNS_12basic_stringIcNS_11char_traitsIcEENS_9allocatorIcEEEESJ_EUlvE_NS2_10compressorEEEbS6_RKNS_8functionIFbmmRNS1_8DataSinkEEEERKT_RT0_RNS1_5ErrorEEUlPKcmE_JS11_mEEEDTclclsr3stdE7declvalIST_EEspclsr3stdE7declvalIT0_EEEEOST_DpOS14_, symObjAddr: 0x510D0, symBinAddr: 0x100060DC0, symSize: 0x40 }
  - { offsetInCU: 0x8741C, offset: 0xB6797, size: 0x8, addend: 0x0, symName: __ZNSt3__116forward_as_tupleB7v160006IJZZN7httplib6detail21write_content_chunkedIZNS1_6Server27write_content_with_providerERNS1_6StreamERKNS1_7RequestERNS1_8ResponseERKNS_12basic_stringIcNS_11char_traitsIcEENS_9allocatorIcEEEESJ_EUlvE_NS2_10compressorEEEbS6_RKNS_8functionIFbmmRNS1_8DataSinkEEEERKT_RT0_RNS1_5ErrorEENKUlPKcmE_clES11_mEUlS11_mE_EEENS_5tupleIJDpOT_EEES17_, symObjAddr: 0x51BE0, symBinAddr: 0x1000618D0, symSize: 0x30 }
  - { offsetInCU: 0x87455, offset: 0xB67D0, size: 0x8, addend: 0x0, symName: __ZNSt3__116forward_as_tupleB7v160006IJNS_9allocatorIZZN7httplib6detail21write_content_chunkedIZNS2_6Server27write_content_with_providerERNS2_6StreamERKNS2_7RequestERNS2_8ResponseERKNS_12basic_stringIcNS_11char_traitsIcEENS1_IcEEEESJ_EUlvE_NS3_10compressorEEEbS7_RKNS_8functionIFbmmRNS2_8DataSinkEEEERKT_RT0_RNS2_5ErrorEENKUlPKcmE_clES11_mEUlS11_mE_EEEEENS_5tupleIJDpOT_EEES18_, symObjAddr: 0x51C10, symBinAddr: 0x100061900, symSize: 0x30 }
  - { offsetInCU: 0x874B8, offset: 0xB6833, size: 0x8, addend: 0x0, symName: __ZNSt3__13getB7v160006ILm0EJOZZN7httplib6detail21write_content_chunkedIZNS1_6Server27write_content_with_providerERNS1_6StreamERKNS1_7RequestERNS1_8ResponseERKNS_12basic_stringIcNS_11char_traitsIcEENS_9allocatorIcEEEESJ_EUlvE_NS2_10compressorEEEbS6_RKNS_8functionIFbmmRNS1_8DataSinkEEEERKT_RT0_RNS1_5ErrorEENKUlPKcmE_clES11_mEUlS11_mE_EEERNS_13tuple_elementIXT_ENS_5tupleIJDpT0_EEEE4typeERS19_, symObjAddr: 0x51EE0, symBinAddr: 0x100061BD0, symSize: 0x20 }
  - { offsetInCU: 0x874FA, offset: 0xB6875, size: 0x8, addend: 0x0, symName: __ZNSt3__13getB7v160006ILm0EJONS_9allocatorIZZN7httplib6detail21write_content_chunkedIZNS2_6Server27write_content_with_providerERNS2_6StreamERKNS2_7RequestERNS2_8ResponseERKNS_12basic_stringIcNS_11char_traitsIcEENS1_IcEEEESJ_EUlvE_NS3_10compressorEEEbS7_RKNS_8functionIFbmmRNS2_8DataSinkEEEERKT_RT0_RNS2_5ErrorEENKUlPKcmE_clES11_mEUlS11_mE_EEEEERNS_13tuple_elementIXT_ENS_5tupleIJDpT0_EEEE4typeERS1A_, symObjAddr: 0x51F20, symBinAddr: 0x100061C10, symSize: 0x20 }
  - { offsetInCU: 0x87A21, offset: 0xB6D9C, size: 0x8, addend: 0x0, symName: __ZNSt3__116forward_as_tupleB7v160006IJRKZZN7httplib6detail21write_content_chunkedIZNS1_6Server27write_content_with_providerERNS1_6StreamERKNS1_7RequestERNS1_8ResponseERKNS_12basic_stringIcNS_11char_traitsIcEENS_9allocatorIcEEEESJ_EUlvE_NS2_10compressorEEEbS6_RKNS_8functionIFbmmRNS1_8DataSinkEEEERKT_RT0_RNS1_5ErrorEENKUlPKcmE_clES11_mEUlS11_mE_EEENS_5tupleIJDpOT_EEES19_, symObjAddr: 0x523F0, symBinAddr: 0x1000620E0, symSize: 0x30 }
  - { offsetInCU: 0x87A6F, offset: 0xB6DEA, size: 0x8, addend: 0x0, symName: __ZNSt3__13getB7v160006ILm0EJRKZZN7httplib6detail21write_content_chunkedIZNS1_6Server27write_content_with_providerERNS1_6StreamERKNS1_7RequestERNS1_8ResponseERKNS_12basic_stringIcNS_11char_traitsIcEENS_9allocatorIcEEEESJ_EUlvE_NS2_10compressorEEEbS6_RKNS_8functionIFbmmRNS1_8DataSinkEEEERKT_RT0_RNS1_5ErrorEENKUlPKcmE_clES11_mEUlS11_mE_EEERNS_13tuple_elementIXT_ENS_5tupleIJDpT0_EEEE4typeERS1A_, symObjAddr: 0x525C0, symBinAddr: 0x1000622B0, symSize: 0x20 }
  - { offsetInCU: 0x87AB1, offset: 0xB6E2C, size: 0x8, addend: 0x0, symName: __ZNSt3__116forward_as_tupleB7v160006IJRKNS_9allocatorIZZN7httplib6detail21write_content_chunkedIZNS2_6Server27write_content_with_providerERNS2_6StreamERKNS2_7RequestERNS2_8ResponseERKNS_12basic_stringIcNS_11char_traitsIcEENS1_IcEEEESJ_EUlvE_NS3_10compressorEEEbS7_RKNS_8functionIFbmmRNS2_8DataSinkEEEERKT_RT0_RNS2_5ErrorEENKUlPKcmE_clES11_mEUlS11_mE_EEEEENS_5tupleIJDpOT_EEES1A_, symObjAddr: 0x528B0, symBinAddr: 0x1000625A0, symSize: 0x30 }
  - { offsetInCU: 0x87AFF, offset: 0xB6E7A, size: 0x8, addend: 0x0, symName: __ZNSt3__13getB7v160006ILm0EJRKNS_9allocatorIZZN7httplib6detail21write_content_chunkedIZNS2_6Server27write_content_with_providerERNS2_6StreamERKNS2_7RequestERNS2_8ResponseERKNS_12basic_stringIcNS_11char_traitsIcEENS1_IcEEEESJ_EUlvE_NS3_10compressorEEEbS7_RKNS_8functionIFbmmRNS2_8DataSinkEEEERKT_RT0_RNS2_5ErrorEENKUlPKcmE_clES11_mEUlS11_mE_EEEEERNS_13tuple_elementIXT_ENS_5tupleIJDpT0_EEEE4typeERS1B_, symObjAddr: 0x52A60, symBinAddr: 0x100062750, symSize: 0x20 }
  - { offsetInCU: 0x87B41, offset: 0xB6EBC, size: 0x8, addend: 0x0, symName: __ZNSt3__18__invokeB7v160006IRZZN7httplib6detail21write_content_chunkedIZNS1_6Server27write_content_with_providerERNS1_6StreamERKNS1_7RequestERNS1_8ResponseERKNS_12basic_stringIcNS_11char_traitsIcEENS_9allocatorIcEEEESJ_EUlvE_NS2_10compressorEEEbS6_RKNS_8functionIFbmmRNS1_8DataSinkEEEERKT_RT0_RNS1_5ErrorEENKUlPKcmE_clES11_mEUlS11_mE_JS11_mEEEDTclclsr3stdE7declvalIST_EEspclsr3stdE7declvalIT0_EEEEOST_DpOS15_, symObjAddr: 0x52B40, symBinAddr: 0x100062830, symSize: 0x40 }
  - { offsetInCU: 0x87BA6, offset: 0xB6F21, size: 0x8, addend: 0x0, symName: __ZNSt3__1plB7v160006IcNS_11char_traitsIcEENS_9allocatorIcEEEENS_12basic_stringIT_T0_T1_EES6_RKS9_, symObjAddr: 0x52BD0, symBinAddr: 0x1000628C0, symSize: 0xF0 }
  - { offsetInCU: 0x87C39, offset: 0xB6FB4, size: 0x8, addend: 0x0, symName: __ZNSt3__16fill_nB7v160006IPcmcEET_S2_T0_RKT1_, symObjAddr: 0x52FA0, symBinAddr: 0x100062BF0, symSize: 0x40 }
  - { offsetInCU: 0x87C9C, offset: 0xB7017, size: 0x8, addend: 0x0, symName: __ZNSt3__18__fill_nB7v160006IPcmcEET_S2_T0_RKT1_, symObjAddr: 0x52FE0, symBinAddr: 0x100062C30, symSize: 0x50 }
  - { offsetInCU: 0x87CFF, offset: 0xB707A, size: 0x8, addend: 0x0, symName: __ZNSt3__14copyB7v160006IPKcPcEET0_T_S5_S4_, symObjAddr: 0x53070, symBinAddr: 0x100062CC0, symSize: 0x40 }
  - { offsetInCU: 0x87D59, offset: 0xB70D4, size: 0x8, addend: 0x0, symName: __ZNSt3__16__copyB7v160006INS_17_ClassicAlgPolicyEPKcS3_PcEENS_4pairIT0_T2_EES6_T1_S7_, symObjAddr: 0x530B0, symBinAddr: 0x100062D00, symSize: 0x40 }
  - { offsetInCU: 0x87DC5, offset: 0xB7140, size: 0x8, addend: 0x0, symName: __ZNSt3__123__dispatch_copy_or_moveB7v160006INS_17_ClassicAlgPolicyENS_11__copy_loopIS1_EENS_14__copy_trivialEPKcS6_PcEENS_4pairIT2_T4_EES9_T3_SA_, symObjAddr: 0x530F0, symBinAddr: 0x100062D40, symSize: 0x40 }
  - { offsetInCU: 0x87E43, offset: 0xB71BE, size: 0x8, addend: 0x0, symName: __ZNSt3__121__unwrap_and_dispatchB7v160006INS_10__overloadINS_11__copy_loopINS_17_ClassicAlgPolicyEEENS_14__copy_trivialEEEPKcS8_PcLi0EEENS_4pairIT0_T2_EESB_T1_SC_, symObjAddr: 0x53130, symBinAddr: 0x100062D80, symSize: 0xB0 }
  - { offsetInCU: 0x87ED2, offset: 0xB724D, size: 0x8, addend: 0x0, symName: __ZNSt3__114__unwrap_rangeB7v160006IPKcS2_EEDaT_T0_, symObjAddr: 0x531E0, symBinAddr: 0x100062E30, symSize: 0x40 }
  - { offsetInCU: 0x88067, offset: 0xB73E2, size: 0x8, addend: 0x0, symName: __ZNSt3__113__unwrap_iterB7v160006IPcNS_18__unwrap_iter_implIS1_Lb1EEELi0EEEDTclsrT0_8__unwrapclsr3stdE7declvalIT_EEEES5_, symObjAddr: 0x53260, symBinAddr: 0x100062EB0, symSize: 0x20 }
  - { offsetInCU: 0x880AB, offset: 0xB7426, size: 0x8, addend: 0x0, symName: __ZNSt3__19make_pairB7v160006IPKcPcEENS_4pairINS_18__unwrap_ref_decayIT_E4typeENS5_IT0_E4typeEEEOS6_OS9_, symObjAddr: 0x53280, symBinAddr: 0x100062ED0, symSize: 0x30 }
  - { offsetInCU: 0x880FA, offset: 0xB7475, size: 0x8, addend: 0x0, symName: __ZNSt3__114__rewrap_rangeB7v160006IPKcS2_S2_EET0_S3_T1_, symObjAddr: 0x532B0, symBinAddr: 0x100062F00, symSize: 0x30 }
  - { offsetInCU: 0x8814F, offset: 0xB74CA, size: 0x8, addend: 0x0, symName: __ZNSt3__113__rewrap_iterB7v160006IPcS1_NS_18__unwrap_iter_implIS1_Lb1EEEEET_S4_T0_, symObjAddr: 0x532E0, symBinAddr: 0x100062F30, symSize: 0x40 }
  - { offsetInCU: 0x881F4, offset: 0xB756F, size: 0x8, addend: 0x0, symName: __ZNSt3__113__unwrap_iterB7v160006IPKcNS_18__unwrap_iter_implIS2_Lb1EEELi0EEEDTclsrT0_8__unwrapclsr3stdE7declvalIT_EEEES6_, symObjAddr: 0x53370, symBinAddr: 0x100062FC0, symSize: 0x20 }
  - { offsetInCU: 0x8828B, offset: 0xB7606, size: 0x8, addend: 0x0, symName: __ZNSt3__119__copy_trivial_implB7v160006IKccEENS_4pairIPT_PT0_EES4_S4_S6_, symObjAddr: 0x53410, symBinAddr: 0x100063060, symSize: 0x70 }
  - { offsetInCU: 0x882F3, offset: 0xB766E, size: 0x8, addend: 0x0, symName: __ZNSt3__19make_pairB7v160006IRPKcPcEENS_4pairINS_18__unwrap_ref_decayIT_E4typeENS6_IT0_E4typeEEEOS7_OSA_, symObjAddr: 0x53480, symBinAddr: 0x1000630D0, symSize: 0x30 }
  - { offsetInCU: 0x88395, offset: 0xB7710, size: 0x8, addend: 0x0, symName: __ZNSt3__113__rewrap_iterB7v160006IPKcS2_NS_18__unwrap_iter_implIS2_Lb1EEEEET_S5_T0_, symObjAddr: 0x535C0, symBinAddr: 0x100063210, symSize: 0x40 }
  - { offsetInCU: 0x8849A, offset: 0xB7815, size: 0x8, addend: 0x0, symName: __ZNSt3__116forward_as_tupleB7v160006IJZN7httplib6detail21write_content_chunkedIZNS1_6Server27write_content_with_providerERNS1_6StreamERKNS1_7RequestERNS1_8ResponseERKNS_12basic_stringIcNS_11char_traitsIcEENS_9allocatorIcEEEESJ_EUlvE_NS2_10compressorEEEbS6_RKNS_8functionIFbmmRNS1_8DataSinkEEEERKT_RT0_RNS1_5ErrorEEUlvE_EEENS_5tupleIJDpOT_EEES14_, symObjAddr: 0x53D80, symBinAddr: 0x1000639D0, symSize: 0x30 }
  - { offsetInCU: 0x884D3, offset: 0xB784E, size: 0x8, addend: 0x0, symName: __ZNSt3__116forward_as_tupleB7v160006IJNS_9allocatorIZN7httplib6detail21write_content_chunkedIZNS2_6Server27write_content_with_providerERNS2_6StreamERKNS2_7RequestERNS2_8ResponseERKNS_12basic_stringIcNS_11char_traitsIcEENS1_IcEEEESJ_EUlvE_NS3_10compressorEEEbS7_RKNS_8functionIFbmmRNS2_8DataSinkEEEERKT_RT0_RNS2_5ErrorEEUlvE_EEEEENS_5tupleIJDpOT_EEES15_, symObjAddr: 0x53DB0, symBinAddr: 0x100063A00, symSize: 0x30 }
  - { offsetInCU: 0x88536, offset: 0xB78B1, size: 0x8, addend: 0x0, symName: __ZNSt3__13getB7v160006ILm0EJOZN7httplib6detail21write_content_chunkedIZNS1_6Server27write_content_with_providerERNS1_6StreamERKNS1_7RequestERNS1_8ResponseERKNS_12basic_stringIcNS_11char_traitsIcEENS_9allocatorIcEEEESJ_EUlvE_NS2_10compressorEEEbS6_RKNS_8functionIFbmmRNS1_8DataSinkEEEERKT_RT0_RNS1_5ErrorEEUlvE_EEERNS_13tuple_elementIXT_ENS_5tupleIJDpT0_EEEE4typeERS16_, symObjAddr: 0x54080, symBinAddr: 0x100063CD0, symSize: 0x20 }
  - { offsetInCU: 0x88578, offset: 0xB78F3, size: 0x8, addend: 0x0, symName: __ZNSt3__13getB7v160006ILm0EJONS_9allocatorIZN7httplib6detail21write_content_chunkedIZNS2_6Server27write_content_with_providerERNS2_6StreamERKNS2_7RequestERNS2_8ResponseERKNS_12basic_stringIcNS_11char_traitsIcEENS1_IcEEEESJ_EUlvE_NS3_10compressorEEEbS7_RKNS_8functionIFbmmRNS2_8DataSinkEEEERKT_RT0_RNS2_5ErrorEEUlvE_EEEEERNS_13tuple_elementIXT_ENS_5tupleIJDpT0_EEEE4typeERS17_, symObjAddr: 0x540C0, symBinAddr: 0x100063D10, symSize: 0x20 }
  - { offsetInCU: 0x88A9F, offset: 0xB7E1A, size: 0x8, addend: 0x0, symName: __ZNSt3__116forward_as_tupleB7v160006IJRKZN7httplib6detail21write_content_chunkedIZNS1_6Server27write_content_with_providerERNS1_6StreamERKNS1_7RequestERNS1_8ResponseERKNS_12basic_stringIcNS_11char_traitsIcEENS_9allocatorIcEEEESJ_EUlvE_NS2_10compressorEEEbS6_RKNS_8functionIFbmmRNS1_8DataSinkEEEERKT_RT0_RNS1_5ErrorEEUlvE_EEENS_5tupleIJDpOT_EEES16_, symObjAddr: 0x54590, symBinAddr: 0x1000641E0, symSize: 0x30 }
  - { offsetInCU: 0x88AED, offset: 0xB7E68, size: 0x8, addend: 0x0, symName: __ZNSt3__13getB7v160006ILm0EJRKZN7httplib6detail21write_content_chunkedIZNS1_6Server27write_content_with_providerERNS1_6StreamERKNS1_7RequestERNS1_8ResponseERKNS_12basic_stringIcNS_11char_traitsIcEENS_9allocatorIcEEEESJ_EUlvE_NS2_10compressorEEEbS6_RKNS_8functionIFbmmRNS1_8DataSinkEEEERKT_RT0_RNS1_5ErrorEEUlvE_EEERNS_13tuple_elementIXT_ENS_5tupleIJDpT0_EEEE4typeERS17_, symObjAddr: 0x54760, symBinAddr: 0x1000643B0, symSize: 0x20 }
  - { offsetInCU: 0x88B2F, offset: 0xB7EAA, size: 0x8, addend: 0x0, symName: __ZNSt3__116forward_as_tupleB7v160006IJRKNS_9allocatorIZN7httplib6detail21write_content_chunkedIZNS2_6Server27write_content_with_providerERNS2_6StreamERKNS2_7RequestERNS2_8ResponseERKNS_12basic_stringIcNS_11char_traitsIcEENS1_IcEEEESJ_EUlvE_NS3_10compressorEEEbS7_RKNS_8functionIFbmmRNS2_8DataSinkEEEERKT_RT0_RNS2_5ErrorEEUlvE_EEEEENS_5tupleIJDpOT_EEES17_, symObjAddr: 0x54A50, symBinAddr: 0x1000646A0, symSize: 0x30 }
  - { offsetInCU: 0x88B7D, offset: 0xB7EF8, size: 0x8, addend: 0x0, symName: __ZNSt3__13getB7v160006ILm0EJRKNS_9allocatorIZN7httplib6detail21write_content_chunkedIZNS2_6Server27write_content_with_providerERNS2_6StreamERKNS2_7RequestERNS2_8ResponseERKNS_12basic_stringIcNS_11char_traitsIcEENS1_IcEEEESJ_EUlvE_NS3_10compressorEEEbS7_RKNS_8functionIFbmmRNS2_8DataSinkEEEERKT_RT0_RNS2_5ErrorEEUlvE_EEEEERNS_13tuple_elementIXT_ENS_5tupleIJDpT0_EEEE4typeERS18_, symObjAddr: 0x54C00, symBinAddr: 0x100064850, symSize: 0x20 }
  - { offsetInCU: 0x88BBF, offset: 0xB7F3A, size: 0x8, addend: 0x0, symName: __ZNSt3__18__invokeB7v160006IRZN7httplib6detail21write_content_chunkedIZNS1_6Server27write_content_with_providerERNS1_6StreamERKNS1_7RequestERNS1_8ResponseERKNS_12basic_stringIcNS_11char_traitsIcEENS_9allocatorIcEEEESJ_EUlvE_NS2_10compressorEEEbS6_RKNS_8functionIFbmmRNS1_8DataSinkEEEERKT_RT0_RNS1_5ErrorEEUlvE_JEEEDTclclsr3stdE7declvalIST_EEspclsr3stdE7declvalIT0_EEEEOST_DpOS12_, symObjAddr: 0x54CC0, symBinAddr: 0x100064910, symSize: 0x20 }
  - { offsetInCU: 0x88CAB, offset: 0xB8026, size: 0x8, addend: 0x0, symName: __ZNSt3__116forward_as_tupleB7v160006IJZN7httplib6detail21write_content_chunkedIZNS1_6Server27write_content_with_providerERNS1_6StreamERKNS1_7RequestERNS1_8ResponseERKNS_12basic_stringIcNS_11char_traitsIcEENS_9allocatorIcEEEESJ_EUlvE_NS2_10compressorEEEbS6_RKNS_8functionIFbmmRNS1_8DataSinkEEEERKT_RT0_RNS1_5ErrorEEUlvE0_EEENS_5tupleIJDpOT_EEES14_, symObjAddr: 0x553F0, symBinAddr: 0x100065040, symSize: 0x30 }
  - { offsetInCU: 0x88CE4, offset: 0xB805F, size: 0x8, addend: 0x0, symName: __ZNSt3__116forward_as_tupleB7v160006IJNS_9allocatorIZN7httplib6detail21write_content_chunkedIZNS2_6Server27write_content_with_providerERNS2_6StreamERKNS2_7RequestERNS2_8ResponseERKNS_12basic_stringIcNS_11char_traitsIcEENS1_IcEEEESJ_EUlvE_NS3_10compressorEEEbS7_RKNS_8functionIFbmmRNS2_8DataSinkEEEERKT_RT0_RNS2_5ErrorEEUlvE0_EEEEENS_5tupleIJDpOT_EEES15_, symObjAddr: 0x55420, symBinAddr: 0x100065070, symSize: 0x30 }
  - { offsetInCU: 0x88D47, offset: 0xB80C2, size: 0x8, addend: 0x0, symName: __ZNSt3__13getB7v160006ILm0EJOZN7httplib6detail21write_content_chunkedIZNS1_6Server27write_content_with_providerERNS1_6StreamERKNS1_7RequestERNS1_8ResponseERKNS_12basic_stringIcNS_11char_traitsIcEENS_9allocatorIcEEEESJ_EUlvE_NS2_10compressorEEEbS6_RKNS_8functionIFbmmRNS1_8DataSinkEEEERKT_RT0_RNS1_5ErrorEEUlvE0_EEERNS_13tuple_elementIXT_ENS_5tupleIJDpT0_EEEE4typeERS16_, symObjAddr: 0x556F0, symBinAddr: 0x100065340, symSize: 0x20 }
  - { offsetInCU: 0x88D89, offset: 0xB8104, size: 0x8, addend: 0x0, symName: __ZNSt3__13getB7v160006ILm0EJONS_9allocatorIZN7httplib6detail21write_content_chunkedIZNS2_6Server27write_content_with_providerERNS2_6StreamERKNS2_7RequestERNS2_8ResponseERKNS_12basic_stringIcNS_11char_traitsIcEENS1_IcEEEESJ_EUlvE_NS3_10compressorEEEbS7_RKNS_8functionIFbmmRNS2_8DataSinkEEEERKT_RT0_RNS2_5ErrorEEUlvE0_EEEEERNS_13tuple_elementIXT_ENS_5tupleIJDpT0_EEEE4typeERS17_, symObjAddr: 0x55730, symBinAddr: 0x100065380, symSize: 0x20 }
  - { offsetInCU: 0x892B0, offset: 0xB862B, size: 0x8, addend: 0x0, symName: __ZNSt3__116forward_as_tupleB7v160006IJRKZN7httplib6detail21write_content_chunkedIZNS1_6Server27write_content_with_providerERNS1_6StreamERKNS1_7RequestERNS1_8ResponseERKNS_12basic_stringIcNS_11char_traitsIcEENS_9allocatorIcEEEESJ_EUlvE_NS2_10compressorEEEbS6_RKNS_8functionIFbmmRNS1_8DataSinkEEEERKT_RT0_RNS1_5ErrorEEUlvE0_EEENS_5tupleIJDpOT_EEES16_, symObjAddr: 0x55C00, symBinAddr: 0x100065850, symSize: 0x30 }
  - { offsetInCU: 0x892FE, offset: 0xB8679, size: 0x8, addend: 0x0, symName: __ZNSt3__13getB7v160006ILm0EJRKZN7httplib6detail21write_content_chunkedIZNS1_6Server27write_content_with_providerERNS1_6StreamERKNS1_7RequestERNS1_8ResponseERKNS_12basic_stringIcNS_11char_traitsIcEENS_9allocatorIcEEEESJ_EUlvE_NS2_10compressorEEEbS6_RKNS_8functionIFbmmRNS1_8DataSinkEEEERKT_RT0_RNS1_5ErrorEEUlvE0_EEERNS_13tuple_elementIXT_ENS_5tupleIJDpT0_EEEE4typeERS17_, symObjAddr: 0x55DD0, symBinAddr: 0x100065A20, symSize: 0x20 }
  - { offsetInCU: 0x89340, offset: 0xB86BB, size: 0x8, addend: 0x0, symName: __ZNSt3__116forward_as_tupleB7v160006IJRKNS_9allocatorIZN7httplib6detail21write_content_chunkedIZNS2_6Server27write_content_with_providerERNS2_6StreamERKNS2_7RequestERNS2_8ResponseERKNS_12basic_stringIcNS_11char_traitsIcEENS1_IcEEEESJ_EUlvE_NS3_10compressorEEEbS7_RKNS_8functionIFbmmRNS2_8DataSinkEEEERKT_RT0_RNS2_5ErrorEEUlvE0_EEEEENS_5tupleIJDpOT_EEES17_, symObjAddr: 0x560C0, symBinAddr: 0x100065D10, symSize: 0x30 }
  - { offsetInCU: 0x8938E, offset: 0xB8709, size: 0x8, addend: 0x0, symName: __ZNSt3__13getB7v160006ILm0EJRKNS_9allocatorIZN7httplib6detail21write_content_chunkedIZNS2_6Server27write_content_with_providerERNS2_6StreamERKNS2_7RequestERNS2_8ResponseERKNS_12basic_stringIcNS_11char_traitsIcEENS1_IcEEEESJ_EUlvE_NS3_10compressorEEEbS7_RKNS_8functionIFbmmRNS2_8DataSinkEEEERKT_RT0_RNS2_5ErrorEEUlvE0_EEEEERNS_13tuple_elementIXT_ENS_5tupleIJDpT0_EEEE4typeERS18_, symObjAddr: 0x56270, symBinAddr: 0x100065EC0, symSize: 0x20 }
  - { offsetInCU: 0x893D1, offset: 0xB874C, size: 0x8, addend: 0x0, symName: __ZNSt3__18__invokeB7v160006IRZN7httplib6detail21write_content_chunkedIZNS1_6Server27write_content_with_providerERNS1_6StreamERKNS1_7RequestERNS1_8ResponseERKNS_12basic_stringIcNS_11char_traitsIcEENS_9allocatorIcEEEESJ_EUlvE_NS2_10compressorEEEbS6_RKNS_8functionIFbmmRNS1_8DataSinkEEEERKT_RT0_RNS1_5ErrorEEUlvE0_JEEEDTclclsr3stdE7declvalIST_EEspclsr3stdE7declvalIT0_EEEEOST_DpOS12_, symObjAddr: 0x56330, symBinAddr: 0x100065F80, symSize: 0x20 }
  - { offsetInCU: 0x89408, offset: 0xB8783, size: 0x8, addend: 0x0, symName: __ZNSt3__1plB7v160006IcNS_11char_traitsIcEENS_9allocatorIcEEEENS_12basic_stringIT_T0_T1_EERKS9_PKS6_, symObjAddr: 0x56B30, symBinAddr: 0x100066780, symSize: 0x100 }
  - { offsetInCU: 0x8955A, offset: 0xB88D5, size: 0x8, addend: 0x0, symName: __ZNSt3__116forward_as_tupleB7v160006IJZZN7httplib6detail21write_content_chunkedIZNS1_6Server27write_content_with_providerERNS1_6StreamERKNS1_7RequestERNS1_8ResponseERKNS_12basic_stringIcNS_11char_traitsIcEENS_9allocatorIcEEEESJ_EUlvE_NS2_10compressorEEEbS6_RKNS_8functionIFbmmRNS1_8DataSinkEEEERKT_RT0_RNS1_5ErrorEENKUlPKNS_8multimapISH_SH_NS2_2ciENSF_INS_4pairISI_SH_EEEEEEE_clES17_EUlPKcmE_EEENS_5tupleIJDpOT_EEES1F_, symObjAddr: 0x57270, symBinAddr: 0x100066EC0, symSize: 0x30 }
  - { offsetInCU: 0x89593, offset: 0xB890E, size: 0x8, addend: 0x0, symName: __ZNSt3__116forward_as_tupleB7v160006IJNS_9allocatorIZZN7httplib6detail21write_content_chunkedIZNS2_6Server27write_content_with_providerERNS2_6StreamERKNS2_7RequestERNS2_8ResponseERKNS_12basic_stringIcNS_11char_traitsIcEENS1_IcEEEESJ_EUlvE_NS3_10compressorEEEbS7_RKNS_8functionIFbmmRNS2_8DataSinkEEEERKT_RT0_RNS2_5ErrorEENKUlPKNS_8multimapISH_SH_NS3_2ciENS1_INS_4pairISI_SH_EEEEEEE_clES17_EUlPKcmE_EEEEENS_5tupleIJDpOT_EEES1G_, symObjAddr: 0x572A0, symBinAddr: 0x100066EF0, symSize: 0x30 }
  - { offsetInCU: 0x895F6, offset: 0xB8971, size: 0x8, addend: 0x0, symName: __ZNSt3__13getB7v160006ILm0EJOZZN7httplib6detail21write_content_chunkedIZNS1_6Server27write_content_with_providerERNS1_6StreamERKNS1_7RequestERNS1_8ResponseERKNS_12basic_stringIcNS_11char_traitsIcEENS_9allocatorIcEEEESJ_EUlvE_NS2_10compressorEEEbS6_RKNS_8functionIFbmmRNS1_8DataSinkEEEERKT_RT0_RNS1_5ErrorEENKUlPKNS_8multimapISH_SH_NS2_2ciENSF_INS_4pairISI_SH_EEEEEEE_clES17_EUlPKcmE_EEERNS_13tuple_elementIXT_ENS_5tupleIJDpT0_EEEE4typeERS1H_, symObjAddr: 0x57570, symBinAddr: 0x1000671C0, symSize: 0x20 }
  - { offsetInCU: 0x89638, offset: 0xB89B3, size: 0x8, addend: 0x0, symName: __ZNSt3__13getB7v160006ILm0EJONS_9allocatorIZZN7httplib6detail21write_content_chunkedIZNS2_6Server27write_content_with_providerERNS2_6StreamERKNS2_7RequestERNS2_8ResponseERKNS_12basic_stringIcNS_11char_traitsIcEENS1_IcEEEESJ_EUlvE_NS3_10compressorEEEbS7_RKNS_8functionIFbmmRNS2_8DataSinkEEEERKT_RT0_RNS2_5ErrorEENKUlPKNS_8multimapISH_SH_NS3_2ciENS1_INS_4pairISI_SH_EEEEEEE_clES17_EUlPKcmE_EEEEERNS_13tuple_elementIXT_ENS_5tupleIJDpT0_EEEE4typeERS1I_, symObjAddr: 0x575B0, symBinAddr: 0x100067200, symSize: 0x20 }
  - { offsetInCU: 0x89B5F, offset: 0xB8EDA, size: 0x8, addend: 0x0, symName: __ZNSt3__116forward_as_tupleB7v160006IJRKZZN7httplib6detail21write_content_chunkedIZNS1_6Server27write_content_with_providerERNS1_6StreamERKNS1_7RequestERNS1_8ResponseERKNS_12basic_stringIcNS_11char_traitsIcEENS_9allocatorIcEEEESJ_EUlvE_NS2_10compressorEEEbS6_RKNS_8functionIFbmmRNS1_8DataSinkEEEERKT_RT0_RNS1_5ErrorEENKUlPKNS_8multimapISH_SH_NS2_2ciENSF_INS_4pairISI_SH_EEEEEEE_clES17_EUlPKcmE_EEENS_5tupleIJDpOT_EEES1H_, symObjAddr: 0x57A80, symBinAddr: 0x1000676D0, symSize: 0x30 }
  - { offsetInCU: 0x89BAD, offset: 0xB8F28, size: 0x8, addend: 0x0, symName: __ZNSt3__13getB7v160006ILm0EJRKZZN7httplib6detail21write_content_chunkedIZNS1_6Server27write_content_with_providerERNS1_6StreamERKNS1_7RequestERNS1_8ResponseERKNS_12basic_stringIcNS_11char_traitsIcEENS_9allocatorIcEEEESJ_EUlvE_NS2_10compressorEEEbS6_RKNS_8functionIFbmmRNS1_8DataSinkEEEERKT_RT0_RNS1_5ErrorEENKUlPKNS_8multimapISH_SH_NS2_2ciENSF_INS_4pairISI_SH_EEEEEEE_clES17_EUlPKcmE_EEERNS_13tuple_elementIXT_ENS_5tupleIJDpT0_EEEE4typeERS1I_, symObjAddr: 0x57C50, symBinAddr: 0x1000678A0, symSize: 0x20 }
  - { offsetInCU: 0x89BEF, offset: 0xB8F6A, size: 0x8, addend: 0x0, symName: __ZNSt3__116forward_as_tupleB7v160006IJRKNS_9allocatorIZZN7httplib6detail21write_content_chunkedIZNS2_6Server27write_content_with_providerERNS2_6StreamERKNS2_7RequestERNS2_8ResponseERKNS_12basic_stringIcNS_11char_traitsIcEENS1_IcEEEESJ_EUlvE_NS3_10compressorEEEbS7_RKNS_8functionIFbmmRNS2_8DataSinkEEEERKT_RT0_RNS2_5ErrorEENKUlPKNS_8multimapISH_SH_NS3_2ciENS1_INS_4pairISI_SH_EEEEEEE_clES17_EUlPKcmE_EEEEENS_5tupleIJDpOT_EEES1I_, symObjAddr: 0x57F40, symBinAddr: 0x100067B90, symSize: 0x30 }
  - { offsetInCU: 0x89C3D, offset: 0xB8FB8, size: 0x8, addend: 0x0, symName: __ZNSt3__13getB7v160006ILm0EJRKNS_9allocatorIZZN7httplib6detail21write_content_chunkedIZNS2_6Server27write_content_with_providerERNS2_6StreamERKNS2_7RequestERNS2_8ResponseERKNS_12basic_stringIcNS_11char_traitsIcEENS1_IcEEEESJ_EUlvE_NS3_10compressorEEEbS7_RKNS_8functionIFbmmRNS2_8DataSinkEEEERKT_RT0_RNS2_5ErrorEENKUlPKNS_8multimapISH_SH_NS3_2ciENS1_INS_4pairISI_SH_EEEEEEE_clES17_EUlPKcmE_EEEEERNS_13tuple_elementIXT_ENS_5tupleIJDpT0_EEEE4typeERS1J_, symObjAddr: 0x580F0, symBinAddr: 0x100067D40, symSize: 0x20 }
  - { offsetInCU: 0x89C7F, offset: 0xB8FFA, size: 0x8, addend: 0x0, symName: __ZNSt3__18__invokeB7v160006IRZZN7httplib6detail21write_content_chunkedIZNS1_6Server27write_content_with_providerERNS1_6StreamERKNS1_7RequestERNS1_8ResponseERKNS_12basic_stringIcNS_11char_traitsIcEENS_9allocatorIcEEEESJ_EUlvE_NS2_10compressorEEEbS6_RKNS_8functionIFbmmRNS1_8DataSinkEEEERKT_RT0_RNS1_5ErrorEENKUlPKNS_8multimapISH_SH_NS2_2ciENSF_INS_4pairISI_SH_EEEEEEE_clES17_EUlPKcmE_JS1A_mEEEDTclclsr3stdE7declvalIST_EEspclsr3stdE7declvalIT0_EEEEOST_DpOS1D_, symObjAddr: 0x581D0, symBinAddr: 0x100067E20, symSize: 0x40 }
  - { offsetInCU: 0x89CE4, offset: 0xB905F, size: 0x8, addend: 0x0, symName: __ZNSt3__14swapB7v160006IPNS_10__function6__baseIFvvEEEEENS_9enable_ifIXaasr21is_move_constructibleIT_EE5valuesr18is_move_assignableIS7_EE5valueEvE4typeERS7_SA_, symObjAddr: 0x584F0, symBinAddr: 0x100068140, symSize: 0x40 }
  - { offsetInCU: 0x89DE5, offset: 0xB9160, size: 0x8, addend: 0x0, symName: __ZNSt3__116forward_as_tupleB7v160006IJZN7httplib6detail21write_content_chunkedIZNS1_6Server27write_content_with_providerERNS1_6StreamERKNS1_7RequestERNS1_8ResponseERKNS_12basic_stringIcNS_11char_traitsIcEENS_9allocatorIcEEEESJ_EUlvE_NS2_10compressorEEEbS6_RKNS_8functionIFbmmRNS1_8DataSinkEEEERKT_RT0_RNS1_5ErrorEEUlRKNS_8multimapISH_SH_NS2_2ciENSF_INS_4pairISI_SH_EEEEEEE_EEENS_5tupleIJDpOT_EEES1C_, symObjAddr: 0x58C10, symBinAddr: 0x100068860, symSize: 0x30 }
  - { offsetInCU: 0x89E1E, offset: 0xB9199, size: 0x8, addend: 0x0, symName: __ZNSt3__116forward_as_tupleB7v160006IJNS_9allocatorIZN7httplib6detail21write_content_chunkedIZNS2_6Server27write_content_with_providerERNS2_6StreamERKNS2_7RequestERNS2_8ResponseERKNS_12basic_stringIcNS_11char_traitsIcEENS1_IcEEEESJ_EUlvE_NS3_10compressorEEEbS7_RKNS_8functionIFbmmRNS2_8DataSinkEEEERKT_RT0_RNS2_5ErrorEEUlRKNS_8multimapISH_SH_NS3_2ciENS1_INS_4pairISI_SH_EEEEEEE_EEEEENS_5tupleIJDpOT_EEES1D_, symObjAddr: 0x58C40, symBinAddr: 0x100068890, symSize: 0x30 }
  - { offsetInCU: 0x89E81, offset: 0xB91FC, size: 0x8, addend: 0x0, symName: __ZNSt3__13getB7v160006ILm0EJOZN7httplib6detail21write_content_chunkedIZNS1_6Server27write_content_with_providerERNS1_6StreamERKNS1_7RequestERNS1_8ResponseERKNS_12basic_stringIcNS_11char_traitsIcEENS_9allocatorIcEEEESJ_EUlvE_NS2_10compressorEEEbS6_RKNS_8functionIFbmmRNS1_8DataSinkEEEERKT_RT0_RNS1_5ErrorEEUlRKNS_8multimapISH_SH_NS2_2ciENSF_INS_4pairISI_SH_EEEEEEE_EEERNS_13tuple_elementIXT_ENS_5tupleIJDpT0_EEEE4typeERS1E_, symObjAddr: 0x58F10, symBinAddr: 0x100068B60, symSize: 0x20 }
  - { offsetInCU: 0x89EC3, offset: 0xB923E, size: 0x8, addend: 0x0, symName: __ZNSt3__13getB7v160006ILm0EJONS_9allocatorIZN7httplib6detail21write_content_chunkedIZNS2_6Server27write_content_with_providerERNS2_6StreamERKNS2_7RequestERNS2_8ResponseERKNS_12basic_stringIcNS_11char_traitsIcEENS1_IcEEEESJ_EUlvE_NS3_10compressorEEEbS7_RKNS_8functionIFbmmRNS2_8DataSinkEEEERKT_RT0_RNS2_5ErrorEEUlRKNS_8multimapISH_SH_NS3_2ciENS1_INS_4pairISI_SH_EEEEEEE_EEEEERNS_13tuple_elementIXT_ENS_5tupleIJDpT0_EEEE4typeERS1F_, symObjAddr: 0x58F50, symBinAddr: 0x100068BA0, symSize: 0x20 }
  - { offsetInCU: 0x8A3EA, offset: 0xB9765, size: 0x8, addend: 0x0, symName: __ZNSt3__116forward_as_tupleB7v160006IJRKZN7httplib6detail21write_content_chunkedIZNS1_6Server27write_content_with_providerERNS1_6StreamERKNS1_7RequestERNS1_8ResponseERKNS_12basic_stringIcNS_11char_traitsIcEENS_9allocatorIcEEEESJ_EUlvE_NS2_10compressorEEEbS6_RKNS_8functionIFbmmRNS1_8DataSinkEEEERKT_RT0_RNS1_5ErrorEEUlRKNS_8multimapISH_SH_NS2_2ciENSF_INS_4pairISI_SH_EEEEEEE_EEENS_5tupleIJDpOT_EEES1E_, symObjAddr: 0x59420, symBinAddr: 0x100069070, symSize: 0x30 }
  - { offsetInCU: 0x8A438, offset: 0xB97B3, size: 0x8, addend: 0x0, symName: __ZNSt3__13getB7v160006ILm0EJRKZN7httplib6detail21write_content_chunkedIZNS1_6Server27write_content_with_providerERNS1_6StreamERKNS1_7RequestERNS1_8ResponseERKNS_12basic_stringIcNS_11char_traitsIcEENS_9allocatorIcEEEESJ_EUlvE_NS2_10compressorEEEbS6_RKNS_8functionIFbmmRNS1_8DataSinkEEEERKT_RT0_RNS1_5ErrorEEUlRKNS_8multimapISH_SH_NS2_2ciENSF_INS_4pairISI_SH_EEEEEEE_EEERNS_13tuple_elementIXT_ENS_5tupleIJDpT0_EEEE4typeERS1F_, symObjAddr: 0x595F0, symBinAddr: 0x100069240, symSize: 0x20 }
  - { offsetInCU: 0x8A47A, offset: 0xB97F5, size: 0x8, addend: 0x0, symName: __ZNSt3__116forward_as_tupleB7v160006IJRKNS_9allocatorIZN7httplib6detail21write_content_chunkedIZNS2_6Server27write_content_with_providerERNS2_6StreamERKNS2_7RequestERNS2_8ResponseERKNS_12basic_stringIcNS_11char_traitsIcEENS1_IcEEEESJ_EUlvE_NS3_10compressorEEEbS7_RKNS_8functionIFbmmRNS2_8DataSinkEEEERKT_RT0_RNS2_5ErrorEEUlRKNS_8multimapISH_SH_NS3_2ciENS1_INS_4pairISI_SH_EEEEEEE_EEEEENS_5tupleIJDpOT_EEES1F_, symObjAddr: 0x598E0, symBinAddr: 0x100069530, symSize: 0x30 }
  - { offsetInCU: 0x8A4C8, offset: 0xB9843, size: 0x8, addend: 0x0, symName: __ZNSt3__13getB7v160006ILm0EJRKNS_9allocatorIZN7httplib6detail21write_content_chunkedIZNS2_6Server27write_content_with_providerERNS2_6StreamERKNS2_7RequestERNS2_8ResponseERKNS_12basic_stringIcNS_11char_traitsIcEENS1_IcEEEESJ_EUlvE_NS3_10compressorEEEbS7_RKNS_8functionIFbmmRNS2_8DataSinkEEEERKT_RT0_RNS2_5ErrorEEUlRKNS_8multimapISH_SH_NS3_2ciENS1_INS_4pairISI_SH_EEEEEEE_EEEEERNS_13tuple_elementIXT_ENS_5tupleIJDpT0_EEEE4typeERS1G_, symObjAddr: 0x59A90, symBinAddr: 0x1000696E0, symSize: 0x20 }
  - { offsetInCU: 0x8A50B, offset: 0xB9886, size: 0x8, addend: 0x0, symName: __ZNSt3__18__invokeB7v160006IRZN7httplib6detail21write_content_chunkedIZNS1_6Server27write_content_with_providerERNS1_6StreamERKNS1_7RequestERNS1_8ResponseERKNS_12basic_stringIcNS_11char_traitsIcEENS_9allocatorIcEEEESJ_EUlvE_NS2_10compressorEEEbS6_RKNS_8functionIFbmmRNS1_8DataSinkEEEERKT_RT0_RNS1_5ErrorEEUlRKNS_8multimapISH_SH_NS2_2ciENSF_INS_4pairISI_SH_EEEEEEE_JS17_EEEDTclclsr3stdE7declvalIST_EEspclsr3stdE7declvalIT0_EEEEOST_DpOS1A_, symObjAddr: 0x59B60, symBinAddr: 0x1000697B0, symSize: 0x30 }
  - { offsetInCU: 0x8A557, offset: 0xB98D2, size: 0x8, addend: 0x0, symName: __ZNSt3__14swapB7v160006IPNS_10__function6__baseIFvRKNS_8multimapINS_12basic_stringIcNS_11char_traitsIcEENS_9allocatorIcEEEES9_N7httplib6detail2ciENS7_INS_4pairIKS9_S9_EEEEEEEEEEENS_9enable_ifIXaasr21is_move_constructibleIT_EE5valuesr18is_move_assignableISO_EE5valueEvE4typeERSO_SR_, symObjAddr: 0x59EF0, symBinAddr: 0x100069B40, symSize: 0x40 }
  - { offsetInCU: 0x8A658, offset: 0xB99D3, size: 0x8, addend: 0x0, symName: __ZNSt3__116forward_as_tupleB7v160006IJZN7httplib6detail28write_content_without_lengthIZNS1_6Server27write_content_with_providerERNS1_6StreamERKNS1_7RequestERNS1_8ResponseERKNS_12basic_stringIcNS_11char_traitsIcEENS_9allocatorIcEEEESJ_EUlvE_EEbS6_RKNS_8functionIFbmmRNS1_8DataSinkEEEERKT_EUlPKcmE_EEENS_5tupleIJDpOT_EEES11_, symObjAddr: 0x5A750, symBinAddr: 0x10006A3A0, symSize: 0x30 }
  - { offsetInCU: 0x8A691, offset: 0xB9A0C, size: 0x8, addend: 0x0, symName: __ZNSt3__116forward_as_tupleB7v160006IJNS_9allocatorIZN7httplib6detail28write_content_without_lengthIZNS2_6Server27write_content_with_providerERNS2_6StreamERKNS2_7RequestERNS2_8ResponseERKNS_12basic_stringIcNS_11char_traitsIcEENS1_IcEEEESJ_EUlvE_EEbS7_RKNS_8functionIFbmmRNS2_8DataSinkEEEERKT_EUlPKcmE_EEEEENS_5tupleIJDpOT_EEES12_, symObjAddr: 0x5A780, symBinAddr: 0x10006A3D0, symSize: 0x30 }
  - { offsetInCU: 0x8A6F4, offset: 0xB9A6F, size: 0x8, addend: 0x0, symName: __ZNSt3__13getB7v160006ILm0EJOZN7httplib6detail28write_content_without_lengthIZNS1_6Server27write_content_with_providerERNS1_6StreamERKNS1_7RequestERNS1_8ResponseERKNS_12basic_stringIcNS_11char_traitsIcEENS_9allocatorIcEEEESJ_EUlvE_EEbS6_RKNS_8functionIFbmmRNS1_8DataSinkEEEERKT_EUlPKcmE_EEERNS_13tuple_elementIXT_ENS_5tupleIJDpT0_EEEE4typeERS13_, symObjAddr: 0x5AA60, symBinAddr: 0x10006A6B0, symSize: 0x20 }
  - { offsetInCU: 0x8A736, offset: 0xB9AB1, size: 0x8, addend: 0x0, symName: __ZNSt3__13getB7v160006ILm0EJONS_9allocatorIZN7httplib6detail28write_content_without_lengthIZNS2_6Server27write_content_with_providerERNS2_6StreamERKNS2_7RequestERNS2_8ResponseERKNS_12basic_stringIcNS_11char_traitsIcEENS1_IcEEEESJ_EUlvE_EEbS7_RKNS_8functionIFbmmRNS2_8DataSinkEEEERKT_EUlPKcmE_EEEEERNS_13tuple_elementIXT_ENS_5tupleIJDpT0_EEEE4typeERS14_, symObjAddr: 0x5AAA0, symBinAddr: 0x10006A6F0, symSize: 0x20 }
  - { offsetInCU: 0x8AC5D, offset: 0xB9FD8, size: 0x8, addend: 0x0, symName: __ZNSt3__116forward_as_tupleB7v160006IJRKZN7httplib6detail28write_content_without_lengthIZNS1_6Server27write_content_with_providerERNS1_6StreamERKNS1_7RequestERNS1_8ResponseERKNS_12basic_stringIcNS_11char_traitsIcEENS_9allocatorIcEEEESJ_EUlvE_EEbS6_RKNS_8functionIFbmmRNS1_8DataSinkEEEERKT_EUlPKcmE_EEENS_5tupleIJDpOT_EEES13_, symObjAddr: 0x5AF70, symBinAddr: 0x10006ABC0, symSize: 0x30 }
  - { offsetInCU: 0x8ACAB, offset: 0xBA026, size: 0x8, addend: 0x0, symName: __ZNSt3__13getB7v160006ILm0EJRKZN7httplib6detail28write_content_without_lengthIZNS1_6Server27write_content_with_providerERNS1_6StreamERKNS1_7RequestERNS1_8ResponseERKNS_12basic_stringIcNS_11char_traitsIcEENS_9allocatorIcEEEESJ_EUlvE_EEbS6_RKNS_8functionIFbmmRNS1_8DataSinkEEEERKT_EUlPKcmE_EEERNS_13tuple_elementIXT_ENS_5tupleIJDpT0_EEEE4typeERS14_, symObjAddr: 0x5B150, symBinAddr: 0x10006ADA0, symSize: 0x20 }
  - { offsetInCU: 0x8ACED, offset: 0xBA068, size: 0x8, addend: 0x0, symName: __ZNSt3__116forward_as_tupleB7v160006IJRKNS_9allocatorIZN7httplib6detail28write_content_without_lengthIZNS2_6Server27write_content_with_providerERNS2_6StreamERKNS2_7RequestERNS2_8ResponseERKNS_12basic_stringIcNS_11char_traitsIcEENS1_IcEEEESJ_EUlvE_EEbS7_RKNS_8functionIFbmmRNS2_8DataSinkEEEERKT_EUlPKcmE_EEEEENS_5tupleIJDpOT_EEES14_, symObjAddr: 0x5B440, symBinAddr: 0x10006B090, symSize: 0x30 }
  - { offsetInCU: 0x8AD3B, offset: 0xBA0B6, size: 0x8, addend: 0x0, symName: __ZNSt3__13getB7v160006ILm0EJRKNS_9allocatorIZN7httplib6detail28write_content_without_lengthIZNS2_6Server27write_content_with_providerERNS2_6StreamERKNS2_7RequestERNS2_8ResponseERKNS_12basic_stringIcNS_11char_traitsIcEENS1_IcEEEESJ_EUlvE_EEbS7_RKNS_8functionIFbmmRNS2_8DataSinkEEEERKT_EUlPKcmE_EEEEERNS_13tuple_elementIXT_ENS_5tupleIJDpT0_EEEE4typeERS15_, symObjAddr: 0x5B5F0, symBinAddr: 0x10006B240, symSize: 0x20 }
  - { offsetInCU: 0x8AD7D, offset: 0xBA0F8, size: 0x8, addend: 0x0, symName: __ZNSt3__18__invokeB7v160006IRZN7httplib6detail28write_content_without_lengthIZNS1_6Server27write_content_with_providerERNS1_6StreamERKNS1_7RequestERNS1_8ResponseERKNS_12basic_stringIcNS_11char_traitsIcEENS_9allocatorIcEEEESJ_EUlvE_EEbS6_RKNS_8functionIFbmmRNS1_8DataSinkEEEERKT_EUlPKcmE_JSW_mEEEDTclclsr3stdE7declvalISS_EEspclsr3stdE7declvalIT0_EEEEOSS_DpOSZ_, symObjAddr: 0x5B6D0, symBinAddr: 0x10006B320, symSize: 0x40 }
  - { offsetInCU: 0x8AE92, offset: 0xBA20D, size: 0x8, addend: 0x0, symName: __ZNSt3__116forward_as_tupleB7v160006IJZN7httplib6detail28write_content_without_lengthIZNS1_6Server27write_content_with_providerERNS1_6StreamERKNS1_7RequestERNS1_8ResponseERKNS_12basic_stringIcNS_11char_traitsIcEENS_9allocatorIcEEEESJ_EUlvE_EEbS6_RKNS_8functionIFbmmRNS1_8DataSinkEEEERKT_EUlvE_EEENS_5tupleIJDpOT_EEESZ_, symObjAddr: 0x5BE20, symBinAddr: 0x10006BA70, symSize: 0x30 }
  - { offsetInCU: 0x8AECB, offset: 0xBA246, size: 0x8, addend: 0x0, symName: __ZNSt3__116forward_as_tupleB7v160006IJNS_9allocatorIZN7httplib6detail28write_content_without_lengthIZNS2_6Server27write_content_with_providerERNS2_6StreamERKNS2_7RequestERNS2_8ResponseERKNS_12basic_stringIcNS_11char_traitsIcEENS1_IcEEEESJ_EUlvE_EEbS7_RKNS_8functionIFbmmRNS2_8DataSinkEEEERKT_EUlvE_EEEEENS_5tupleIJDpOT_EEES10_, symObjAddr: 0x5BE50, symBinAddr: 0x10006BAA0, symSize: 0x30 }
  - { offsetInCU: 0x8AF2E, offset: 0xBA2A9, size: 0x8, addend: 0x0, symName: __ZNSt3__13getB7v160006ILm0EJOZN7httplib6detail28write_content_without_lengthIZNS1_6Server27write_content_with_providerERNS1_6StreamERKNS1_7RequestERNS1_8ResponseERKNS_12basic_stringIcNS_11char_traitsIcEENS_9allocatorIcEEEESJ_EUlvE_EEbS6_RKNS_8functionIFbmmRNS1_8DataSinkEEEERKT_EUlvE_EEERNS_13tuple_elementIXT_ENS_5tupleIJDpT0_EEEE4typeERS11_, symObjAddr: 0x5C120, symBinAddr: 0x10006BD70, symSize: 0x20 }
  - { offsetInCU: 0x8AF70, offset: 0xBA2EB, size: 0x8, addend: 0x0, symName: __ZNSt3__13getB7v160006ILm0EJONS_9allocatorIZN7httplib6detail28write_content_without_lengthIZNS2_6Server27write_content_with_providerERNS2_6StreamERKNS2_7RequestERNS2_8ResponseERKNS_12basic_stringIcNS_11char_traitsIcEENS1_IcEEEESJ_EUlvE_EEbS7_RKNS_8functionIFbmmRNS2_8DataSinkEEEERKT_EUlvE_EEEEERNS_13tuple_elementIXT_ENS_5tupleIJDpT0_EEEE4typeERS12_, symObjAddr: 0x5C160, symBinAddr: 0x10006BDB0, symSize: 0x20 }
  - { offsetInCU: 0x8B497, offset: 0xBA812, size: 0x8, addend: 0x0, symName: __ZNSt3__116forward_as_tupleB7v160006IJRKZN7httplib6detail28write_content_without_lengthIZNS1_6Server27write_content_with_providerERNS1_6StreamERKNS1_7RequestERNS1_8ResponseERKNS_12basic_stringIcNS_11char_traitsIcEENS_9allocatorIcEEEESJ_EUlvE_EEbS6_RKNS_8functionIFbmmRNS1_8DataSinkEEEERKT_EUlvE_EEENS_5tupleIJDpOT_EEES11_, symObjAddr: 0x5C630, symBinAddr: 0x10006C280, symSize: 0x30 }
  - { offsetInCU: 0x8B4E5, offset: 0xBA860, size: 0x8, addend: 0x0, symName: __ZNSt3__13getB7v160006ILm0EJRKZN7httplib6detail28write_content_without_lengthIZNS1_6Server27write_content_with_providerERNS1_6StreamERKNS1_7RequestERNS1_8ResponseERKNS_12basic_stringIcNS_11char_traitsIcEENS_9allocatorIcEEEESJ_EUlvE_EEbS6_RKNS_8functionIFbmmRNS1_8DataSinkEEEERKT_EUlvE_EEERNS_13tuple_elementIXT_ENS_5tupleIJDpT0_EEEE4typeERS12_, symObjAddr: 0x5C800, symBinAddr: 0x10006C450, symSize: 0x20 }
  - { offsetInCU: 0x8B527, offset: 0xBA8A2, size: 0x8, addend: 0x0, symName: __ZNSt3__116forward_as_tupleB7v160006IJRKNS_9allocatorIZN7httplib6detail28write_content_without_lengthIZNS2_6Server27write_content_with_providerERNS2_6StreamERKNS2_7RequestERNS2_8ResponseERKNS_12basic_stringIcNS_11char_traitsIcEENS1_IcEEEESJ_EUlvE_EEbS7_RKNS_8functionIFbmmRNS2_8DataSinkEEEERKT_EUlvE_EEEEENS_5tupleIJDpOT_EEES12_, symObjAddr: 0x5CAF0, symBinAddr: 0x10006C740, symSize: 0x30 }
  - { offsetInCU: 0x8B575, offset: 0xBA8F0, size: 0x8, addend: 0x0, symName: __ZNSt3__13getB7v160006ILm0EJRKNS_9allocatorIZN7httplib6detail28write_content_without_lengthIZNS2_6Server27write_content_with_providerERNS2_6StreamERKNS2_7RequestERNS2_8ResponseERKNS_12basic_stringIcNS_11char_traitsIcEENS1_IcEEEESJ_EUlvE_EEbS7_RKNS_8functionIFbmmRNS2_8DataSinkEEEERKT_EUlvE_EEEEERNS_13tuple_elementIXT_ENS_5tupleIJDpT0_EEEE4typeERS13_, symObjAddr: 0x5CCA0, symBinAddr: 0x10006C8F0, symSize: 0x20 }
  - { offsetInCU: 0x8B5B7, offset: 0xBA932, size: 0x8, addend: 0x0, symName: __ZNSt3__18__invokeB7v160006IRZN7httplib6detail28write_content_without_lengthIZNS1_6Server27write_content_with_providerERNS1_6StreamERKNS1_7RequestERNS1_8ResponseERKNS_12basic_stringIcNS_11char_traitsIcEENS_9allocatorIcEEEESJ_EUlvE_EEbS6_RKNS_8functionIFbmmRNS1_8DataSinkEEEERKT_EUlvE_JEEEDTclclsr3stdE7declvalISS_EEspclsr3stdE7declvalIT0_EEEEOSS_DpOSX_, symObjAddr: 0x5CD60, symBinAddr: 0x10006C9B0, symSize: 0x20 }
  - { offsetInCU: 0x8B6A3, offset: 0xBAA1E, size: 0x8, addend: 0x0, symName: __ZNSt3__116forward_as_tupleB7v160006IJZN7httplib6detail28write_content_without_lengthIZNS1_6Server27write_content_with_providerERNS1_6StreamERKNS1_7RequestERNS1_8ResponseERKNS_12basic_stringIcNS_11char_traitsIcEENS_9allocatorIcEEEESJ_EUlvE_EEbS6_RKNS_8functionIFbmmRNS1_8DataSinkEEEERKT_EUlvE0_EEENS_5tupleIJDpOT_EEESZ_, symObjAddr: 0x5D410, symBinAddr: 0x10006D060, symSize: 0x30 }
  - { offsetInCU: 0x8B6DC, offset: 0xBAA57, size: 0x8, addend: 0x0, symName: __ZNSt3__116forward_as_tupleB7v160006IJNS_9allocatorIZN7httplib6detail28write_content_without_lengthIZNS2_6Server27write_content_with_providerERNS2_6StreamERKNS2_7RequestERNS2_8ResponseERKNS_12basic_stringIcNS_11char_traitsIcEENS1_IcEEEESJ_EUlvE_EEbS7_RKNS_8functionIFbmmRNS2_8DataSinkEEEERKT_EUlvE0_EEEEENS_5tupleIJDpOT_EEES10_, symObjAddr: 0x5D440, symBinAddr: 0x10006D090, symSize: 0x30 }
  - { offsetInCU: 0x8B73F, offset: 0xBAABA, size: 0x8, addend: 0x0, symName: __ZNSt3__13getB7v160006ILm0EJOZN7httplib6detail28write_content_without_lengthIZNS1_6Server27write_content_with_providerERNS1_6StreamERKNS1_7RequestERNS1_8ResponseERKNS_12basic_stringIcNS_11char_traitsIcEENS_9allocatorIcEEEESJ_EUlvE_EEbS6_RKNS_8functionIFbmmRNS1_8DataSinkEEEERKT_EUlvE0_EEERNS_13tuple_elementIXT_ENS_5tupleIJDpT0_EEEE4typeERS11_, symObjAddr: 0x5D710, symBinAddr: 0x10006D360, symSize: 0x20 }
  - { offsetInCU: 0x8B781, offset: 0xBAAFC, size: 0x8, addend: 0x0, symName: __ZNSt3__13getB7v160006ILm0EJONS_9allocatorIZN7httplib6detail28write_content_without_lengthIZNS2_6Server27write_content_with_providerERNS2_6StreamERKNS2_7RequestERNS2_8ResponseERKNS_12basic_stringIcNS_11char_traitsIcEENS1_IcEEEESJ_EUlvE_EEbS7_RKNS_8functionIFbmmRNS2_8DataSinkEEEERKT_EUlvE0_EEEEERNS_13tuple_elementIXT_ENS_5tupleIJDpT0_EEEE4typeERS12_, symObjAddr: 0x5D750, symBinAddr: 0x10006D3A0, symSize: 0x20 }
  - { offsetInCU: 0x8BCA8, offset: 0xBB023, size: 0x8, addend: 0x0, symName: __ZNSt3__116forward_as_tupleB7v160006IJRKZN7httplib6detail28write_content_without_lengthIZNS1_6Server27write_content_with_providerERNS1_6StreamERKNS1_7RequestERNS1_8ResponseERKNS_12basic_stringIcNS_11char_traitsIcEENS_9allocatorIcEEEESJ_EUlvE_EEbS6_RKNS_8functionIFbmmRNS1_8DataSinkEEEERKT_EUlvE0_EEENS_5tupleIJDpOT_EEES11_, symObjAddr: 0x5DC20, symBinAddr: 0x10006D870, symSize: 0x30 }
  - { offsetInCU: 0x8BCF6, offset: 0xBB071, size: 0x8, addend: 0x0, symName: __ZNSt3__13getB7v160006ILm0EJRKZN7httplib6detail28write_content_without_lengthIZNS1_6Server27write_content_with_providerERNS1_6StreamERKNS1_7RequestERNS1_8ResponseERKNS_12basic_stringIcNS_11char_traitsIcEENS_9allocatorIcEEEESJ_EUlvE_EEbS6_RKNS_8functionIFbmmRNS1_8DataSinkEEEERKT_EUlvE0_EEERNS_13tuple_elementIXT_ENS_5tupleIJDpT0_EEEE4typeERS12_, symObjAddr: 0x5DDF0, symBinAddr: 0x10006DA40, symSize: 0x20 }
  - { offsetInCU: 0x8BD38, offset: 0xBB0B3, size: 0x8, addend: 0x0, symName: __ZNSt3__116forward_as_tupleB7v160006IJRKNS_9allocatorIZN7httplib6detail28write_content_without_lengthIZNS2_6Server27write_content_with_providerERNS2_6StreamERKNS2_7RequestERNS2_8ResponseERKNS_12basic_stringIcNS_11char_traitsIcEENS1_IcEEEESJ_EUlvE_EEbS7_RKNS_8functionIFbmmRNS2_8DataSinkEEEERKT_EUlvE0_EEEEENS_5tupleIJDpOT_EEES12_, symObjAddr: 0x5E0E0, symBinAddr: 0x10006DD30, symSize: 0x30 }
  - { offsetInCU: 0x8BD86, offset: 0xBB101, size: 0x8, addend: 0x0, symName: __ZNSt3__13getB7v160006ILm0EJRKNS_9allocatorIZN7httplib6detail28write_content_without_lengthIZNS2_6Server27write_content_with_providerERNS2_6StreamERKNS2_7RequestERNS2_8ResponseERKNS_12basic_stringIcNS_11char_traitsIcEENS1_IcEEEESJ_EUlvE_EEbS7_RKNS_8functionIFbmmRNS2_8DataSinkEEEERKT_EUlvE0_EEEEERNS_13tuple_elementIXT_ENS_5tupleIJDpT0_EEEE4typeERS13_, symObjAddr: 0x5E290, symBinAddr: 0x10006DEE0, symSize: 0x20 }
  - { offsetInCU: 0x8BDC9, offset: 0xBB144, size: 0x8, addend: 0x0, symName: __ZNSt3__18__invokeB7v160006IRZN7httplib6detail28write_content_without_lengthIZNS1_6Server27write_content_with_providerERNS1_6StreamERKNS1_7RequestERNS1_8ResponseERKNS_12basic_stringIcNS_11char_traitsIcEENS_9allocatorIcEEEESJ_EUlvE_EEbS6_RKNS_8functionIFbmmRNS1_8DataSinkEEEERKT_EUlvE0_JEEEDTclclsr3stdE7declvalISS_EEspclsr3stdE7declvalIT0_EEEEOSS_DpOSX_, symObjAddr: 0x5E350, symBinAddr: 0x10006DFA0, symSize: 0x20 }
  - { offsetInCU: 0x8C04A, offset: 0xBB3C5, size: 0x8, addend: 0x0, symName: __ZNSt3__1eqB7v160006ERKNS_21__tree_const_iteratorINS_12basic_stringIcNS_11char_traitsIcEENS_9allocatorIcEEEEPNS_11__tree_nodeIS6_PvEElEESD_, symObjAddr: 0x5E5B0, symBinAddr: 0x10006E200, symSize: 0x30 }
  - { offsetInCU: 0x8C137, offset: 0xBB4B2, size: 0x8, addend: 0x0, symName: __ZNSt3__116forward_as_tupleB7v160006IJZNK7httplib6Server18parse_request_lineEPKcRNS1_7RequestEEUlS4_S4_E_EEENS_5tupleIJDpOT_EEESB_, symObjAddr: 0x5EFC0, symBinAddr: 0x10006EC10, symSize: 0x30 }
  - { offsetInCU: 0x8C170, offset: 0xBB4EB, size: 0x8, addend: 0x0, symName: __ZNSt3__116forward_as_tupleB7v160006IJNS_9allocatorIZNK7httplib6Server18parse_request_lineEPKcRNS2_7RequestEEUlS5_S5_E_EEEEENS_5tupleIJDpOT_EEESD_, symObjAddr: 0x5EFF0, symBinAddr: 0x10006EC40, symSize: 0x30 }
  - { offsetInCU: 0x8C1D3, offset: 0xBB54E, size: 0x8, addend: 0x0, symName: __ZNSt3__13getB7v160006ILm0EJOZNK7httplib6Server18parse_request_lineEPKcRNS1_7RequestEEUlS4_S4_E_EEERNS_13tuple_elementIXT_ENS_5tupleIJDpT0_EEEE4typeERSD_, symObjAddr: 0x5F2C0, symBinAddr: 0x10006EF10, symSize: 0x20 }
  - { offsetInCU: 0x8C215, offset: 0xBB590, size: 0x8, addend: 0x0, symName: __ZNSt3__13getB7v160006ILm0EJONS_9allocatorIZNK7httplib6Server18parse_request_lineEPKcRNS2_7RequestEEUlS5_S5_E_EEEEERNS_13tuple_elementIXT_ENS_5tupleIJDpT0_EEEE4typeERSF_, symObjAddr: 0x5F300, symBinAddr: 0x10006EF50, symSize: 0x20 }
  - { offsetInCU: 0x8C73C, offset: 0xBBAB7, size: 0x8, addend: 0x0, symName: __ZNSt3__116forward_as_tupleB7v160006IJRKZNK7httplib6Server18parse_request_lineEPKcRNS1_7RequestEEUlS4_S4_E_EEENS_5tupleIJDpOT_EEESD_, symObjAddr: 0x5F7E0, symBinAddr: 0x10006F430, symSize: 0x30 }
  - { offsetInCU: 0x8C78A, offset: 0xBBB05, size: 0x8, addend: 0x0, symName: __ZNSt3__13getB7v160006ILm0EJRKZNK7httplib6Server18parse_request_lineEPKcRNS1_7RequestEEUlS4_S4_E_EEERNS_13tuple_elementIXT_ENS_5tupleIJDpT0_EEEE4typeERSE_, symObjAddr: 0x5F9B0, symBinAddr: 0x10006F600, symSize: 0x20 }
  - { offsetInCU: 0x8C7CC, offset: 0xBBB47, size: 0x8, addend: 0x0, symName: __ZNSt3__116forward_as_tupleB7v160006IJRKNS_9allocatorIZNK7httplib6Server18parse_request_lineEPKcRNS2_7RequestEEUlS5_S5_E_EEEEENS_5tupleIJDpOT_EEESF_, symObjAddr: 0x5FCB0, symBinAddr: 0x10006F900, symSize: 0x30 }
  - { offsetInCU: 0x8C81A, offset: 0xBBB95, size: 0x8, addend: 0x0, symName: __ZNSt3__13getB7v160006ILm0EJRKNS_9allocatorIZNK7httplib6Server18parse_request_lineEPKcRNS2_7RequestEEUlS5_S5_E_EEEEERNS_13tuple_elementIXT_ENS_5tupleIJDpT0_EEEE4typeERSG_, symObjAddr: 0x5FE60, symBinAddr: 0x10006FAB0, symSize: 0x20 }
  - { offsetInCU: 0x8C85D, offset: 0xBBBD8, size: 0x8, addend: 0x0, symName: __ZNSt3__18__invokeB7v160006IRZNK7httplib6Server18parse_request_lineEPKcRNS1_7RequestEEUlS4_S4_E_JS4_S4_EEEDTclclsr3stdE7declvalIT_EEspclsr3stdE7declvalIT0_EEEEOS9_DpOSA_, symObjAddr: 0x5FF40, symBinAddr: 0x10006FB90, symSize: 0x40 }
  - { offsetInCU: 0x8C8BD, offset: 0xBBC38, size: 0x8, addend: 0x0, symName: __ZNSt3__14nextB7v160006INS_21__tree_const_iteratorINS_12basic_stringIcNS_11char_traitsIcEENS_9allocatorIcEEEEPNS_11__tree_nodeIS7_PvEElEEEENS_9enable_ifIXsr25__is_cpp17_input_iteratorIT_EE5valueESE_E4typeESE_NS_15iterator_traitsISE_E15difference_typeE, symObjAddr: 0x60EE0, symBinAddr: 0x100070B30, symSize: 0x50 }
  - { offsetInCU: 0x8C901, offset: 0xBBC7C, size: 0x8, addend: 0x0, symName: __ZNSt3__19__advanceB7v160006INS_21__tree_const_iteratorINS_12basic_stringIcNS_11char_traitsIcEENS_9allocatorIcEEEEPNS_11__tree_nodeIS7_PvEElEEEEvRT_NS_15iterator_traitsISD_E15difference_typeENS_26bidirectional_iterator_tagE, symObjAddr: 0x610F0, symBinAddr: 0x100070D20, symSize: 0x80 }
  - { offsetInCU: 0x8C968, offset: 0xBBCE3, size: 0x8, addend: 0x0, symName: __ZNSt3__1neB7v160006ERKNS_21__tree_const_iteratorINS_12basic_stringIcNS_11char_traitsIcEENS_9allocatorIcEEEEPNS_11__tree_nodeIS6_PvEElEESD_, symObjAddr: 0x619E0, symBinAddr: 0x100071610, symSize: 0x30 }
  - { offsetInCU: 0x8C9A5, offset: 0xBBD20, size: 0x8, addend: 0x0, symName: __ZNSt3__19make_pairB7v160006IRmS1_EENS_4pairINS_18__unwrap_ref_decayIT_E4typeENS3_IT0_E4typeEEEOS4_OS7_, symObjAddr: 0x61BF0, symBinAddr: 0x100071820, symSize: 0x30 }
  - { offsetInCU: 0x8CAA4, offset: 0xBBE1F, size: 0x8, addend: 0x0, symName: __ZNSt3__116forward_as_tupleB7v160006IJZNK7httplib6Server18parse_request_lineEPKcRNS1_7RequestEEUlS4_S4_E0_EEENS_5tupleIJDpOT_EEESB_, symObjAddr: 0x62300, symBinAddr: 0x100071F30, symSize: 0x30 }
  - { offsetInCU: 0x8CADD, offset: 0xBBE58, size: 0x8, addend: 0x0, symName: __ZNSt3__116forward_as_tupleB7v160006IJNS_9allocatorIZNK7httplib6Server18parse_request_lineEPKcRNS2_7RequestEEUlS5_S5_E0_EEEEENS_5tupleIJDpOT_EEESD_, symObjAddr: 0x62330, symBinAddr: 0x100071F60, symSize: 0x30 }
  - { offsetInCU: 0x8CB40, offset: 0xBBEBB, size: 0x8, addend: 0x0, symName: __ZNSt3__13getB7v160006ILm0EJOZNK7httplib6Server18parse_request_lineEPKcRNS1_7RequestEEUlS4_S4_E0_EEERNS_13tuple_elementIXT_ENS_5tupleIJDpT0_EEEE4typeERSD_, symObjAddr: 0x62600, symBinAddr: 0x100072230, symSize: 0x20 }
  - { offsetInCU: 0x8CB82, offset: 0xBBEFD, size: 0x8, addend: 0x0, symName: __ZNSt3__13getB7v160006ILm0EJONS_9allocatorIZNK7httplib6Server18parse_request_lineEPKcRNS2_7RequestEEUlS5_S5_E0_EEEEERNS_13tuple_elementIXT_ENS_5tupleIJDpT0_EEEE4typeERSF_, symObjAddr: 0x62640, symBinAddr: 0x100072270, symSize: 0x20 }
  - { offsetInCU: 0x8D0A9, offset: 0xBC424, size: 0x8, addend: 0x0, symName: __ZNSt3__116forward_as_tupleB7v160006IJRKZNK7httplib6Server18parse_request_lineEPKcRNS1_7RequestEEUlS4_S4_E0_EEENS_5tupleIJDpOT_EEESD_, symObjAddr: 0x62B20, symBinAddr: 0x100072750, symSize: 0x30 }
  - { offsetInCU: 0x8D0F7, offset: 0xBC472, size: 0x8, addend: 0x0, symName: __ZNSt3__13getB7v160006ILm0EJRKZNK7httplib6Server18parse_request_lineEPKcRNS1_7RequestEEUlS4_S4_E0_EEERNS_13tuple_elementIXT_ENS_5tupleIJDpT0_EEEE4typeERSE_, symObjAddr: 0x62CF0, symBinAddr: 0x100072920, symSize: 0x20 }
  - { offsetInCU: 0x8D139, offset: 0xBC4B4, size: 0x8, addend: 0x0, symName: __ZNSt3__116forward_as_tupleB7v160006IJRKNS_9allocatorIZNK7httplib6Server18parse_request_lineEPKcRNS2_7RequestEEUlS5_S5_E0_EEEEENS_5tupleIJDpOT_EEESF_, symObjAddr: 0x62FF0, symBinAddr: 0x100072C20, symSize: 0x30 }
  - { offsetInCU: 0x8D187, offset: 0xBC502, size: 0x8, addend: 0x0, symName: __ZNSt3__13getB7v160006ILm0EJRKNS_9allocatorIZNK7httplib6Server18parse_request_lineEPKcRNS2_7RequestEEUlS5_S5_E0_EEEEERNS_13tuple_elementIXT_ENS_5tupleIJDpT0_EEEE4typeERSG_, symObjAddr: 0x631A0, symBinAddr: 0x100072DD0, symSize: 0x20 }
  - { offsetInCU: 0x8D1CA, offset: 0xBC545, size: 0x8, addend: 0x0, symName: __ZNSt3__18__invokeB7v160006IRZNK7httplib6Server18parse_request_lineEPKcRNS1_7RequestEEUlS4_S4_E0_JS4_S4_EEEDTclclsr3stdE7declvalIT_EEspclsr3stdE7declvalIT0_EEEEOS9_DpOSA_, symObjAddr: 0x63280, symBinAddr: 0x100072EB0, symSize: 0x40 }
  - { offsetInCU: 0x8D2DA, offset: 0xBC655, size: 0x8, addend: 0x0, symName: __ZNSt3__116forward_as_tupleB7v160006IJZN7httplib6detail16parse_query_textERKNS_12basic_stringIcNS_11char_traitsIcEENS_9allocatorIcEEEERNS_8multimapIS8_S8_NS_4lessIS8_EENS6_INS_4pairIS9_S8_EEEEEEEUlPKcSK_E_EEENS_5tupleIJDpOT_EEESP_, symObjAddr: 0x63C00, symBinAddr: 0x100073830, symSize: 0x30 }
  - { offsetInCU: 0x8D313, offset: 0xBC68E, size: 0x8, addend: 0x0, symName: __ZNSt3__116forward_as_tupleB7v160006IJNS_9allocatorIZN7httplib6detail16parse_query_textERKNS_12basic_stringIcNS_11char_traitsIcEENS1_IcEEEERNS_8multimapIS8_S8_NS_4lessIS8_EENS1_INS_4pairIS9_S8_EEEEEEEUlPKcSK_E_EEEEENS_5tupleIJDpOT_EEESQ_, symObjAddr: 0x63C30, symBinAddr: 0x100073860, symSize: 0x30 }
  - { offsetInCU: 0x8D376, offset: 0xBC6F1, size: 0x8, addend: 0x0, symName: __ZNSt3__13getB7v160006ILm0EJOZN7httplib6detail16parse_query_textERKNS_12basic_stringIcNS_11char_traitsIcEENS_9allocatorIcEEEERNS_8multimapIS8_S8_NS_4lessIS8_EENS6_INS_4pairIS9_S8_EEEEEEEUlPKcSK_E_EEERNS_13tuple_elementIXT_ENS_5tupleIJDpT0_EEEE4typeERSR_, symObjAddr: 0x63F00, symBinAddr: 0x100073B30, symSize: 0x20 }
  - { offsetInCU: 0x8D3B8, offset: 0xBC733, size: 0x8, addend: 0x0, symName: __ZNSt3__13getB7v160006ILm0EJONS_9allocatorIZN7httplib6detail16parse_query_textERKNS_12basic_stringIcNS_11char_traitsIcEENS1_IcEEEERNS_8multimapIS8_S8_NS_4lessIS8_EENS1_INS_4pairIS9_S8_EEEEEEEUlPKcSK_E_EEEEERNS_13tuple_elementIXT_ENS_5tupleIJDpT0_EEEE4typeERSS_, symObjAddr: 0x63F40, symBinAddr: 0x100073B70, symSize: 0x20 }
  - { offsetInCU: 0x8D8DF, offset: 0xBCC5A, size: 0x8, addend: 0x0, symName: __ZNSt3__116forward_as_tupleB7v160006IJRKZN7httplib6detail16parse_query_textERKNS_12basic_stringIcNS_11char_traitsIcEENS_9allocatorIcEEEERNS_8multimapIS8_S8_NS_4lessIS8_EENS6_INS_4pairIS9_S8_EEEEEEEUlPKcSK_E_EEENS_5tupleIJDpOT_EEESR_, symObjAddr: 0x64420, symBinAddr: 0x100074050, symSize: 0x30 }
  - { offsetInCU: 0x8D92D, offset: 0xBCCA8, size: 0x8, addend: 0x0, symName: __ZNSt3__13getB7v160006ILm0EJRKZN7httplib6detail16parse_query_textERKNS_12basic_stringIcNS_11char_traitsIcEENS_9allocatorIcEEEERNS_8multimapIS8_S8_NS_4lessIS8_EENS6_INS_4pairIS9_S8_EEEEEEEUlPKcSK_E_EEERNS_13tuple_elementIXT_ENS_5tupleIJDpT0_EEEE4typeERSS_, symObjAddr: 0x645F0, symBinAddr: 0x100074220, symSize: 0x20 }
  - { offsetInCU: 0x8D96F, offset: 0xBCCEA, size: 0x8, addend: 0x0, symName: __ZNSt3__116forward_as_tupleB7v160006IJRKNS_9allocatorIZN7httplib6detail16parse_query_textERKNS_12basic_stringIcNS_11char_traitsIcEENS1_IcEEEERNS_8multimapIS8_S8_NS_4lessIS8_EENS1_INS_4pairIS9_S8_EEEEEEEUlPKcSK_E_EEEEENS_5tupleIJDpOT_EEESS_, symObjAddr: 0x648F0, symBinAddr: 0x100074520, symSize: 0x30 }
  - { offsetInCU: 0x8D9BD, offset: 0xBCD38, size: 0x8, addend: 0x0, symName: __ZNSt3__13getB7v160006ILm0EJRKNS_9allocatorIZN7httplib6detail16parse_query_textERKNS_12basic_stringIcNS_11char_traitsIcEENS1_IcEEEERNS_8multimapIS8_S8_NS_4lessIS8_EENS1_INS_4pairIS9_S8_EEEEEEEUlPKcSK_E_EEEEERNS_13tuple_elementIXT_ENS_5tupleIJDpT0_EEEE4typeERST_, symObjAddr: 0x64AA0, symBinAddr: 0x1000746D0, symSize: 0x20 }
  - { offsetInCU: 0x8DA00, offset: 0xBCD7B, size: 0x8, addend: 0x0, symName: __ZNSt3__18__invokeB7v160006IRZN7httplib6detail16parse_query_textERKNS_12basic_stringIcNS_11char_traitsIcEENS_9allocatorIcEEEERNS_8multimapIS8_S8_NS_4lessIS8_EENS6_INS_4pairIS9_S8_EEEEEEEUlPKcSK_E_JSK_SK_EEEDTclclsr3stdE7declvalIT_EEspclsr3stdE7declvalIT0_EEEEOSN_DpOSO_, symObjAddr: 0x64B80, symBinAddr: 0x1000747B0, symSize: 0x40 }
  - { offsetInCU: 0x8DA60, offset: 0xBCDDB, size: 0x8, addend: 0x0, symName: __ZNSt3__1neB7v160006ERKNS_15__tree_iteratorINS_12basic_stringIcNS_11char_traitsIcEENS_9allocatorIcEEEEPNS_11__tree_nodeIS6_PvEElEESD_, symObjAddr: 0x651A0, symBinAddr: 0x100074DD0, symSize: 0x30 }
  - { offsetInCU: 0x8DA9D, offset: 0xBCE18, size: 0x8, addend: 0x0, symName: __ZNSt3__1eqB7v160006ERKNS_15__tree_iteratorINS_12basic_stringIcNS_11char_traitsIcEENS_9allocatorIcEEEEPNS_11__tree_nodeIS6_PvEElEESD_, symObjAddr: 0x651F0, symBinAddr: 0x100074E20, symSize: 0x30 }
  - { offsetInCU: 0x8DB8A, offset: 0xBCF05, size: 0x8, addend: 0x0, symName: __ZNSt3__116forward_as_tupleB7v160006IJZZN7httplib6detail16parse_query_textERKNS_12basic_stringIcNS_11char_traitsIcEENS_9allocatorIcEEEERNS_8multimapIS8_S8_NS_4lessIS8_EENS6_INS_4pairIS9_S8_EEEEEEENKUlPKcSK_E_clESK_SK_EUlSK_SK_E_EEENS_5tupleIJDpOT_EEESQ_, symObjAddr: 0x65A20, symBinAddr: 0x100075650, symSize: 0x30 }
  - { offsetInCU: 0x8DBC3, offset: 0xBCF3E, size: 0x8, addend: 0x0, symName: __ZNSt3__116forward_as_tupleB7v160006IJNS_9allocatorIZZN7httplib6detail16parse_query_textERKNS_12basic_stringIcNS_11char_traitsIcEENS1_IcEEEERNS_8multimapIS8_S8_NS_4lessIS8_EENS1_INS_4pairIS9_S8_EEEEEEENKUlPKcSK_E_clESK_SK_EUlSK_SK_E_EEEEENS_5tupleIJDpOT_EEESR_, symObjAddr: 0x65A50, symBinAddr: 0x100075680, symSize: 0x30 }
  - { offsetInCU: 0x8DC26, offset: 0xBCFA1, size: 0x8, addend: 0x0, symName: __ZNSt3__13getB7v160006ILm0EJOZZN7httplib6detail16parse_query_textERKNS_12basic_stringIcNS_11char_traitsIcEENS_9allocatorIcEEEERNS_8multimapIS8_S8_NS_4lessIS8_EENS6_INS_4pairIS9_S8_EEEEEEENKUlPKcSK_E_clESK_SK_EUlSK_SK_E_EEERNS_13tuple_elementIXT_ENS_5tupleIJDpT0_EEEE4typeERSS_, symObjAddr: 0x65D20, symBinAddr: 0x100075950, symSize: 0x20 }
  - { offsetInCU: 0x8DC68, offset: 0xBCFE3, size: 0x8, addend: 0x0, symName: __ZNSt3__13getB7v160006ILm0EJONS_9allocatorIZZN7httplib6detail16parse_query_textERKNS_12basic_stringIcNS_11char_traitsIcEENS1_IcEEEERNS_8multimapIS8_S8_NS_4lessIS8_EENS1_INS_4pairIS9_S8_EEEEEEENKUlPKcSK_E_clESK_SK_EUlSK_SK_E_EEEEERNS_13tuple_elementIXT_ENS_5tupleIJDpT0_EEEE4typeERST_, symObjAddr: 0x65D60, symBinAddr: 0x100075990, symSize: 0x20 }
  - { offsetInCU: 0x8E18F, offset: 0xBD50A, size: 0x8, addend: 0x0, symName: __ZNSt3__116forward_as_tupleB7v160006IJRKZZN7httplib6detail16parse_query_textERKNS_12basic_stringIcNS_11char_traitsIcEENS_9allocatorIcEEEERNS_8multimapIS8_S8_NS_4lessIS8_EENS6_INS_4pairIS9_S8_EEEEEEENKUlPKcSK_E_clESK_SK_EUlSK_SK_E_EEENS_5tupleIJDpOT_EEESS_, symObjAddr: 0x66240, symBinAddr: 0x100075E70, symSize: 0x30 }
  - { offsetInCU: 0x8E1DD, offset: 0xBD558, size: 0x8, addend: 0x0, symName: __ZNSt3__13getB7v160006ILm0EJRKZZN7httplib6detail16parse_query_textERKNS_12basic_stringIcNS_11char_traitsIcEENS_9allocatorIcEEEERNS_8multimapIS8_S8_NS_4lessIS8_EENS6_INS_4pairIS9_S8_EEEEEEENKUlPKcSK_E_clESK_SK_EUlSK_SK_E_EEERNS_13tuple_elementIXT_ENS_5tupleIJDpT0_EEEE4typeERST_, symObjAddr: 0x66410, symBinAddr: 0x100076040, symSize: 0x20 }
  - { offsetInCU: 0x8E21F, offset: 0xBD59A, size: 0x8, addend: 0x0, symName: __ZNSt3__116forward_as_tupleB7v160006IJRKNS_9allocatorIZZN7httplib6detail16parse_query_textERKNS_12basic_stringIcNS_11char_traitsIcEENS1_IcEEEERNS_8multimapIS8_S8_NS_4lessIS8_EENS1_INS_4pairIS9_S8_EEEEEEENKUlPKcSK_E_clESK_SK_EUlSK_SK_E_EEEEENS_5tupleIJDpOT_EEEST_, symObjAddr: 0x66710, symBinAddr: 0x100076340, symSize: 0x30 }
  - { offsetInCU: 0x8E26D, offset: 0xBD5E8, size: 0x8, addend: 0x0, symName: __ZNSt3__13getB7v160006ILm0EJRKNS_9allocatorIZZN7httplib6detail16parse_query_textERKNS_12basic_stringIcNS_11char_traitsIcEENS1_IcEEEERNS_8multimapIS8_S8_NS_4lessIS8_EENS1_INS_4pairIS9_S8_EEEEEEENKUlPKcSK_E_clESK_SK_EUlSK_SK_E_EEEEERNS_13tuple_elementIXT_ENS_5tupleIJDpT0_EEEE4typeERSU_, symObjAddr: 0x668C0, symBinAddr: 0x1000764F0, symSize: 0x20 }
  - { offsetInCU: 0x8E2B0, offset: 0xBD62B, size: 0x8, addend: 0x0, symName: __ZNSt3__18__invokeB7v160006IRZZN7httplib6detail16parse_query_textERKNS_12basic_stringIcNS_11char_traitsIcEENS_9allocatorIcEEEERNS_8multimapIS8_S8_NS_4lessIS8_EENS6_INS_4pairIS9_S8_EEEEEEENKUlPKcSK_E_clESK_SK_EUlSK_SK_E_JSK_SK_EEEDTclclsr3stdE7declvalIT_EEspclsr3stdE7declvalIT0_EEEEOSO_DpOSP_, symObjAddr: 0x669A0, symBinAddr: 0x1000765D0, symSize: 0x40 }
  - { offsetInCU: 0x8E334, offset: 0xBD6AF, size: 0x8, addend: 0x0, symName: __ZNSt3__112construct_atB7v160006INS_4pairIKNS_12basic_stringIcNS_11char_traitsIcEENS_9allocatorIcEEEES7_EEJRS8_SA_EPS9_EEPT_SD_DpOT0_, symObjAddr: 0x67530, symBinAddr: 0x100077160, symSize: 0x40 }
  - { offsetInCU: 0x8E3B7, offset: 0xBD732, size: 0x8, addend: 0x0, symName: __ZNSt3__16searchB7v160006IPKcPcEET_S4_S4_T0_S5_, symObjAddr: 0x6AD40, symBinAddr: 0x10007A970, symSize: 0x40 }
  - { offsetInCU: 0x8E41F, offset: 0xBD79A, size: 0x8, addend: 0x0, symName: __ZNSt3__16searchB7v160006IPKcPcNS_10__equal_toEEET_S5_S5_T0_S6_T1_, symObjAddr: 0x6ADC0, symBinAddr: 0x10007A9F0, symSize: 0x70 }
  - { offsetInCU: 0x8E4AC, offset: 0xBD827, size: 0x8, addend: 0x0, symName: __ZNSt3__113__search_implB7v160006IPKcS2_PcS3_NS_10__equal_toENS_10__identityES5_EENS_4pairIT_S7_EES7_T0_T1_T2_RT3_RT4_RT5_PNS_9enable_ifIXaasr33__is_cpp17_random_access_iteratorIS7_EE5valuesr33__is_cpp17_random_access_iteratorISA_EE5valueEvE4typeE, symObjAddr: 0x6AE30, symBinAddr: 0x10007AA60, symSize: 0xE0 }
  - { offsetInCU: 0x8E594, offset: 0xBD90F, size: 0x8, addend: 0x0, symName: __ZNSt3__19make_pairB7v160006IRPKcS3_EENS_4pairINS_18__unwrap_ref_decayIT_E4typeENS5_IT0_E4typeEEEOS6_OS9_, symObjAddr: 0x6AF10, symBinAddr: 0x10007AB40, symSize: 0x30 }
  - { offsetInCU: 0x8E5E3, offset: 0xBD95E, size: 0x8, addend: 0x0, symName: __ZNSt3__127__search_random_access_implB7v160006INS_17_ClassicAlgPolicyEPKcS3_PcS4_NS_10__equal_toENS_10__identityES6_llEENS_4pairIT0_S8_EES8_T1_T2_T3_RT4_RT5_RT6_T7_T8_, symObjAddr: 0x6AF40, symBinAddr: 0x10007AB70, symSize: 0x1A0 }
  - { offsetInCU: 0x8E714, offset: 0xBDA8F, size: 0x8, addend: 0x0, symName: __ZNSt3__19make_pairB7v160006IRPKcS2_EENS_4pairINS_18__unwrap_ref_decayIT_E4typeENS5_IT0_E4typeEEEOS6_OS9_, symObjAddr: 0x6B100, symBinAddr: 0x10007AD30, symSize: 0x30 }
  - { offsetInCU: 0x8E763, offset: 0xBDADE, size: 0x8, addend: 0x0, symName: __ZNSt3__14findB7v160006IPKccEET_S3_S3_RKT0_, symObjAddr: 0x6C770, symBinAddr: 0x10007C3A0, symSize: 0x60 }
  - { offsetInCU: 0x8E86D, offset: 0xBDBE8, size: 0x8, addend: 0x0, symName: __ZNSt3__116forward_as_tupleB7v160006IJZN7httplib6detail18parse_range_headerERKNS_12basic_stringIcNS_11char_traitsIcEENS_9allocatorIcEEEERNS_6vectorINS_4pairIllEENS6_ISD_EEEEEUlPKcSI_E_EEENS_5tupleIJDpOT_EEESN_, symObjAddr: 0x6CEF0, symBinAddr: 0x10007CB20, symSize: 0x30 }
  - { offsetInCU: 0x8E8A6, offset: 0xBDC21, size: 0x8, addend: 0x0, symName: __ZNSt3__116forward_as_tupleB7v160006IJNS_9allocatorIZN7httplib6detail18parse_range_headerERKNS_12basic_stringIcNS_11char_traitsIcEENS1_IcEEEERNS_6vectorINS_4pairIllEENS1_ISD_EEEEEUlPKcSI_E_EEEEENS_5tupleIJDpOT_EEESO_, symObjAddr: 0x6CF20, symBinAddr: 0x10007CB50, symSize: 0x30 }
  - { offsetInCU: 0x8E909, offset: 0xBDC84, size: 0x8, addend: 0x0, symName: __ZNSt3__13getB7v160006ILm0EJOZN7httplib6detail18parse_range_headerERKNS_12basic_stringIcNS_11char_traitsIcEENS_9allocatorIcEEEERNS_6vectorINS_4pairIllEENS6_ISD_EEEEEUlPKcSI_E_EEERNS_13tuple_elementIXT_ENS_5tupleIJDpT0_EEEE4typeERSP_, symObjAddr: 0x6D1F0, symBinAddr: 0x10007CE20, symSize: 0x20 }
  - { offsetInCU: 0x8E94B, offset: 0xBDCC6, size: 0x8, addend: 0x0, symName: __ZNSt3__13getB7v160006ILm0EJONS_9allocatorIZN7httplib6detail18parse_range_headerERKNS_12basic_stringIcNS_11char_traitsIcEENS1_IcEEEERNS_6vectorINS_4pairIllEENS1_ISD_EEEEEUlPKcSI_E_EEEEERNS_13tuple_elementIXT_ENS_5tupleIJDpT0_EEEE4typeERSQ_, symObjAddr: 0x6D230, symBinAddr: 0x10007CE60, symSize: 0x20 }
  - { offsetInCU: 0x8EE72, offset: 0xBE1ED, size: 0x8, addend: 0x0, symName: __ZNSt3__116forward_as_tupleB7v160006IJRKZN7httplib6detail18parse_range_headerERKNS_12basic_stringIcNS_11char_traitsIcEENS_9allocatorIcEEEERNS_6vectorINS_4pairIllEENS6_ISD_EEEEEUlPKcSI_E_EEENS_5tupleIJDpOT_EEESP_, symObjAddr: 0x6D710, symBinAddr: 0x10007D340, symSize: 0x30 }
  - { offsetInCU: 0x8EEC0, offset: 0xBE23B, size: 0x8, addend: 0x0, symName: __ZNSt3__13getB7v160006ILm0EJRKZN7httplib6detail18parse_range_headerERKNS_12basic_stringIcNS_11char_traitsIcEENS_9allocatorIcEEEERNS_6vectorINS_4pairIllEENS6_ISD_EEEEEUlPKcSI_E_EEERNS_13tuple_elementIXT_ENS_5tupleIJDpT0_EEEE4typeERSQ_, symObjAddr: 0x6D8E0, symBinAddr: 0x10007D510, symSize: 0x20 }
  - { offsetInCU: 0x8EF02, offset: 0xBE27D, size: 0x8, addend: 0x0, symName: __ZNSt3__116forward_as_tupleB7v160006IJRKNS_9allocatorIZN7httplib6detail18parse_range_headerERKNS_12basic_stringIcNS_11char_traitsIcEENS1_IcEEEERNS_6vectorINS_4pairIllEENS1_ISD_EEEEEUlPKcSI_E_EEEEENS_5tupleIJDpOT_EEESQ_, symObjAddr: 0x6DBE0, symBinAddr: 0x10007D810, symSize: 0x30 }
  - { offsetInCU: 0x8EF50, offset: 0xBE2CB, size: 0x8, addend: 0x0, symName: __ZNSt3__13getB7v160006ILm0EJRKNS_9allocatorIZN7httplib6detail18parse_range_headerERKNS_12basic_stringIcNS_11char_traitsIcEENS1_IcEEEERNS_6vectorINS_4pairIllEENS1_ISD_EEEEEUlPKcSI_E_EEEEERNS_13tuple_elementIXT_ENS_5tupleIJDpT0_EEEE4typeERSR_, symObjAddr: 0x6DD90, symBinAddr: 0x10007D9C0, symSize: 0x20 }
  - { offsetInCU: 0x8EF93, offset: 0xBE30E, size: 0x8, addend: 0x0, symName: __ZNSt3__18__invokeB7v160006IRZN7httplib6detail18parse_range_headerERKNS_12basic_stringIcNS_11char_traitsIcEENS_9allocatorIcEEEERNS_6vectorINS_4pairIllEENS6_ISD_EEEEEUlPKcSI_E_JSI_SI_EEEDTclclsr3stdE7declvalIT_EEspclsr3stdE7declvalIT0_EEEEOSL_DpOSM_, symObjAddr: 0x6DE70, symBinAddr: 0x10007DAA0, symSize: 0x40 }
  - { offsetInCU: 0x8EFF3, offset: 0xBE36E, size: 0x8, addend: 0x0, symName: __ZNSt3__111regex_matchB7v160006IPKcNS_9allocatorINS_9sub_matchIS2_EEEEcNS_12regex_traitsIcEEEEbT_S9_RNS_13match_resultsIS9_T0_EERKNS_11basic_regexIT1_T2_EENS_15regex_constants15match_flag_typeE, symObjAddr: 0x6E270, symBinAddr: 0x10007DEA0, symSize: 0xC0 }
  - { offsetInCU: 0x8F090, offset: 0xBE40B, size: 0x8, addend: 0x0, symName: __ZNSt3__19make_pairB7v160006IRlS1_EENS_4pairINS_18__unwrap_ref_decayIT_E4typeENS3_IT0_E4typeEEEOS4_OS7_, symObjAddr: 0x6E3F0, symBinAddr: 0x10007E020, symSize: 0x30 }
  - { offsetInCU: 0x8F0DF, offset: 0xBE45A, size: 0x8, addend: 0x0, symName: __ZNSt3__112regex_searchB7v160006INS_9allocatorINS_9sub_matchIPKcEEEEcNS_12regex_traitsIcEEEEbPKT0_SB_RNS_13match_resultsISB_T_EERKNS_11basic_regexIS9_T1_EENS_15regex_constants15match_flag_typeE, symObjAddr: 0x6E420, symBinAddr: 0x10007E050, symSize: 0x40 }
  - { offsetInCU: 0x8F509, offset: 0xBE884, size: 0x8, addend: 0x0, symName: __ZNSt3__14swapB7v160006IPPNS_7__stateIcEEEENS_9enable_ifIXaasr21is_move_constructibleIT_EE5valuesr18is_move_assignableIS6_EE5valueEvE4typeERS6_S9_, symObjAddr: 0x71160, symBinAddr: 0x100080D90, symSize: 0x40 }
  - { offsetInCU: 0x8F55A, offset: 0xBE8D5, size: 0x8, addend: 0x0, symName: __ZNSt3__14moveB7v160006IPPNS_7__stateIcEES4_EET0_T_S6_S5_, symObjAddr: 0x71270, symBinAddr: 0x100080EA0, symSize: 0x40 }
  - { offsetInCU: 0x8F5B4, offset: 0xBE92F, size: 0x8, addend: 0x0, symName: __ZNSt3__112__to_addressB7v160006IPNS_7__stateIcEEEEPT_S5_, symObjAddr: 0x71410, symBinAddr: 0x100081040, symSize: 0x10 }
  - { offsetInCU: 0x8F5E9, offset: 0xBE964, size: 0x8, addend: 0x0, symName: __ZNSt3__16__moveB7v160006INS_17_ClassicAlgPolicyEPPNS_7__stateIcEES5_S5_EENS_4pairIT0_T2_EES7_T1_S8_, symObjAddr: 0x71420, symBinAddr: 0x100081050, symSize: 0x40 }
  - { offsetInCU: 0x8F655, offset: 0xBE9D0, size: 0x8, addend: 0x0, symName: __ZNSt3__123__dispatch_copy_or_moveB7v160006INS_17_ClassicAlgPolicyENS_11__move_loopIS1_EENS_14__move_trivialEPPNS_7__stateIcEES8_S8_EENS_4pairIT2_T4_EESA_T3_SB_, symObjAddr: 0x71460, symBinAddr: 0x100081090, symSize: 0x40 }
  - { offsetInCU: 0x8F6D3, offset: 0xBEA4E, size: 0x8, addend: 0x0, symName: __ZNSt3__121__unwrap_and_dispatchB7v160006INS_10__overloadINS_11__move_loopINS_17_ClassicAlgPolicyEEENS_14__move_trivialEEEPPNS_7__stateIcEESA_SA_Li0EEENS_4pairIT0_T2_EESC_T1_SD_, symObjAddr: 0x714A0, symBinAddr: 0x1000810D0, symSize: 0xB0 }
  - { offsetInCU: 0x8F762, offset: 0xBEADD, size: 0x8, addend: 0x0, symName: __ZNSt3__114__unwrap_rangeB7v160006IPPNS_7__stateIcEES4_EEDaT_T0_, symObjAddr: 0x71550, symBinAddr: 0x100081180, symSize: 0x40 }
  - { offsetInCU: 0x8F926, offset: 0xBECA1, size: 0x8, addend: 0x0, symName: __ZNSt3__113__unwrap_iterB7v160006IPPNS_7__stateIcEENS_18__unwrap_iter_implIS4_Lb1EEELi0EEEDTclsrT0_8__unwrapclsr3stdE7declvalIT_EEEES8_, symObjAddr: 0x715D0, symBinAddr: 0x100081200, symSize: 0x20 }
  - { offsetInCU: 0x8F96A, offset: 0xBECE5, size: 0x8, addend: 0x0, symName: __ZNSt3__19make_pairB7v160006IPPNS_7__stateIcEES4_EENS_4pairINS_18__unwrap_ref_decayIT_E4typeENS6_IT0_E4typeEEEOS7_OSA_, symObjAddr: 0x715F0, symBinAddr: 0x100081220, symSize: 0x30 }
  - { offsetInCU: 0x8F9B9, offset: 0xBED34, size: 0x8, addend: 0x0, symName: __ZNSt3__114__rewrap_rangeB7v160006IPPNS_7__stateIcEES4_S4_EET0_S5_T1_, symObjAddr: 0x71620, symBinAddr: 0x100081250, symSize: 0x30 }
  - { offsetInCU: 0x8FA0E, offset: 0xBED89, size: 0x8, addend: 0x0, symName: __ZNSt3__113__rewrap_iterB7v160006IPPNS_7__stateIcEES4_NS_18__unwrap_iter_implIS4_Lb1EEEEET_S7_T0_, symObjAddr: 0x71650, symBinAddr: 0x100081280, symSize: 0x40 }
  - { offsetInCU: 0x8FAB3, offset: 0xBEE2E, size: 0x8, addend: 0x0, symName: __ZNSt3__119__copy_trivial_implB7v160006IPNS_7__stateIcEES3_EENS_4pairIPT_PT0_EES6_S6_S8_, symObjAddr: 0x71740, symBinAddr: 0x100081370, symSize: 0x70 }
  - { offsetInCU: 0x8FB1B, offset: 0xBEE96, size: 0x8, addend: 0x0, symName: __ZNSt3__19make_pairB7v160006IRPPNS_7__stateIcEES4_EENS_4pairINS_18__unwrap_ref_decayIT_E4typeENS7_IT0_E4typeEEEOS8_OSB_, symObjAddr: 0x717B0, symBinAddr: 0x1000813E0, symSize: 0x30 }
  - { offsetInCU: 0x8FBBD, offset: 0xBEF38, size: 0x8, addend: 0x0, symName: __ZNSt3__18distanceB7v160006INS_13move_iteratorIPPNS_7__stateIcEEEEEENS_15iterator_traitsIT_E15difference_typeES8_S8_, symObjAddr: 0x718E0, symBinAddr: 0x100081510, symSize: 0x40 }
  - { offsetInCU: 0x8FC00, offset: 0xBEF7B, size: 0x8, addend: 0x0, symName: __ZNSt3__110__distanceB7v160006INS_13move_iteratorIPPNS_7__stateIcEEEEEENS_15iterator_traitsIT_E15difference_typeES8_S8_NS_26random_access_iterator_tagE, symObjAddr: 0x71A10, symBinAddr: 0x100081640, symSize: 0x30 }
  - { offsetInCU: 0x8FC4E, offset: 0xBEFC9, size: 0x8, addend: 0x0, symName: __ZNSt3__1miB7v160006IPPNS_7__stateIcEES4_EEDTmicldtfp_4baseEcldtfp0_4baseEERKNS_13move_iteratorIT_EERKNS6_IT0_EE, symObjAddr: 0x71A40, symBinAddr: 0x100081670, symSize: 0x40 }
  - { offsetInCU: 0x8FCC2, offset: 0xBF03D, size: 0x8, addend: 0x0, symName: __ZNSt3__112construct_atB7v160006IPNS_7__stateIcEEJS3_EPS3_EEPT_S6_DpOT0_, symObjAddr: 0x71AD0, symBinAddr: 0x100081700, symSize: 0x30 }
  - { offsetInCU: 0x8FD32, offset: 0xBF0AD, size: 0x8, addend: 0x0, symName: __ZNSt3__112construct_atB7v160006IPNS_7__stateIcEEJRKS3_EPS3_EEPT_S8_DpOT0_, symObjAddr: 0x71BA0, symBinAddr: 0x1000817D0, symSize: 0x30 }
  - { offsetInCU: 0x8FDA2, offset: 0xBF11D, size: 0x8, addend: 0x0, symName: __ZNSt3__113move_backwardB7v160006IPPNS_7__stateIcEES4_EET0_T_S6_S5_, symObjAddr: 0x71C20, symBinAddr: 0x100081850, symSize: 0x40 }
  - { offsetInCU: 0x8FDFC, offset: 0xBF177, size: 0x8, addend: 0x0, symName: __ZNSt3__115__move_backwardB7v160006INS_17_ClassicAlgPolicyEPPNS_7__stateIcEES5_S5_EENS_4pairIT0_T2_EES7_T1_S8_, symObjAddr: 0x71C60, symBinAddr: 0x100081890, symSize: 0x40 }
  - { offsetInCU: 0x8FE68, offset: 0xBF1E3, size: 0x8, addend: 0x0, symName: __ZNSt3__123__dispatch_copy_or_moveB7v160006INS_17_ClassicAlgPolicyENS_20__move_backward_loopIS1_EENS_23__move_backward_trivialEPPNS_7__stateIcEES8_S8_EENS_4pairIT2_T4_EESA_T3_SB_, symObjAddr: 0x71CA0, symBinAddr: 0x1000818D0, symSize: 0x40 }
  - { offsetInCU: 0x8FEE6, offset: 0xBF261, size: 0x8, addend: 0x0, symName: __ZNSt3__121__unwrap_and_dispatchB7v160006INS_10__overloadINS_20__move_backward_loopINS_17_ClassicAlgPolicyEEENS_23__move_backward_trivialEEEPPNS_7__stateIcEESA_SA_Li0EEENS_4pairIT0_T2_EESC_T1_SD_, symObjAddr: 0x71CE0, symBinAddr: 0x100081910, symSize: 0xB0 }
  - { offsetInCU: 0x8FFBB, offset: 0xBF336, size: 0x8, addend: 0x0, symName: __ZNSt3__128__copy_backward_trivial_implB7v160006IPNS_7__stateIcEES3_EENS_4pairIPT_PT0_EES6_S6_S8_, symObjAddr: 0x71DD0, symBinAddr: 0x100081A00, symSize: 0x80 }
  - { offsetInCU: 0x90023, offset: 0xBF39E, size: 0x8, addend: 0x0, symName: __ZNSt3__19make_pairB7v160006IRPPNS_7__stateIcEES5_EENS_4pairINS_18__unwrap_ref_decayIT_E4typeENS7_IT0_E4typeEEEOS8_OSB_, symObjAddr: 0x71E50, symBinAddr: 0x100081A80, symSize: 0x30 }
  - { offsetInCU: 0x90072, offset: 0xBF3ED, size: 0x8, addend: 0x0, symName: __ZNSt3__119__allocate_at_leastB7v160006INS_9allocatorIPNS_7__stateIcEEEEEENS_19__allocation_resultINS_16allocator_traitsIT_E7pointerEEERS8_m, symObjAddr: 0x72010, symBinAddr: 0x100081C40, symSize: 0x40 }
  - { offsetInCU: 0x900B6, offset: 0xBF431, size: 0x8, addend: 0x0, symName: __ZNSt3__110destroy_atB7v160006IPNS_7__stateIcEELi0EEEvPT_, symObjAddr: 0x72590, symBinAddr: 0x1000821C0, symSize: 0x20 }
  - { offsetInCU: 0x900ED, offset: 0xBF468, size: 0x8, addend: 0x0, symName: __ZNSt3__112__destroy_atB7v160006IPNS_7__stateIcEELi0EEEvPT_, symObjAddr: 0x725B0, symBinAddr: 0x1000821E0, symSize: 0x10 }
  - { offsetInCU: 0x90123, offset: 0xBF49E, size: 0x8, addend: 0x0, symName: __ZNSt3__1neB7v160006ERKNS_16__deque_iteratorINS_7__stateIcEEPS2_RS2_PS3_lLl42EEES8_, symObjAddr: 0x72970, symBinAddr: 0x1000825A0, symSize: 0x30 }
  - { offsetInCU: 0x90160, offset: 0xBF4DB, size: 0x8, addend: 0x0, symName: __ZNSt3__1eqB7v160006ERKNS_16__deque_iteratorINS_7__stateIcEEPS2_RS2_PS3_lLl42EEES8_, symObjAddr: 0x72A00, symBinAddr: 0x100082630, symSize: 0x30 }
  - { offsetInCU: 0x9019D, offset: 0xBF518, size: 0x8, addend: 0x0, symName: __ZNSt3__18distanceB7v160006IPNS_9sub_matchIPKcEEEENS_15iterator_traitsIT_E15difference_typeES7_S7_, symObjAddr: 0x73820, symBinAddr: 0x100083450, symSize: 0x30 }
  - { offsetInCU: 0x901E0, offset: 0xBF55B, size: 0x8, addend: 0x0, symName: __ZNSt3__14copyB7v160006IPNS_9sub_matchIPKcEES5_EET0_T_S7_S6_, symObjAddr: 0x738A0, symBinAddr: 0x1000834D0, symSize: 0x40 }
  - { offsetInCU: 0x9023A, offset: 0xBF5B5, size: 0x8, addend: 0x0, symName: __ZNSt3__110__distanceB7v160006IPNS_9sub_matchIPKcEEEENS_15iterator_traitsIT_E15difference_typeES7_S7_NS_26random_access_iterator_tagE, symObjAddr: 0x738E0, symBinAddr: 0x100083510, symSize: 0x30 }
  - { offsetInCU: 0x90288, offset: 0xBF603, size: 0x8, addend: 0x0, symName: __ZNSt3__16__copyB7v160006INS_17_ClassicAlgPolicyEPNS_9sub_matchIPKcEES6_S6_EENS_4pairIT0_T2_EES8_T1_S9_, symObjAddr: 0x73910, symBinAddr: 0x100083540, symSize: 0x40 }
  - { offsetInCU: 0x902F4, offset: 0xBF66F, size: 0x8, addend: 0x0, symName: __ZNSt3__123__dispatch_copy_or_moveB7v160006INS_17_ClassicAlgPolicyENS_11__copy_loopIS1_EENS_14__copy_trivialEPNS_9sub_matchIPKcEES9_S9_EENS_4pairIT2_T4_EESB_T3_SC_, symObjAddr: 0x73950, symBinAddr: 0x100083580, symSize: 0x40 }
  - { offsetInCU: 0x90372, offset: 0xBF6ED, size: 0x8, addend: 0x0, symName: __ZNSt3__121__unwrap_and_dispatchB7v160006INS_10__overloadINS_11__copy_loopINS_17_ClassicAlgPolicyEEENS_14__copy_trivialEEEPNS_9sub_matchIPKcEESB_SB_Li0EEENS_4pairIT0_T2_EESD_T1_SE_, symObjAddr: 0x73990, symBinAddr: 0x1000835C0, symSize: 0xB0 }
  - { offsetInCU: 0x90401, offset: 0xBF77C, size: 0x8, addend: 0x0, symName: __ZNSt3__114__unwrap_rangeB7v160006IPNS_9sub_matchIPKcEES5_EEDaT_T0_, symObjAddr: 0x73A40, symBinAddr: 0x100083670, symSize: 0x40 }
  - { offsetInCU: 0x905B2, offset: 0xBF92D, size: 0x8, addend: 0x0, symName: __ZNSt3__113__unwrap_iterB7v160006IPNS_9sub_matchIPKcEENS_18__unwrap_iter_implIS5_Lb1EEELi0EEEDTclsrT0_8__unwrapclsr3stdE7declvalIT_EEEES9_, symObjAddr: 0x73B00, symBinAddr: 0x100083730, symSize: 0x20 }
  - { offsetInCU: 0x905F6, offset: 0xBF971, size: 0x8, addend: 0x0, symName: __ZNSt3__19make_pairB7v160006IPNS_9sub_matchIPKcEES5_EENS_4pairINS_18__unwrap_ref_decayIT_E4typeENS7_IT0_E4typeEEEOS8_OSB_, symObjAddr: 0x73B20, symBinAddr: 0x100083750, symSize: 0x30 }
  - { offsetInCU: 0x90645, offset: 0xBF9C0, size: 0x8, addend: 0x0, symName: __ZNSt3__114__rewrap_rangeB7v160006IPNS_9sub_matchIPKcEES5_S5_EET0_S6_T1_, symObjAddr: 0x73B50, symBinAddr: 0x100083780, symSize: 0x30 }
  - { offsetInCU: 0x9069A, offset: 0xBFA15, size: 0x8, addend: 0x0, symName: __ZNSt3__113__rewrap_iterB7v160006IPNS_9sub_matchIPKcEES5_NS_18__unwrap_iter_implIS5_Lb1EEEEET_S8_T0_, symObjAddr: 0x73B80, symBinAddr: 0x1000837B0, symSize: 0x40 }
  - { offsetInCU: 0x90792, offset: 0xBFB0D, size: 0x8, addend: 0x0, symName: __ZNSt3__18distanceB7v160006IPNS_4pairImPKcEEEENS_15iterator_traitsIT_E15difference_typeES7_S7_, symObjAddr: 0x73EC0, symBinAddr: 0x100083AF0, symSize: 0x30 }
  - { offsetInCU: 0x907D5, offset: 0xBFB50, size: 0x8, addend: 0x0, symName: __ZNSt3__14copyB7v160006IPNS_4pairImPKcEES5_EET0_T_S7_S6_, symObjAddr: 0x73F40, symBinAddr: 0x100083B70, symSize: 0x40 }
  - { offsetInCU: 0x9082F, offset: 0xBFBAA, size: 0x8, addend: 0x0, symName: __ZNSt3__110__distanceB7v160006IPNS_4pairImPKcEEEENS_15iterator_traitsIT_E15difference_typeES7_S7_NS_26random_access_iterator_tagE, symObjAddr: 0x74000, symBinAddr: 0x100083C30, symSize: 0x20 }
  - { offsetInCU: 0x9087D, offset: 0xBFBF8, size: 0x8, addend: 0x0, symName: __ZNSt3__16__copyB7v160006INS_17_ClassicAlgPolicyEPNS_4pairImPKcEES6_S6_EENS2_IT0_T2_EES7_T1_S8_, symObjAddr: 0x74020, symBinAddr: 0x100083C50, symSize: 0x40 }
  - { offsetInCU: 0x908E9, offset: 0xBFC64, size: 0x8, addend: 0x0, symName: __ZNSt3__123__dispatch_copy_or_moveB7v160006INS_17_ClassicAlgPolicyENS_11__copy_loopIS1_EENS_14__copy_trivialEPNS_4pairImPKcEES9_S9_EENS5_IT2_T4_EESA_T3_SB_, symObjAddr: 0x74060, symBinAddr: 0x100083C90, symSize: 0x40 }
  - { offsetInCU: 0x90967, offset: 0xBFCE2, size: 0x8, addend: 0x0, symName: __ZNSt3__121__unwrap_and_dispatchB7v160006INS_10__overloadINS_11__copy_loopINS_17_ClassicAlgPolicyEEENS_14__copy_trivialEEEPNS_4pairImPKcEESB_SB_Li0EEENS7_IT0_T2_EESC_T1_SD_, symObjAddr: 0x740A0, symBinAddr: 0x100083CD0, symSize: 0xB0 }
  - { offsetInCU: 0x909F6, offset: 0xBFD71, size: 0x8, addend: 0x0, symName: __ZNSt3__114__unwrap_rangeB7v160006IPNS_4pairImPKcEES5_EEDaT_T0_, symObjAddr: 0x74150, symBinAddr: 0x100083D80, symSize: 0x40 }
  - { offsetInCU: 0x90B16, offset: 0xBFE91, size: 0x8, addend: 0x0, symName: __ZNSt3__113__unwrap_iterB7v160006IPNS_4pairImPKcEENS_18__unwrap_iter_implIS5_Lb1EEELi0EEEDTclsrT0_8__unwrapclsr3stdE7declvalIT_EEEES9_, symObjAddr: 0x74210, symBinAddr: 0x100083E40, symSize: 0x20 }
  - { offsetInCU: 0x90B5A, offset: 0xBFED5, size: 0x8, addend: 0x0, symName: __ZNSt3__19make_pairB7v160006IPNS_4pairImPKcEES5_EENS1_INS_18__unwrap_ref_decayIT_E4typeENS6_IT0_E4typeEEEOS7_OSA_, symObjAddr: 0x74230, symBinAddr: 0x100083E60, symSize: 0x30 }
  - { offsetInCU: 0x90BA9, offset: 0xBFF24, size: 0x8, addend: 0x0, symName: __ZNSt3__114__rewrap_rangeB7v160006IPNS_4pairImPKcEES5_S5_EET0_S6_T1_, symObjAddr: 0x74260, symBinAddr: 0x100083E90, symSize: 0x30 }
  - { offsetInCU: 0x90BFE, offset: 0xBFF79, size: 0x8, addend: 0x0, symName: __ZNSt3__113__rewrap_iterB7v160006IPNS_4pairImPKcEES5_NS_18__unwrap_iter_implIS5_Lb1EEEEET_S8_T0_, symObjAddr: 0x74290, symBinAddr: 0x100083EC0, symSize: 0x40 }
  - { offsetInCU: 0x90D1B, offset: 0xC0096, size: 0x8, addend: 0x0, symName: __ZNSt3__112construct_atB7v160006INS_4pairIllEEJS2_EPS2_EEPT_S5_DpOT0_, symObjAddr: 0x747B0, symBinAddr: 0x1000843E0, symSize: 0x30 }
  - { offsetInCU: 0x90D8B, offset: 0xC0106, size: 0x8, addend: 0x0, symName: __ZNSt3__119__allocate_at_leastB7v160006INS_9allocatorINS_4pairIllEEEEEENS_19__allocation_resultINS_16allocator_traitsIT_E7pointerEEERS7_m, symObjAddr: 0x74C20, symBinAddr: 0x100084850, symSize: 0x40 }
  - { offsetInCU: 0x90DCE, offset: 0xC0149, size: 0x8, addend: 0x0, symName: __ZNSt3__142__uninitialized_allocator_move_if_noexceptB7v160006INS_9allocatorINS_4pairIllEEEENS_16reverse_iteratorIPS3_EES7_S7_EET2_RT_T0_T1_S8_, symObjAddr: 0x74DB0, symBinAddr: 0x1000849E0, symSize: 0x180 }
  - { offsetInCU: 0x90E6D, offset: 0xC01E8, size: 0x8, addend: 0x0, symName: __ZNSt3__14swapB7v160006IPNS_4pairIllEEEENS_9enable_ifIXaasr21is_move_constructibleIT_EE5valuesr18is_move_assignableIS5_EE5valueEvE4typeERS5_S8_, symObjAddr: 0x74F80, symBinAddr: 0x100084BB0, symSize: 0x40 }
  - { offsetInCU: 0x90EBE, offset: 0xC0239, size: 0x8, addend: 0x0, symName: __ZNSt3__122__make_exception_guardB7v160006INS_29_AllocatorDestroyRangeReverseINS_9allocatorINS_4pairIllEEEENS_16reverse_iteratorIPS4_EEEEEENS_28__exception_guard_exceptionsIT_EESB_, symObjAddr: 0x75070, symBinAddr: 0x100084CA0, symSize: 0x60 }
  - { offsetInCU: 0x90EF3, offset: 0xC026E, size: 0x8, addend: 0x0, symName: __ZNSt3__1neB7v160006IPNS_4pairIllEES3_EEbRKNS_16reverse_iteratorIT_EERKNS4_IT0_EE, symObjAddr: 0x75110, symBinAddr: 0x100084D40, symSize: 0x40 }
  - { offsetInCU: 0x90F3F, offset: 0xC02BA, size: 0x8, addend: 0x0, symName: __ZNSt3__112__to_addressB7v160006INS_16reverse_iteratorIPNS_4pairIllEEEEvEENS_5decayIDTclsr19__to_address_helperIT_EE6__callclsr3stdE7declvalIRKS7_EEEEE4typeES9_, symObjAddr: 0x75150, symBinAddr: 0x100084D80, symSize: 0x20 }
  - { offsetInCU: 0x90F9F, offset: 0xC031A, size: 0x8, addend: 0x0, symName: __ZNSt3__14prevB7v160006IPNS_4pairIllEEEENS_9enable_ifIXsr25__is_cpp17_input_iteratorIT_EE5valueES5_E4typeES5_NS_15iterator_traitsIS5_E15difference_typeE, symObjAddr: 0x75320, symBinAddr: 0x100084F50, symSize: 0x50 }
  - { offsetInCU: 0x90FE3, offset: 0xC035E, size: 0x8, addend: 0x0, symName: __ZNSt3__19__advanceB7v160006IPNS_4pairIllEEEEvRT_NS_15iterator_traitsIS4_E15difference_typeENS_26random_access_iterator_tagE, symObjAddr: 0x753C0, symBinAddr: 0x100084FF0, symSize: 0x20 }
  - { offsetInCU: 0x9102D, offset: 0xC03A8, size: 0x8, addend: 0x0, symName: __ZNSt3__119__allocator_destroyB7v160006INS_9allocatorINS_4pairIllEEEENS_16reverse_iteratorINS5_IPS3_EEEES8_EEvRT_T0_T1_, symObjAddr: 0x75510, symBinAddr: 0x100085140, symSize: 0x70 }
  - { offsetInCU: 0x9108F, offset: 0xC040A, size: 0x8, addend: 0x0, symName: __ZNSt3__1neB7v160006INS_16reverse_iteratorIPNS_4pairIllEEEES5_EEbRKNS1_IT_EERKNS1_IT0_EE, symObjAddr: 0x755B0, symBinAddr: 0x1000851E0, symSize: 0x50 }
  - { offsetInCU: 0x910DB, offset: 0xC0456, size: 0x8, addend: 0x0, symName: __ZNSt3__112__to_addressB7v160006INS_16reverse_iteratorINS1_IPNS_4pairIllEEEEEEvEENS_5decayIDTclsr19__to_address_helperIT_EE6__callclsr3stdE7declvalIRKS8_EEEEE4typeESA_, symObjAddr: 0x75600, symBinAddr: 0x100085230, symSize: 0x20 }
  - { offsetInCU: 0x9113B, offset: 0xC04B6, size: 0x8, addend: 0x0, symName: __ZNSt3__14prevB7v160006INS_16reverse_iteratorIPNS_4pairIllEEEEEENS_9enable_ifIXsr25__is_cpp17_input_iteratorIT_EE5valueES7_E4typeES7_NS_15iterator_traitsIS7_E15difference_typeE, symObjAddr: 0x75700, symBinAddr: 0x100085330, symSize: 0x60 }
  - { offsetInCU: 0x9117F, offset: 0xC04FA, size: 0x8, addend: 0x0, symName: __ZNSt3__19__advanceB7v160006INS_16reverse_iteratorIPNS_4pairIllEEEEEEvRT_NS_15iterator_traitsIS6_E15difference_typeENS_26random_access_iterator_tagE, symObjAddr: 0x757B0, symBinAddr: 0x1000853E0, symSize: 0x30 }
  - { offsetInCU: 0x911C8, offset: 0xC0543, size: 0x8, addend: 0x0, symName: __ZNSt3__1neB7v160006IPN7httplib6Server15MountPointEntryEEEbRKNS_11__wrap_iterIT_EES9_, symObjAddr: 0x769C0, symBinAddr: 0x1000865F0, symSize: 0x30 }
  - { offsetInCU: 0x9120B, offset: 0xC0586, size: 0x8, addend: 0x0, symName: __ZNSt3__1plB7v160006IcNS_11char_traitsIcEENS_9allocatorIcEEEENS_12basic_stringIT_T0_T1_EERKS9_SB_, symObjAddr: 0x76D20, symBinAddr: 0x100086950, symSize: 0x110 }
  - { offsetInCU: 0x912AD, offset: 0xC0628, size: 0x8, addend: 0x0, symName: __ZNSt3__111make_sharedB7v160006IN7httplib6detail4mmapEJPKcEvEENS_10shared_ptrIT_EEDpOT0_, symObjAddr: 0x76EE0, symBinAddr: 0x100086B10, symSize: 0x40 }
  - { offsetInCU: 0x912F0, offset: 0xC066B, size: 0x8, addend: 0x0, symName: __ZNSt3__1eqB7v160006IPN7httplib6Server15MountPointEntryEEEbRKNS_11__wrap_iterIT_EES9_, symObjAddr: 0x77C20, symBinAddr: 0x100087850, symSize: 0x40 }
  - { offsetInCU: 0x91333, offset: 0xC06AE, size: 0x8, addend: 0x0, symName: __ZNSt3__115allocate_sharedB7v160006IN7httplib6detail4mmapENS_9allocatorIS3_EEJPKcEvEENS_10shared_ptrIT_EERKT0_DpOT1_, symObjAddr: 0x77C80, symBinAddr: 0x1000878B0, symSize: 0xB0 }
  - { offsetInCU: 0x91674, offset: 0xC09EF, size: 0x8, addend: 0x0, symName: __ZNSt3__112construct_atB7v160006IN7httplib6detail4mmapEJPKcEPS3_EEPT_S8_DpOT0_, symObjAddr: 0x782D0, symBinAddr: 0x100087F00, symSize: 0x40 }
  - { offsetInCU: 0x916E5, offset: 0xC0A60, size: 0x8, addend: 0x0, symName: __ZNSt3__110destroy_atB7v160006IN7httplib6detail4mmapELi0EEEvPT_, symObjAddr: 0x78560, symBinAddr: 0x100088190, symSize: 0x20 }
  - { offsetInCU: 0x9171C, offset: 0xC0A97, size: 0x8, addend: 0x0, symName: __ZNSt3__112__destroy_atB7v160006IN7httplib6detail4mmapELi0EEEvPT_, symObjAddr: 0x78580, symBinAddr: 0x1000881B0, symSize: 0x20 }
  - { offsetInCU: 0x91785, offset: 0xC0B00, size: 0x8, addend: 0x0, symName: __ZNSt3__112regex_searchB7v160006INS_11char_traitsIcEENS_9allocatorIcEENS3_INS_9sub_matchINS_11__wrap_iterIPKcEEEEEEcNS_12regex_traitsIcEEEEbRKNS_12basic_stringIT2_T_T0_EERNS_13match_resultsINSI_14const_iteratorET1_EERKNS_11basic_regexISF_T3_EENS_15regex_constants15match_flag_typeE, symObjAddr: 0x78C60, symBinAddr: 0x100088890, symSize: 0x160 }
  - { offsetInCU: 0x91852, offset: 0xC0BCD, size: 0x8, addend: 0x0, symName: __ZNSt3__112construct_atB7v160006INS_9sub_matchINS_11__wrap_iterIPKcEEEEJEPS6_EEPT_S9_DpOT0_, symObjAddr: 0x79810, symBinAddr: 0x100089440, symSize: 0x30 }
  - { offsetInCU: 0x918AE, offset: 0xC0C29, size: 0x8, addend: 0x0, symName: __ZNSt3__119__allocate_at_leastB7v160006INS_9allocatorINS_9sub_matchINS_11__wrap_iterIPKcEEEEEEEENS_19__allocation_resultINS_16allocator_traitsIT_E7pointerEEERSB_m, symObjAddr: 0x79AD0, symBinAddr: 0x100089700, symSize: 0x40 }
